   1              		.code	16
   2              		.file	"main.c"
   3              		.section	.rodata.str1.4,"aMS",%progbits,1
   4              		.align	2
   5              	.LC0:
   6 0000 55534200 		.ascii	"USB\000"
   7              		.align	2
   8              	.LC3:
   9 0004 4F6E5553 		.ascii	"OnUSBComm\000"
   9      42436F6D 
   9      6D00
  10 000e 0000     		.align	2
  11              	.LC6:
  12 0010 50757368 		.ascii	"PushbuttonTask\000"
  12      62757474 
  12      6F6E5461 
  12      736B00
  13 001f 00       		.section	.text.main,"ax",%progbits
  14              		.align	2
  15              		.global	main
  16              		.code 16
  17              		.thumb_func
  19              	main:
  20 0000 30B5     		push	{r4, r5, lr}
  21 0002 1E4B     		ldr	r3, .L7
  22 0004 0025     		mov	r5, #0
  23 0006 82B0     		sub	sp, sp, #8
  24 0008 5D63     		str	r5, [r3, #52]
  25 000a 1D48     		ldr	r0, .L7+4
  26 000c 1D49     		ldr	r1, .L7+8
  27 000e FFF7FEFF 		bl	AT91F_PMC_EnablePeriphClock
  28 0012 1D48     		ldr	r0, .L7+12
  29 0014 0121     		mov	r1, #1
  30 0016 FFF7FEFF 		bl	AT91F_RSTSetMode
  31 001a FFF7FEFF 		bl	InitADC
  32 001e FFF7FEFF 		bl	EnableAllPWM
  33 0022 FFF7FEFF 		bl	InitLEDs
  34 0026 FFF7FEFF 		bl	InitGPIO
  35 002a FFF7FEFF 		bl	InitLEDs
  36 002e 0223     		mov	r3, #2
  37 0030 9622     		mov	r2, #150
  38 0032 1649     		ldr	r1, .L7+16
  39 0034 0093     		str	r3, [sp]
  40 0036 5200     		lsl	r2, r2, #1
  41 0038 0023     		mov	r3, #0
  42 003a 1548     		ldr	r0, .L7+20
  43 003c 0195     		str	r5, [sp, #4]
  44 003e FFF7FEFF 		bl	xTaskCreate
  45 0042 AF22     		mov	r2, #175
  46 0044 1349     		ldr	r1, .L7+24
  47 0046 0124     		mov	r4, #1
  48 0048 9200     		lsl	r2, r2, #2
  49 004a 0023     		mov	r3, #0
  50 004c 1248     		ldr	r0, .L7+28
  51 004e 0094     		str	r4, [sp]
  52 0050 0195     		str	r5, [sp, #4]
  53 0052 FFF7FEFF 		bl	xTaskCreate
  54 0056 1149     		ldr	r1, .L7+32
  55 0058 6422     		mov	r2, #100
  56 005a 0023     		mov	r3, #0
  57 005c 1048     		ldr	r0, .L7+36
  58 005e 0094     		str	r4, [sp]
  59 0060 0195     		str	r5, [sp, #4]
  60 0062 FFF7FEFF 		bl	xTaskCreate
  61 0066 FFF7FEFF 		bl	vTaskStartScheduler
  62              	.L2:
  63 006a 0420     		mov	r0, #4
  64 006c FFF7FEFF 		bl	Toggle_LED
  65 0070 0C4B     		ldr	r3, .L7+40
  66              	.L3:
  67 0072 013B     		sub	r3, r3, #1
  68 0074 002B     		cmp	r3, #0
  69 0076 FCD1     		bne	.L3
  70 0078 F7E7     		b	.L2
  71              	.L8:
  72 007a 0000     		.align	2
  73              	.L7:
  74 007c FCF0FFFF 		.word	-3844
  75 0080 00FCFFFF 		.word	-1024
  76 0084 C4040040 		.word	1073743044
  77 0088 00FDFFFF 		.word	-768
  78 008c 00000000 		.word	.LC0
  79 0090 00000000 		.word	vUSBCDCTask
  80 0094 04000000 		.word	.LC3
  81 0098 00000000 		.word	onUSBCommTask
  82 009c 10000000 		.word	.LC6
  83 00a0 00000000 		.word	onPushbuttonTask
  84 00a4 80841E00 		.word	2000000
  86              		.ident	"GCC: (GNU) 4.0.2"
DEFINED SYMBOLS
                            *ABS*:00000000 main.c
/cygdrive/c/Users/brent/AppData/Local/Temp/cc4K33J7.s:1      .text:00000000 $t
/cygdrive/c/Users/brent/AppData/Local/Temp/cc4K33J7.s:19     .text.main:00000000 main
/cygdrive/c/Users/brent/AppData/Local/Temp/cc4K33J7.s:16     .text.main:00000000 $t
/cygdrive/c/Users/brent/AppData/Local/Temp/cc4K33J7.s:74     .text.main:0000007c $d

UNDEFINED SYMBOLS
AT91F_PMC_EnablePeriphClock
AT91F_RSTSetMode
InitADC
EnableAllPWM
InitLEDs
InitGPIO
xTaskCreate
vTaskStartScheduler
Toggle_LED
vUSBCDCTask
onUSBCommTask
onPushbuttonTask
