   1              		.file	"triggerWheelIsr.c"
   2              		.section	.text.coilPack_irq_handler,"ax",%progbits
   3              		.align	2
   4              		.global	coilPack_irq_handler
   6              	coilPack_irq_handler:
   7              		@ Interrupt Service Routine.
   8              		@ args = 0, pretend = 0, frame = 0
   9              		@ frame_needed = 0, uses_anonymous_args = 0
  10              		@ link register save eliminated.
  11 0000 0F102DE9 		stmfd	sp!, {r0, r1, r2, r3, ip}
  12 0004 48009FE5 		ldr	r0, .L3
  13 0008 48C09FE5 		ldr	ip, .L3+4
  14 000c 001090E5 		ldr	r1, [r0, #0]
  15 0010 00209CE5 		ldr	r2, [ip, #0]
  16 0014 40309FE5 		ldr	r3, .L3+8
  17 0018 341083E5 		str	r1, [r3, #52]
  18 001c 302083E5 		str	r2, [r3, #48]
  19 0020 38309FE5 		ldr	r3, .L3+12
  20 0024 38109FE5 		ldr	r1, .L3+16
  21 0028 203093E5 		ldr	r3, [r3, #32]
  22 002c 303181E5 		str	r3, [r1, #304]
  23 0030 0139A0E3 		mov	r3, #16384
  24 0034 283181E5 		str	r3, [r1, #296]
  25 0038 28309FE5 		ldr	r3, .L3+20
  26 003c 0020A0E3 		mov	r2, #0
  27 0040 002083E5 		str	r2, [r3, #0]
  28              		@ lr needed for prologue
  29 0044 002080E5 		str	r2, [r0, #0]
  30 0048 00208CE5 		str	r2, [ip, #0]
  31 004c 0F10BDE8 		ldmfd	sp!, {r0, r1, r2, r3, ip}
  32 0050 04F05EE2 		subs	pc, lr, #4
  33              	.L4:
  34              		.align	2
  35              	.L3:
  36 0054 00000000 		.word	g_coilDriversToFire
  37 0058 00000000 		.word	g_coilDriversToCharge
  38 005c 00F4FFFF 		.word	-3072
  39 0060 8000FAFF 		.word	-393088
  40 0064 00F0FFFF 		.word	-4096
  41 0068 30F1FFFF 		.word	-3792
  43              		.global	__udivsi3
  44              		.section	.text.triggerWheel_irq_handler,"ax",%progbits
  45              		.align	2
  46              		.global	triggerWheel_irq_handler
  48              	triggerWheel_irq_handler:
  49              		@ Function supports interworking.
  50              		@ Naked Function: prologue and epilogue provided by programmer.
  51              		@ args = 0, pretend = 0, frame = 0
  52              		@ frame_needed = 0, uses_anonymous_args = 0
  53 0000 01002DE9 		STMDB	SP!, {R0}											
  54 0004 00204DE9 		STMDB	SP,{SP}^											
  55 0008 0000A0E1 		NOP														
  56 000c 04D04DE2 		SUB	SP, SP, #4											
  57 0010 0100BDE8 		LDMIA	SP!,{R0}											
  58 0014 004020E9 		STMDB	R0!, {LR}											
  59 0018 00E0A0E1 		MOV	LR, R0												
  60 001c 0100BDE8 		LDMIA	SP!, {R0}											
  61 0020 FF7F4EE9 		STMDB	LR,{R0-LR}^											
  62 0024 0000A0E1 		NOP														
  63 0028 3CE04EE2 		SUB	LR, LR, #60											
  64 002c 00004FE1 		MRS	R0, SPSR											
  65 0030 01002EE9 		STMDB	LR!, {R0}											
  66 0034 6C039FE5 		LDR	R0, =ulCriticalNesting								
  67 0038 000090E5 		LDR	R0, [R0]											
  68 003c 01002EE9 		STMDB	LR!, {R0}											
  69 0040 64039FE5 		LDR	R0, =pxCurrentTCB									
  70 0044 000090E5 		LDR	R0, [R0]											
  71 0048 00E080E5 		STR	LR, [R0]											
  72              		
  73 004c 00339FE5 		ldr	r3, .L49
  74 0050 003093E5 		ldr	r3, [r3, #0]
  75 0054 FC329FE5 		ldr	r3, .L49+4
  76 0058 003093E5 		ldr	r3, [r3, #0]
  77 005c 04B04EE2 		SUB		R11, LR, #4
  78 0060 F4C29FE5 		ldr	ip, .L49+8
  79 0064 20309CE5 		ldr	r3, [ip, #32]
  80 0068 010013E2 		ands	r0, r3, #1
  81 006c EC229FE5 		ldr	r2, .L49+12
  82 0070 2D00000A 		beq	.L6
  83 0074 003092E5 		ldr	r3, [r2, #0]
  84 0078 013083E2 		add	r3, r3, #1
  85 007c 020053E3 		cmp	r3, #2
  86 0080 003082E5 		str	r3, [r2, #0]
  87 0084 00B0A093 		movls	fp, #0
  88 0088 BF00009A 		bls	.L10
  89 008c D0329FE5 		ldr	r3, .L49+16
  90 0090 0F2AA0E3 		mov	r2, #61440
  91 0094 342083E5 		str	r2, [r3, #52]
  92 0098 C8329FE5 		ldr	r3, .L49+20
  93 009c 0010A0E3 		mov	r1, #0
  94 00a0 001083E5 		str	r1, [r3, #0]
  95 00a4 0230A0E3 		mov	r3, #2
  96 00a8 00308CE5 		str	r3, [ip, #0]
  97 00ac 01B0A0E1 		mov	fp, r1
  98 00b0 0130A0E3 		mov	r3, #1
  99 00b4 00308CE5 		str	r3, [ip, #0]
 100 00b8 BF0000EA 		b	.L10
 101              	.L6:
 102 00bc A8329FE5 		ldr	r3, .L49+24
 103 00c0 18109CE5 		ldr	r1, [ip, #24]
 104 00c4 002092E5 		ldr	r2, [r2, #0]
 105 00c8 003093E5 		ldr	r3, [r3, #0]
 106 00cc 026881E0 		add	r6, r1, r2, asl #16
 107 00d0 A33083E0 		add	r3, r3, r3, lsr #1
 108 00d4 030056E1 		cmp	r6, r3
 109 00d8 90329FE5 		ldr	r3, .L49+28
 110 00dc 002093E5 		ldr	r2, [r3, #0]
 111 00e0 8C329FE5 		ldr	r3, .L49+32
 112 00e4 008093E5 		ldr	r8, [r3, #0]
 113 00e8 88329FE5 		ldr	r3, .L49+36
 114 00ec 00C093E5 		ldr	ip, [r3, #0]
 115 00f0 5F00009A 		bls	.L11
 116 00f4 80329FE5 		ldr	r3, .L49+40
 117 00f8 230052E3 		cmp	r2, #35
 118 00fc 002083E5 		str	r2, [r3, #0]
 119 0100 A660A0E1 		mov	r6, r6, lsr #1
 120 0104 4800000A 		beq	.L13
 121 0108 70229FE5 		ldr	r2, .L49+44
 122 010c 003092E5 		ldr	r3, [r2, #0]
 123 0110 00B0A0E1 		mov	fp, r0
 124 0114 013083E2 		add	r3, r3, #1
 125 0118 06A0A0E1 		mov	sl, r6
 126 011c 0190A0E3 		mov	r9, #1
 127 0120 0080A0E1 		mov	r8, r0
 128 0124 710000EA 		b	.L46
 129              	.L13:
 130 0128 54129FE5 		ldr	r1, .L49+48
 131 012c 54029FE5 		ldr	r0, .L49+52
 132 0130 007091E5 		ldr	r7, [r1, #0]
 133 0134 50329FE5 		ldr	r3, .L49+56
 134 0138 000057E1 		cmp	r7, r0
 135 013c 06208CE0 		add	r2, ip, r6
 136 0140 002083E5 		str	r2, [r3, #0]
 137 0144 80308702 		addeq	r3, r7, #128
 138 0148 00308105 		streq	r3, [r1, #0]
 139 014c 3C329FE5 		ldr	r3, .L49+60
 140 0150 00008115 		strne	r0, [r1, #0]
 141 0154 0010A0E3 		mov	r1, #0
 142 0158 000093E5 		ldr	r0, [r3, #0]
 143 015c 0120A0E1 		mov	r2, r1
 144 0160 FEFFFFEB 		bl	xQueueSendFromISR
 145 0164 0120A0E3 		mov	r2, #1
 146 0168 F8319FE5 		ldr	r3, .L49+20
 147 016c 0290A0E1 		mov	r9, r2
 148 0170 FFB000E2 		and	fp, r0, #255
 149 0174 06A0A0E1 		mov	sl, r6
 150 0178 0280A0E1 		mov	r8, r2
 151 017c 002083E5 		str	r2, [r3, #0]
 152 0180 8F0000EA 		b	.L19
 153              	.L11:
 154 0184 000058E3 		cmp	r8, #0
 155 0188 06A08CE0 		add	sl, ip, r6
 156 018c 019082E2 		add	r9, r2, #1
 157 0190 08B0A001 		moveq	fp, r8
 158 0194 B400000A 		beq	.L15
 159 0198 8D0000EA 		b	.L20
 160              	.L42:
 161 019c F0319FE5 		ldr	r3, .L49+64
 162 01a0 1C2094E5 		ldr	r2, [r4, #28]
 163 01a4 0600A0E1 		mov	r0, r6
 164 01a8 002083E5 		str	r2, [r3, #0]
 165 01ac 0A10A0E3 		mov	r1, #10
 166 01b0 FEFFFFEB 		bl	__udivsi3
 167 01b4 183094E5 		ldr	r3, [r4, #24]
 168              	.L47:
 169 01b8 906323E0 		mla	r3, r0, r3, r6
 170              	.L48:
 171 01bc D4219FE5 		ldr	r2, .L49+68
 172 01c0 2331A0E1 		mov	r3, r3, lsr #2
 173 01c4 1C3082E5 		str	r3, [r2, #28]
 174 01c8 0430A0E3 		mov	r3, #4
 175              	.L46:
 176 01cc 003082E5 		str	r3, [r2, #0]
 177 01d0 B40000EA 		b	.L15
 178              	.L43:
 179 01d4 C0319FE5 		ldr	r3, .L49+72
 180 01d8 1C2094E5 		ldr	r2, [r4, #28]
 181 01dc 0600A0E1 		mov	r0, r6
 182 01e0 002083E5 		str	r2, [r3, #0]
 183 01e4 0A10A0E3 		mov	r1, #10
 184 01e8 FEFFFFEB 		bl	__udivsi3
 185 01ec 0C3094E5 		ldr	r3, [r4, #12]
 186 01f0 6C0000EA 		b	.L47
 187              	.L44:
 188 01f4 1C2094E5 		ldr	r2, [r4, #28]
 189 01f8 9C319FE5 		ldr	r3, .L49+72
 190 01fc 0600A0E1 		mov	r0, r6
 191 0200 002083E5 		str	r2, [r3, #0]
 192 0204 0A10A0E3 		mov	r1, #10
 193 0208 FEFFFFEB 		bl	__udivsi3
 194 020c 0C2094E5 		ldr	r2, [r4, #12]
 195 0210 8630A0E1 		mov	r3, r6, asl #1
 196 0214 923023E0 		mla	r3, r2, r0, r3
 197 0218 6D0000EA 		b	.L48
 198              	.L45:
 199 021c 78319FE5 		ldr	r3, .L49+72
 200 0220 1C2095E5 		ldr	r2, [r5, #28]
 201 0224 0600A0E1 		mov	r0, r6
 202 0228 002083E5 		str	r2, [r3, #0]
 203 022c 0A10A0E3 		mov	r1, #10
 204 0230 FEFFFFEB 		bl	__udivsi3
 205 0234 0C3095E5 		ldr	r3, [r5, #12]
 206 0238 6C0000EA 		b	.L47
 207              	.L20:
 208 023c 00B0A0E1 		mov	fp, r0
 209 0240 0070A0E1 		mov	r7, r0
 210              	.L19:
 211 0244 38319FE5 		ldr	r3, .L49+48
 212 0248 001093E5 		ldr	r1, [r3, #0]
 213 024c 4C319FE5 		ldr	r3, .L49+76
 214 0250 000093E5 		ldr	r0, [r3, #0]
 215 0254 012089E2 		add	r2, r9, #1
 216 0258 803281E0 		add	r3, r1, r0, asl #5
 217 025c 230052E3 		cmp	r2, #35
 218 0260 0020A083 		movhi	r2, #0
 219 0264 204043E2 		sub	r4, r3, #32
 220              	.L24:
 221 0268 143094E5 		ldr	r3, [r4, #20]
 222 026c 030052E1 		cmp	r2, r3
 223 0270 6500000A 		beq	.L42
 224 0274 010054E1 		cmp	r4, r1
 225 0278 203044E2 		sub	r3, r4, #32
 226 027c 0340A0E1 		mov	r4, r3
 227 0280 9800001A 		bne	.L24
 228 0284 0140A0E1 		mov	r4, r1
 229 0288 0750A0E1 		mov	r5, r7
 230 028c 0010A0E3 		mov	r1, #0
 231 0290 B10000EA 		b	.L29
 232              	.L30:
 233 0294 083094E5 		ldr	r3, [r4, #8]
 234 0298 030052E1 		cmp	r2, r3
 235 029c 7300000A 		beq	.L43
 236 02a0 000052E3 		cmp	r2, #0
 237 02a4 AA00001A 		bne	.L33
 238 02a8 010053E3 		cmp	r3, #1
 239 02ac 7B00000A 		beq	.L44
 240              	.L33:
 241 02b0 000057E3 		cmp	r7, #0
 242 02b4 204084E2 		add	r4, r4, #32
 243 02b8 B000000A 		beq	.L36
 244 02bc 083095E5 		ldr	r3, [r5, #8]
 245 02c0 020053E1 		cmp	r3, r2
 246 02c4 8500000A 		beq	.L45
 247              	.L36:
 248 02c8 205085E2 		add	r5, r5, #32
 249              	.L29:
 250 02cc 000051E1 		cmp	r1, r0
 251 02d0 011081E2 		add	r1, r1, #1
 252 02d4 A300003A 		bcc	.L30
 253              	.L15:
 254 02d8 80309FE5 		ldr	r3, .L49+12
 255 02dc 0020A0E3 		mov	r2, #0
 256 02e0 002083E5 		str	r2, [r3, #0]
 257 02e4 88309FE5 		ldr	r3, .L49+32
 258 02e8 008083E5 		str	r8, [r3, #0]
 259 02ec 7C309FE5 		ldr	r3, .L49+28
 260 02f0 009083E5 		str	r9, [r3, #0]
 261 02f4 70309FE5 		ldr	r3, .L49+24
 262 02f8 006083E5 		str	r6, [r3, #0]
 263 02fc 74309FE5 		ldr	r3, .L49+36
 264 0300 00A083E5 		str	sl, [r3, #0]
 265              	.L10:
 266 0304 98009FE5 		ldr	r0, .L49+80
 267 0308 FEFFFFEB 		bl	AT91F_AIC_AcknowledgeIt
 268 030c 00005BE3 		cmp	fp, #0
 269 0310 FEFFFF1B 		blne	vTaskSwitchContext
 270              	.L39:
 271 0314 90009FE5 		LDR		R0, =pxCurrentTCB								
 272 0318 000090E5 		LDR		R0, [R0]										
 273 031c 00E090E5 		LDR		LR, [R0]										
 274 0320 80009FE5 		LDR		R0, =ulCriticalNesting							
 275 0324 0200BEE8 		LDMFD	LR!, {R1}											
 276 0328 001080E5 		STR		R1, [R0]										
 277 032c 0100BEE8 		LDMFD	LR!, {R0}											
 278 0330 00F069E1 		MSR		SPSR, R0										
 279 0334 FF7FDEE8 		LDMFD	LR, {R0-R14}^										
 280 0338 0000A0E1 		NOP														
 281 033c 3CE09EE5 		LDR		LR, [LR, #+60]									
 282 0340 04F05EE2 		SUBS	PC, LR, #4											
 283              		
 284 0344 08309FE5 		ldr	r3, .L49
 285 0348 003093E5 		ldr	r3, [r3, #0]
 286 034c 04309FE5 		ldr	r3, .L49+4
 287 0350 003093E5 		ldr	r3, [r3, #0]
 288              	.L50:
 289              		.align	2
 290              	.L49:
 291 0354 00000000 		.word	ulCriticalNesting
 292 0358 00000000 		.word	pxCurrentTCB
 293 035c 0000FAFF 		.word	-393216
 294 0360 00000000 		.word	g_currentToothPeriodOverflowCount
 295 0364 00F4FFFF 		.word	-3072
 296 0368 00000000 		.word	g_engineIsRunning
 297 036c 00000000 		.word	g_lastInterToothPeriodRaw
 298 0370 00000000 		.word	g_currentTooth
 299 0374 00000000 		.word	g_wheelSynchronized
 300 0378 00000000 		.word	g_currentCrankRevolutionPeriodRaw
 301 037c 00000000 		.word	g_toothCountAtLastSyncAttempt
 302 0380 00000000 		.word	g_wheelSyncAttempts
 303 0384 00000000 		.word	g_active_logical_coil_drivers
 304 0388 00000000 		.word	g_logical_coil_drivers
 305 038c 00000000 		.word	g_lastCrankRevolutionPeriodRaw
 306 0390 00000000 		.word	xOnRevolutionHandle
 307 0394 00000000 		.word	g_coilDriversToFire
 308 0398 8000FAFF 		.word	-393088
 309 039c 00000000 		.word	g_coilDriversToCharge
 310 03a0 00000000 		.word	g_logicalCoilDriverCount
 311 03a4 00F0FFFF 		.word	-4096
 313 03a8 00000000 		.ident	"GCC: (GNU) 4.0.2"
 313      00000000 
DEFINED SYMBOLS
                            *ABS*:00000000 triggerWheelIsr.c
/cygdrive/c/Users/brent/AppData/Local/Temp/cccxlIMv.s:6      .text.coilPack_irq_handler:00000000 coilPack_irq_handler
/cygdrive/c/Users/brent/AppData/Local/Temp/cccxlIMv.s:11     .text.coilPack_irq_handler:00000000 $a
/cygdrive/c/Users/brent/AppData/Local/Temp/cccxlIMv.s:36     .text.coilPack_irq_handler:00000054 $d
/cygdrive/c/Users/brent/AppData/Local/Temp/cccxlIMv.s:48     .text.triggerWheel_irq_handler:00000000 triggerWheel_irq_handler
/cygdrive/c/Users/brent/AppData/Local/Temp/cccxlIMv.s:53     .text.triggerWheel_irq_handler:00000000 $a
/cygdrive/c/Users/brent/AppData/Local/Temp/cccxlIMv.s:291    .text.triggerWheel_irq_handler:00000354 $d

UNDEFINED SYMBOLS
g_coilDriversToFire
g_coilDriversToCharge
__udivsi3
ulCriticalNesting
pxCurrentTCB
xQueueSendFromISR
AT91F_AIC_AcknowledgeIt
vTaskSwitchContext
g_currentToothPeriodOverflowCount
g_engineIsRunning
g_lastInterToothPeriodRaw
g_currentTooth
g_wheelSynchronized
g_currentCrankRevolutionPeriodRaw
g_toothCountAtLastSyncAttempt
g_wheelSyncAttempts
g_active_logical_coil_drivers
g_logical_coil_drivers
g_lastCrankRevolutionPeriodRaw
xOnRevolutionHandle
g_logicalCoilDriverCount
