   1              		.code	16
   2              		.file	"USB-CDC.c"
   3              		.global	pxConfigDescriptor
   4              		.section	.rodata.pxConfigDescriptor,"a",%progbits
   7              	pxConfigDescriptor:
   8 0000 09       		.byte	9
   9 0001 02       		.byte	2
  10 0002 43       		.byte	67
  11 0003 00       		.byte	0
  12 0004 02       		.byte	2
  13 0005 01       		.byte	1
  14 0006 03       		.byte	3
  15 0007 80       		.byte	-128
  16 0008 32       		.byte	50
  17 0009 09       		.byte	9
  18 000a 04       		.byte	4
  19 000b 00       		.byte	0
  20 000c 00       		.byte	0
  21 000d 01       		.byte	1
  22 000e 02       		.byte	2
  23 000f 02       		.byte	2
  24 0010 00       		.byte	0
  25 0011 04       		.byte	4
  26 0012 05       		.byte	5
  27 0013 24       		.byte	36
  28 0014 00       		.byte	0
  29 0015 10       		.byte	16
  30 0016 01       		.byte	1
  31 0017 04       		.byte	4
  32 0018 24       		.byte	36
  33 0019 02       		.byte	2
  34 001a 00       		.byte	0
  35 001b 05       		.byte	5
  36 001c 24       		.byte	36
  37 001d 06       		.byte	6
  38 001e 00       		.byte	0
  39 001f 01       		.byte	1
  40 0020 05       		.byte	5
  41 0021 24       		.byte	36
  42 0022 01       		.byte	1
  43 0023 00       		.byte	0
  44 0024 01       		.byte	1
  45 0025 07       		.byte	7
  46 0026 05       		.byte	5
  47 0027 83       		.byte	-125
  48 0028 03       		.byte	3
  49 0029 08       		.byte	8
  50 002a 00       		.byte	0
  51 002b FF       		.byte	-1
  52 002c 09       		.byte	9
  53 002d 04       		.byte	4
  54 002e 01       		.byte	1
  55 002f 00       		.byte	0
  56 0030 02       		.byte	2
  57 0031 0A       		.byte	10
  58 0032 00       		.byte	0
  59 0033 00       		.byte	0
  60 0034 00       		.byte	0
  61 0035 07       		.byte	7
  62 0036 05       		.byte	5
  63 0037 01       		.byte	1
  64 0038 02       		.byte	2
  65 0039 40       		.byte	64
  66 003a 00       		.byte	0
  67 003b 00       		.byte	0
  68 003c 07       		.byte	7
  69 003d 05       		.byte	5
  70 003e 82       		.byte	-126
  71 003f 02       		.byte	2
  72 0040 40       		.byte	64
  73 0041 00       		.byte	0
  74 0042 00       		.byte	0
  75              		.global	pxDeviceDescriptor
  76              		.section	.rodata.pxDeviceDescriptor,"a",%progbits
  79              	pxDeviceDescriptor:
  80 0000 12       		.byte	18
  81 0001 01       		.byte	1
  82 0002 10       		.byte	16
  83 0003 01       		.byte	1
  84 0004 02       		.byte	2
  85 0005 00       		.byte	0
  86 0006 00       		.byte	0
  87 0007 08       		.byte	8
  88 0008 03       		.byte	3
  89 0009 EB       		.byte	-21
  90 000a 20       		.byte	32
  91 000b 09       		.byte	9
  92 000c 10       		.byte	16
  93 000d 01       		.byte	1
  94 000e 01       		.byte	1
  95 000f 02       		.byte	2
  96 0010 00       		.byte	0
  97 0011 01       		.byte	1
  98              		.global	pxInterfaceStringDescriptor
  99              		.section	.rodata.pxInterfaceStringDescriptor,"a",%progbits
 102              	pxInterfaceStringDescriptor:
 103 0000 1E       		.byte	30
 104 0001 03       		.byte	3
 105 0002 49       		.byte	73
 106 0003 00       		.byte	0
 107 0004 6E       		.byte	110
 108 0005 00       		.byte	0
 109 0006 74       		.byte	116
 110 0007 00       		.byte	0
 111 0008 65       		.byte	101
 112 0009 00       		.byte	0
 113 000a 72       		.byte	114
 114 000b 00       		.byte	0
 115 000c 66       		.byte	102
 116 000d 00       		.byte	0
 117 000e 61       		.byte	97
 118 000f 00       		.byte	0
 119 0010 63       		.byte	99
 120 0011 00       		.byte	0
 121 0012 65       		.byte	101
 122 0013 00       		.byte	0
 123 0014 20       		.byte	32
 124 0015 00       		.byte	0
 125 0016 4E       		.byte	78
 126 0017 00       		.byte	0
 127 0018 61       		.byte	97
 128 0019 00       		.byte	0
 129 001a 6D       		.byte	109
 130 001b 00       		.byte	0
 131 001c 65       		.byte	101
 132 001d 00       		.byte	0
 133              		.global	pxConfigurationStringDescriptor
 134              		.section	.rodata.pxConfigurationStringDescriptor,"a",%progbits
 137              	pxConfigurationStringDescriptor:
 138 0000 26       		.byte	38
 139 0001 03       		.byte	3
 140 0002 43       		.byte	67
 141 0003 00       		.byte	0
 142 0004 6F       		.byte	111
 143 0005 00       		.byte	0
 144 0006 6E       		.byte	110
 145 0007 00       		.byte	0
 146 0008 66       		.byte	102
 147 0009 00       		.byte	0
 148 000a 69       		.byte	105
 149 000b 00       		.byte	0
 150 000c 67       		.byte	103
 151 000d 00       		.byte	0
 152 000e 75       		.byte	117
 153 000f 00       		.byte	0
 154 0010 72       		.byte	114
 155 0011 00       		.byte	0
 156 0012 61       		.byte	97
 157 0013 00       		.byte	0
 158 0014 74       		.byte	116
 159 0015 00       		.byte	0
 160 0016 69       		.byte	105
 161 0017 00       		.byte	0
 162 0018 6F       		.byte	111
 163 0019 00       		.byte	0
 164 001a 6E       		.byte	110
 165 001b 00       		.byte	0
 166 001c 20       		.byte	32
 167 001d 00       		.byte	0
 168 001e 4E       		.byte	78
 169 001f 00       		.byte	0
 170 0020 61       		.byte	97
 171 0021 00       		.byte	0
 172 0022 6D       		.byte	109
 173 0023 00       		.byte	0
 174 0024 65       		.byte	101
 175 0025 00       		.byte	0
 176              		.global	pxProductStringDescriptor
 177              		.section	.rodata.pxProductStringDescriptor,"a",%progbits
 180              	pxProductStringDescriptor:
 181 0000 24       		.byte	36
 182 0001 03       		.byte	3
 183 0002 46       		.byte	70
 184 0003 00       		.byte	0
 185 0004 72       		.byte	114
 186 0005 00       		.byte	0
 187 0006 65       		.byte	101
 188 0007 00       		.byte	0
 189 0008 65       		.byte	101
 190 0009 00       		.byte	0
 191 000a 52       		.byte	82
 192 000b 00       		.byte	0
 193 000c 54       		.byte	84
 194 000d 00       		.byte	0
 195 000e 4F       		.byte	79
 196 000f 00       		.byte	0
 197 0010 53       		.byte	83
 198 0011 00       		.byte	0
 199 0012 20       		.byte	32
 200 0013 00       		.byte	0
 201 0014 43       		.byte	67
 202 0015 00       		.byte	0
 203 0016 44       		.byte	68
 204 0017 00       		.byte	0
 205 0018 43       		.byte	67
 206 0019 00       		.byte	0
 207 001a 20       		.byte	32
 208 001b 00       		.byte	0
 209 001c 44       		.byte	68
 210 001d 00       		.byte	0
 211 001e 45       		.byte	69
 212 001f 00       		.byte	0
 213 0020 4D       		.byte	77
 214 0021 00       		.byte	0
 215 0022 4F       		.byte	79
 216 0023 00       		.byte	0
 217              		.global	pxManufacturerStringDescriptor
 218              		.section	.rodata.pxManufacturerStringDescriptor,"a",%progbits
 221              	pxManufacturerStringDescriptor:
 222 0000 12       		.byte	18
 223 0001 03       		.byte	3
 224 0002 46       		.byte	70
 225 0003 00       		.byte	0
 226 0004 72       		.byte	114
 227 0005 00       		.byte	0
 228 0006 65       		.byte	101
 229 0007 00       		.byte	0
 230 0008 65       		.byte	101
 231 0009 00       		.byte	0
 232 000a 52       		.byte	82
 233 000b 00       		.byte	0
 234 000c 54       		.byte	84
 235 000d 00       		.byte	0
 236 000e 4F       		.byte	79
 237 000f 00       		.byte	0
 238 0010 53       		.byte	83
 239 0011 00       		.byte	0
 240              		.global	pxLanguageStringDescriptor
 241              		.section	.rodata.pxLanguageStringDescriptor,"a",%progbits
 244              	pxLanguageStringDescriptor:
 245 0000 04       		.byte	4
 246 0001 03       		.byte	3
 247 0002 09       		.byte	9
 248 0003 04       		.byte	4
 249              		.section	.bss.usbIntefacedInitialized,"aw",%nobits
 250              		.align	2
 253              	usbIntefacedInitialized:
 254 0000 00000000 		.space	4
 255              		.section	.bss.eDriverState,"aw",%nobits
 256              		.align	2
 259              	eDriverState:
 260 0000 00000000 		.space	4
 261              		.section	.bss.ucUSBConfig,"aw",%nobits
 264              	ucUSBConfig:
 265 0000 00       		.space	1
 266              		.section	.bss.ulReceivedAddress,"aw",%nobits
 267              		.align	2
 270              	ulReceivedAddress:
 271 0000 00000000 		.space	4
 272              		.section	.rodata.pxLineCoding,"a",%progbits
 275              	pxLineCoding:
 276 0000 00       		.byte	0
 277 0001 C2       		.byte	-62
 278 0002 01       		.byte	1
 279 0003 00       		.byte	0
 280 0004 00       		.byte	0
 281 0005 00       		.byte	0
 282 0006 08       		.byte	8
 283              		.section	.text.vUSBIsInitialized,"ax",%progbits
 284              		.align	2
 285              		.global	vUSBIsInitialized
 286              		.code 16
 287              		.thumb_func
 289              	vUSBIsInitialized:
 290 0000 014B     		ldr	r3, .L3
 291 0002 1868     		ldr	r0, [r3]
 292              		@ lr needed for prologue
 293              		@ sp needed for prologue
 294 0004 7047     		bx	lr
 295              	.L4:
 296 0006 0000     		.align	2
 297              	.L3:
 298 0008 00000000 		.word	usbIntefacedInitialized
 300              		.section	.text.vUSBSendByte,"ax",%progbits
 301              		.align	2
 302              		.global	vUSBSendByte
 303              		.code 16
 304              		.thumb_func
 306              	vUSBSendByte:
 307 0000 00B5     		push	{lr}
 308 0002 81B0     		sub	sp, sp, #4
 309 0004 054B     		ldr	r3, .L7
 310 0006 6946     		mov	r1, sp
 311 0008 0122     		mov	r2, #1
 312 000a 0870     		strb	r0, [r1]
 313 000c 5242     		neg	r2, r2
 314 000e 1868     		ldr	r0, [r3]
 315 0010 FFF7FEFF 		bl	xQueueSend
 316 0014 01B0     		add	sp, sp, #4
 317              		@ sp needed for prologue
 318 0016 01BC     		pop	{r0}
 319 0018 0047     		bx	r0
 320              	.L8:
 321 001a 0000     		.align	2
 322              	.L7:
 323 001c 00000000 		.word	xTxCDC
 325              		.section	.text.vUSBBytesAvailable,"ax",%progbits
 326              		.align	2
 327              		.global	vUSBBytesAvailable
 328              		.code 16
 329              		.thumb_func
 331              	vUSBBytesAvailable:
 332 0000 00B5     		push	{lr}
 333 0002 034B     		ldr	r3, .L11
 334 0004 1868     		ldr	r0, [r3]
 335 0006 FFF7FEFF 		bl	uxQueueMessagesWaiting
 336              		@ sp needed for prologue
 337 000a 02BC     		pop	{r1}
 338 000c 0847     		bx	r1
 339              	.L12:
 340 000e 0000     		.align	2
 341              	.L11:
 342 0010 00000000 		.word	xTxCDC
 344              		.section	.text.vUSBReceiveByte,"ax",%progbits
 345              		.align	2
 346              		.global	vUSBReceiveByte
 347              		.code 16
 348              		.thumb_func
 350              	vUSBReceiveByte:
 351 0000 00B5     		push	{lr}
 352 0002 044B     		ldr	r3, .L15
 353 0004 0122     		mov	r2, #1
 354 0006 011C     		mov	r1, r0
 355 0008 5242     		neg	r2, r2
 356 000a 1868     		ldr	r0, [r3]
 357 000c FFF7FEFF 		bl	xQueueReceive
 358              		@ sp needed for prologue
 359 0010 02BC     		pop	{r1}
 360 0012 0847     		bx	r1
 361              	.L16:
 362              		.align	2
 363              	.L15:
 364 0014 00000000 		.word	xRxCDC
 366              		.section	.text.prvSendZLP,"ax",%progbits
 367              		.align	2
 368              		.code 16
 369              		.thumb_func
 371              	prvSendZLP:
 372 0000 30B5     		push	{r4, r5, lr}
 373 0002 02E0     		b	.L18
 374              	.L19:
 375 0004 0120     		mov	r0, #1
 376 0006 FFF7FEFF 		bl	vTaskDelay
 377              	.L18:
 378 000a 0C4C     		ldr	r4, .L22
 379 000c 236B     		ldr	r3, [r4, #48]
 380 000e 1025     		mov	r5, #16
 381 0010 2B42     		tst	r3, r5
 382 0012 F7D1     		bne	.L19
 383 0014 FFF7FEFF 		bl	vPortEnterCritical
 384 0018 094B     		ldr	r3, .L22+4
 385 001a 1A1C     		mov	r2, r3
 386 001c 0433     		add	r3, r3, #4
 387 001e DB6F     		ldr	r3, [r3, #124]
 388 0020 0832     		add	r2, r2, #8
 389 0022 D367     		str	r3, [r2, #124]
 390 0024 236B     		ldr	r3, [r4, #48]
 391 0026 4F22     		mov	r2, #79
 392 0028 1343     		orr	r3, r3, r2
 393 002a 3022     		mov	r2, #48
 394 002c 9343     		bic	r3, r3, r2
 395 002e 2B43     		orr	r3, r3, r5
 396 0030 2363     		str	r3, [r4, #48]
 397 0032 FFF7FEFF 		bl	vPortExitCritical
 398              		@ sp needed for prologue
 399 0036 30BC     		pop	{r4, r5}
 400 0038 01BC     		pop	{r0}
 401 003a 0047     		bx	r0
 402              	.L23:
 403              		.align	2
 404              	.L22:
 405 003c 0000FBFF 		.word	-327680
 406 0040 00000000 		.word	pxControlTx
 408              		.section	.text.prvSendStall,"ax",%progbits
 409              		.align	2
 410              		.code 16
 411              		.thumb_func
 413              	prvSendStall:
 414 0000 00B5     		push	{lr}
 415 0002 FFF7FEFF 		bl	vPortEnterCritical
 416 0006 0649     		ldr	r1, .L26
 417 0008 0B6B     		ldr	r3, [r1, #48]
 418 000a 4F22     		mov	r2, #79
 419 000c 1343     		orr	r3, r3, r2
 420 000e 3022     		mov	r2, #48
 421 0010 9343     		bic	r3, r3, r2
 422 0012 2022     		mov	r2, #32
 423 0014 1343     		orr	r3, r3, r2
 424 0016 0B63     		str	r3, [r1, #48]
 425 0018 FFF7FEFF 		bl	vPortExitCritical
 426              		@ sp needed for prologue
 427 001c 01BC     		pop	{r0}
 428 001e 0047     		bx	r0
 429              	.L27:
 430              		.align	2
 431              	.L26:
 432 0020 0000FBFF 		.word	-327680
 434              		.section	.text.prvSendNextSegment,"ax",%progbits
 435              		.align	2
 436              		.code 16
 437              		.thumb_func
 439              	prvSendNextSegment:
 440 0000 10B5     		push	{r4, lr}
 441 0002 254B     		ldr	r3, .L43
 442 0004 1A1C     		mov	r2, r3
 443 0006 0832     		add	r2, r2, #8
 444 0008 0433     		add	r3, r3, #4
 445 000a D26F     		ldr	r2, [r2, #124]
 446 000c DB6F     		ldr	r3, [r3, #124]
 447 000e 83B0     		sub	sp, sp, #12
 448 0010 9A42     		cmp	r2, r3
 449 0012 35D9     		bls	.L29
 450 0014 D31A     		sub	r3, r2, r3
 451 0016 0093     		str	r3, [sp]
 452 0018 009B     		ldr	r3, [sp]
 453 001a 082B     		cmp	r3, #8
 454 001c 01D9     		bls	.L31
 455 001e 0823     		mov	r3, #8
 456 0020 00E0     		b	.L42
 457              	.L31:
 458 0022 009B     		ldr	r3, [sp]
 459              	.L42:
 460 0024 0293     		str	r3, [sp, #8]
 461 0026 02E0     		b	.L41
 462              	.L34:
 463 0028 0120     		mov	r0, #1
 464 002a FFF7FEFF 		bl	vTaskDelay
 465              	.L41:
 466 002e 1B4B     		ldr	r3, .L43+4
 467 0030 1B6B     		ldr	r3, [r3, #48]
 468 0032 DA06     		lsl	r2, r3, #27
 469 0034 F8D4     		bmi	.L34
 470 0036 184C     		ldr	r4, .L43
 471 0038 09E0     		b	.L35
 472              	.L36:
 473 003a 201D     		add	r0, r4, #4
 474 003c C26F     		ldr	r2, [r0, #124]
 475 003e 174B     		ldr	r3, .L43+4
 476 0040 A15C     		ldrb	r1, [r4, r2]
 477 0042 1965     		str	r1, [r3, #80]
 478 0044 029B     		ldr	r3, [sp, #8]
 479 0046 0132     		add	r2, r2, #1
 480 0048 013B     		sub	r3, r3, #1
 481 004a 0293     		str	r3, [sp, #8]
 482 004c C267     		str	r2, [r0, #124]
 483              	.L35:
 484 004e 029B     		ldr	r3, [sp, #8]
 485 0050 002B     		cmp	r3, #0
 486 0052 F2D1     		bne	.L36
 487 0054 FFF7FEFF 		bl	vPortEnterCritical
 488 0058 1049     		ldr	r1, .L43+4
 489 005a 0B6B     		ldr	r3, [r1, #48]
 490 005c 0193     		str	r3, [sp, #4]
 491 005e 019B     		ldr	r3, [sp, #4]
 492 0060 4F22     		mov	r2, #79
 493 0062 1343     		orr	r3, r3, r2
 494 0064 0193     		str	r3, [sp, #4]
 495 0066 019B     		ldr	r3, [sp, #4]
 496 0068 3022     		mov	r2, #48
 497 006a 9343     		bic	r3, r3, r2
 498 006c 0193     		str	r3, [sp, #4]
 499 006e 019B     		ldr	r3, [sp, #4]
 500 0070 1022     		mov	r2, #16
 501 0072 1343     		orr	r3, r3, r2
 502 0074 0193     		str	r3, [sp, #4]
 503 0076 019B     		ldr	r3, [sp, #4]
 504 0078 0B63     		str	r3, [r1, #48]
 505 007a FFF7FEFF 		bl	vPortExitCritical
 506 007e 07E0     		b	.L40
 507              	.L29:
 508 0080 074C     		ldr	r4, .L43+8
 509 0082 2368     		ldr	r3, [r4]
 510 0084 042B     		cmp	r3, #4
 511 0086 03D1     		bne	.L40
 512 0088 FFF7FEFF 		bl	prvSendZLP
 513 008c 0023     		mov	r3, #0
 514 008e 2360     		str	r3, [r4]
 515              	.L40:
 516 0090 03B0     		add	sp, sp, #12
 517              		@ sp needed for prologue
 518 0092 10BC     		pop	{r4}
 519 0094 01BC     		pop	{r0}
 520 0096 0047     		bx	r0
 521              	.L44:
 522              		.align	2
 523              	.L43:
 524 0098 00000000 		.word	pxControlTx
 525 009c 0000FBFF 		.word	-327680
 526 00a0 00000000 		.word	eDriverState
 528              		.section	.text.prvSendControlData,"ax",%progbits
 529              		.align	2
 530              		.code 16
 531              		.thumb_func
 533              	prvSendControlData:
 534 0000 70B5     		push	{r4, r5, r6, lr}
 535 0002 0904     		lsl	r1, r1, #16
 536 0004 151C     		mov	r5, r2
 537 0006 090C     		lsr	r1, r1, #16
 538 0008 061C     		mov	r6, r0
 539 000a A942     		cmp	r1, r5
 540 000c 01D2     		bcs	.L46
 541 000e 0D1C     		mov	r5, r1
 542 0010 09E0     		b	.L48
 543              	.L46:
 544 0012 8A42     		cmp	r2, r1
 545 0014 07D2     		bcs	.L48
 546 0016 002B     		cmp	r3, #0
 547 0018 05D0     		beq	.L48
 548 001a 0723     		mov	r3, #7
 549 001c 1A42     		tst	r2, r3
 550 001e 02D1     		bne	.L48
 551 0020 094A     		ldr	r2, .L53
 552 0022 0423     		mov	r3, #4
 553 0024 1360     		str	r3, [r2]
 554              	.L48:
 555 0026 094C     		ldr	r4, .L53+4
 556 0028 311C     		mov	r1, r6
 557 002a 2A1C     		mov	r2, r5
 558 002c 201C     		mov	r0, r4
 559 002e FFF7FEFF 		bl	memcpy
 560 0032 231C     		mov	r3, r4
 561 0034 0833     		add	r3, r3, #8
 562 0036 DD67     		str	r5, [r3, #124]
 563 0038 0434     		add	r4, r4, #4
 564 003a 0023     		mov	r3, #0
 565 003c E367     		str	r3, [r4, #124]
 566 003e FFF7FEFF 		bl	prvSendNextSegment
 567              		@ sp needed for prologue
 568 0042 70BC     		pop	{r4, r5, r6}
 569 0044 01BC     		pop	{r0}
 570 0046 0047     		bx	r0
 571              	.L54:
 572              		.align	2
 573              	.L53:
 574 0048 00000000 		.word	eDriverState
 575 004c 00000000 		.word	pxControlTx
 577              		.section	.bss.xRequest.3556,"aw",%nobits
 578              		.align	2
 581              	xRequest.3556:
 582 0000 00000000 		.space	8
 582      00000000 
 583              		.section	.text.vUSBCDCTask,"ax",%progbits
 584              		.align	2
 585              		.global	vUSBCDCTask
 586              		.code 16
 587              		.thumb_func
 589              	vUSBCDCTask:
 590 0000 F0B5     		push	{r4, r5, r6, r7, lr}
 591 0002 85B0     		sub	sp, sp, #20
 592 0004 FFF7FEFF 		bl	vPortEnterCritical
 593 0008 FFF7FEFF 		bl	vPortExitCritical
 594 000c F020     		mov	r0, #240
 595 000e FFF7FEFF 		bl	vTaskDelay
 596 0012 FFF7FEFF 		bl	vPortEnterCritical
 597 0016 0421     		mov	r1, #4
 598 0018 0420     		mov	r0, #4
 599 001a FFF7FEFF 		bl	xQueueCreate
 600 001e CC4C     		ldr	r4, .L161
 601 0020 0121     		mov	r1, #1
 602 0022 2060     		str	r0, [r4]
 603 0024 C820     		mov	r0, #200
 604 0026 FFF7FEFF 		bl	xQueueCreate
 605 002a CA4D     		ldr	r5, .L161+4
 606 002c 0121     		mov	r1, #1
 607 002e 2860     		str	r0, [r5]
 608 0030 C920     		mov	r0, #201
 609 0032 FFF7FEFF 		bl	xQueueCreate
 610 0036 C84B     		ldr	r3, .L161+8
 611 0038 1860     		str	r0, [r3]
 612 003a 2368     		ldr	r3, [r4]
 613 003c 002B     		cmp	r3, #0
 614 003e 04D0     		beq	.L147
 615 0040 2B68     		ldr	r3, [r5]
 616 0042 002B     		cmp	r3, #0
 617 0044 01D0     		beq	.L147
 618 0046 0028     		cmp	r0, #0
 619 0048 07D1     		bne	.L59
 620              	.L147:
 621 004a 8020     		mov	r0, #128
 622 004c C002     		lsl	r0, r0, #11
 623 004e FFF7FEFF 		bl	Toggle_LED
 624 0052 6420     		mov	r0, #100
 625 0054 FFF7FEFF 		bl	vTaskDelay
 626 0058 F7E7     		b	.L147
 627              	.L59:
 628 005a C04B     		ldr	r3, .L161+12
 629 005c 0021     		mov	r1, #0
 630 005e 0433     		add	r3, r3, #4
 631 0060 D967     		str	r1, [r3, #124]
 632 0062 BF4B     		ldr	r3, .L161+16
 633 0064 0433     		add	r3, r3, #4
 634 0066 D967     		str	r1, [r3, #124]
 635 0068 BE4B     		ldr	r3, .L161+20
 636 006a 1970     		strb	r1, [r3]
 637 006c BE4B     		ldr	r3, .L161+24
 638 006e 1960     		str	r1, [r3]
 639 0070 BE4B     		ldr	r3, .L161+28
 640 0072 BF4A     		ldr	r2, .L161+32
 641 0074 1970     		strb	r1, [r3]
 642 0076 0223     		mov	r3, #2
 643 0078 1360     		str	r3, [r2]
 644 007a BE48     		ldr	r0, .L161+36
 645 007c 8023     		mov	r3, #128
 646 007e C268     		ldr	r2, [r0, #12]
 647 0080 5B05     		lsl	r3, r3, #21
 648 0082 1A43     		orr	r2, r2, r3
 649 0084 C260     		str	r2, [r0, #12]
 650 0086 8024     		mov	r4, #128
 651 0088 BB4A     		ldr	r2, .L161+40
 652 008a 8023     		mov	r3, #128
 653 008c 2401     		lsl	r4, r4, #4
 654 008e 1360     		str	r3, [r2]
 655 0090 1461     		str	r4, [r2, #16]
 656 0092 0123     		mov	r3, #1
 657 0094 B94A     		ldr	r2, .L161+44
 658 0096 5B42     		neg	r3, r3
 659 0098 5361     		str	r3, [r2, #20]
 660 009a 1362     		str	r3, [r2, #32]
 661 009c B84B     		ldr	r3, .L161+48
 662 009e 1960     		str	r1, [r3]
 663 00a0 B84B     		ldr	r3, .L161+52
 664 00a2 1163     		str	r1, [r2, #48]
 665 00a4 5163     		str	r1, [r2, #52]
 666 00a6 9163     		str	r1, [r2, #56]
 667 00a8 D163     		str	r1, [r2, #60]
 668 00aa 5160     		str	r1, [r2, #4]
 669 00ac 9160     		str	r1, [r2, #8]
 670 00ae 0293     		str	r3, [sp, #8]
 671 00b0 B54B     		ldr	r3, .L161+56
 672 00b2 0322     		mov	r2, #3
 673 00b4 0093     		str	r3, [sp]
 674 00b6 0B21     		mov	r1, #11
 675 00b8 0023     		mov	r3, #0
 676 00ba 0298     		ldr	r0, [sp, #8]
 677 00bc FFF7FEFF 		bl	AT91F_AIC_ConfigureIt
 678 00c0 B24B     		ldr	r3, .L161+60
 679 00c2 FA20     		mov	r0, #250
 680 00c4 5C62     		str	r4, [r3, #36]
 681 00c6 FFF7FEFF 		bl	vTaskDelay
 682 00ca B14A     		ldr	r2, .L161+64
 683 00cc 0123     		mov	r3, #1
 684 00ce 1360     		str	r3, [r2]
 685 00d0 FFF7FEFF 		bl	vPortExitCritical
 686              	.L159:
 687 00d4 9E4B     		ldr	r3, .L161
 688 00d6 03A9     		add	r1, sp, #12
 689 00d8 1868     		ldr	r0, [r3]
 690 00da 0122     		mov	r2, #1
 691 00dc FFF7FEFF 		bl	xQueueReceive
 692 00e0 0028     		cmp	r0, #0
 693 00e2 00D1     		bne	.LCB440
 694 00e4 93E1     		b	.L61	@long jump
 695              	.LCB440:
 696 00e6 039E     		ldr	r6, [sp, #12]
 697 00e8 3368     		ldr	r3, [r6]
 698 00ea 0121     		mov	r1, #1
 699 00ec 0B42     		tst	r3, r1
 700 00ee 00D1     		bne	.LCB446
 701 00f0 6AE1     		b	.L63	@long jump
 702              	.LCB446:
 703 00f2 7268     		ldr	r2, [r6, #4]
 704 00f4 5301     		lsl	r3, r2, #5
 705 00f6 5F0D     		lsr	r7, r3, #21
 706 00f8 0A42     		tst	r2, r1
 707 00fa 3DD0     		beq	.L65
 708 00fc 9A4A     		ldr	r2, .L161+24
 709 00fe 1568     		ldr	r5, [r2]
 710 0100 0192     		str	r2, [sp, #4]
 711 0102 022D     		cmp	r5, #2
 712 0104 22D1     		bne	.L67
 713 0106 9D4C     		ldr	r4, .L161+44
 714 0108 6560     		str	r5, [r4, #4]
 715 010a FFF7FEFF 		bl	vPortEnterCritical
 716 010e 626B     		ldr	r2, [r4, #52]
 717 0110 4F20     		mov	r0, #79
 718 0112 3021     		mov	r1, #48
 719 0114 0243     		orr	r2, r2, r0
 720 0116 8223     		mov	r3, #130
 721 0118 8A43     		bic	r2, r2, r1
 722 011a 1B02     		lsl	r3, r3, #8
 723 011c 1A43     		orr	r2, r2, r3
 724 011e 6263     		str	r2, [r4, #52]
 725 0120 2561     		str	r5, [r4, #16]
 726 0122 A36B     		ldr	r3, [r4, #56]
 727 0124 8622     		mov	r2, #134
 728 0126 0343     		orr	r3, r3, r0
 729 0128 8B43     		bic	r3, r3, r1
 730 012a 1202     		lsl	r2, r2, #8
 731 012c 1343     		orr	r3, r3, r2
 732 012e A363     		str	r3, [r4, #56]
 733 0130 0423     		mov	r3, #4
 734 0132 2361     		str	r3, [r4, #16]
 735 0134 E36B     		ldr	r3, [r4, #60]
 736 0136 8722     		mov	r2, #135
 737 0138 0343     		orr	r3, r3, r0
 738 013a 1202     		lsl	r2, r2, #8
 739 013c 8B43     		bic	r3, r3, r1
 740 013e 1343     		orr	r3, r3, r2
 741 0140 E363     		str	r3, [r4, #60]
 742 0142 FFF7FEFF 		bl	vPortExitCritical
 743 0146 019A     		ldr	r2, [sp, #4]
 744 0148 0523     		mov	r3, #5
 745 014a 11E0     		b	.L154
 746              	.L67:
 747 014c 032D     		cmp	r5, #3
 748 014e 11D1     		bne	.L69
 749 0150 904B     		ldr	r3, .L161+68
 750 0152 1A68     		ldr	r2, [r3]
 751 0154 002A     		cmp	r2, #0
 752 0156 02D0     		beq	.L71
 753 0158 884B     		ldr	r3, .L161+44
 754 015a 5960     		str	r1, [r3, #4]
 755 015c 01E0     		b	.L73
 756              	.L71:
 757 015e 874B     		ldr	r3, .L161+44
 758 0160 5A60     		str	r2, [r3, #4]
 759              	.L73:
 760 0162 8023     		mov	r3, #128
 761 0164 5B00     		lsl	r3, r3, #1
 762 0166 1A43     		orr	r2, r2, r3
 763 0168 844B     		ldr	r3, .L161+44
 764 016a 9A60     		str	r2, [r3, #8]
 765 016c 7E4A     		ldr	r2, .L161+24
 766 016e 0023     		mov	r3, #0
 767              	.L154:
 768 0170 1360     		str	r3, [r2]
 769 0172 01E0     		b	.L65
 770              	.L69:
 771 0174 FFF7FEFF 		bl	prvSendNextSegment
 772              	.L65:
 773 0178 7368     		ldr	r3, [r6, #4]
 774 017a 9A07     		lsl	r2, r3, #30
 775 017c 1CD5     		bpl	.L74
 776 017e 774B     		ldr	r3, .L161+12
 777 0180 1A1D     		add	r2, r3, #4
 778 0182 0833     		add	r3, r3, #8
 779 0184 DB6F     		ldr	r3, [r3, #124]
 780 0186 7648     		ldr	r0, .L161+16
 781 0188 D367     		str	r3, [r2, #124]
 782 018a 031C     		mov	r3, r0
 783 018c 0833     		add	r3, r3, #8
 784 018e 051D     		add	r5, r0, #4
 785 0190 DB6F     		ldr	r3, [r3, #124]
 786 0192 EA6F     		ldr	r2, [r5, #124]
 787 0194 9B1A     		sub	r3, r3, r2
 788 0196 1B06     		lsl	r3, r3, #24
 789 0198 1C0E     		lsr	r4, r3, #24
 790 019a BC42     		cmp	r4, r7
 791 019c 01D9     		bls	.L76
 792 019e 3B06     		lsl	r3, r7, #24
 793 01a0 1C0E     		lsr	r4, r3, #24
 794              	.L76:
 795 01a2 002C     		cmp	r4, #0
 796 01a4 00D1     		bne	.LCB554
 797 01a6 0FE1     		b	.L63	@long jump
 798              	.LCB554:
 799 01a8 311C     		mov	r1, r6
 800 01aa 0831     		add	r1, r1, #8
 801 01ac 221C     		mov	r2, r4
 802 01ae FFF7FEFF 		bl	memcpy
 803 01b2 EB6F     		ldr	r3, [r5, #124]
 804 01b4 1B19     		add	r3, r3, r4
 805 01b6 EB67     		str	r3, [r5, #124]
 806              	.L74:
 807 01b8 7368     		ldr	r3, [r6, #4]
 808 01ba 5A07     		lsl	r2, r3, #29
 809 01bc 2AD5     		bpl	.L79
 810 01be 072F     		cmp	r7, #7
 811 01c0 28D9     		bls	.L79
 812 01c2 307A     		ldrb	r0, [r6, #8]
 813 01c4 7449     		ldr	r1, .L161+72
 814 01c6 0870     		strb	r0, [r1]
 815 01c8 737A     		ldrb	r3, [r6, #9]
 816 01ca 4B70     		strb	r3, [r1, #1]
 817 01cc F37A     		ldrb	r3, [r6, #11]
 818 01ce 1B02     		lsl	r3, r3, #8
 819 01d0 4B80     		strh	r3, [r1, #2]
 820 01d2 B27A     		ldrb	r2, [r6, #10]
 821 01d4 1343     		orr	r3, r3, r2
 822 01d6 4B80     		strh	r3, [r1, #2]
 823 01d8 737B     		ldrb	r3, [r6, #13]
 824 01da 1B02     		lsl	r3, r3, #8
 825 01dc 8B80     		strh	r3, [r1, #4]
 826 01de 327B     		ldrb	r2, [r6, #12]
 827 01e0 1343     		orr	r3, r3, r2
 828 01e2 8B80     		strh	r3, [r1, #4]
 829 01e4 F37B     		ldrb	r3, [r6, #15]
 830 01e6 1B02     		lsl	r3, r3, #8
 831 01e8 CB80     		strh	r3, [r1, #6]
 832 01ea B27B     		ldrb	r2, [r6, #14]
 833 01ec 1C1C     		mov	r4, r3
 834 01ee 1443     		orr	r4, r4, r2
 835 01f0 5B4A     		ldr	r2, .L161+16
 836 01f2 CC80     		strh	r4, [r1, #6]
 837 01f4 131D     		add	r3, r2, #4
 838 01f6 0021     		mov	r1, #0
 839 01f8 0006     		lsl	r0, r0, #24
 840 01fa D967     		str	r1, [r3, #124]
 841 01fc 0028     		cmp	r0, #0
 842 01fe 06DB     		blt	.L82
 843 0200 802C     		cmp	r4, #128
 844 0202 00D9     		bls	.LCB621
 845 0204 DEE0     		b	.L149	@long jump
 846              	.LCB621:
 847 0206 131C     		mov	r3, r2
 848 0208 0833     		add	r3, r3, #8
 849 020a DC67     		str	r4, [r3, #124]
 850 020c 02E0     		b	.L79
 851              	.L82:
 852 020e 131C     		mov	r3, r2
 853 0210 0833     		add	r3, r3, #8
 854 0212 D967     		str	r1, [r3, #124]
 855              	.L79:
 856 0214 7268     		ldr	r2, [r6, #4]
 857 0216 0623     		mov	r3, #6
 858 0218 1A42     		tst	r2, r3
 859 021a 00D1     		bne	.LCB638
 860 021c D4E0     		b	.L63	@long jump
 861              	.LCB638:
 862 021e 504D     		ldr	r5, .L161+16
 863 0220 2A1C     		mov	r2, r5
 864 0222 2B1D     		add	r3, r5, #4
 865 0224 0832     		add	r2, r2, #8
 866 0226 D96F     		ldr	r1, [r3, #124]
 867 0228 D36F     		ldr	r3, [r2, #124]
 868 022a 9942     		cmp	r1, r3
 869 022c 00D2     		bcs	.LCB646
 870 022e CBE0     		b	.L63	@long jump
 871              	.LCB646:
 872 0230 594C     		ldr	r4, .L161+72
 873 0232 2178     		ldrb	r1, [r4]
 874 0234 6023     		mov	r3, #96
 875 0236 0B40     		and	r3, r3, r1
 876 0238 0322     		mov	r2, #3
 877 023a DB10     		asr	r3, r3, #3
 878 023c 1140     		and	r1, r1, r2
 879 023e 0B43     		orr	r3, r3, r1
 880 0240 012B     		cmp	r3, #1
 881 0242 5FD0     		beq	.L90
 882 0244 012B     		cmp	r3, #1
 883 0246 06D3     		bcc	.L89
 884 0248 022B     		cmp	r3, #2
 885 024a 00D1     		bne	.LCB664
 886 024c BAE0     		b	.L149	@long jump
 887              	.LCB664:
 888 024e 052B     		cmp	r3, #5
 889 0250 00D0     		beq	.LCB666
 890 0252 B7E0     		b	.L149	@long jump
 891              	.LCB666:
 892 0254 5FE0     		b	.L92
 893              	.L89:
 894 0256 04AB     		add	r3, sp, #16
 895 0258 0022     		mov	r2, #0
 896 025a 1A80     		strh	r2, [r3]
 897 025c 6378     		ldrb	r3, [r4, #1]
 898 025e 092B     		cmp	r3, #9
 899 0260 00D9     		bls	.LCB678
 900 0262 AFE0     		b	.L149	@long jump
 901              	.LCB678:
 902 0264 4D4A     		ldr	r2, .L161+76
 903 0266 9B00     		lsl	r3, r3, #2
 904 0268 9B58     		ldr	r3, [r3, r2]
 905 026a 9F46     		mov	pc, r3
 906              		.section	.rodata.vUSBCDCTask,"a",%progbits
 907              		.align	2
 908              		.align	2
 909              	.L100:
 910 0000 6C020000 		.word	.L94
 911 0004 C4030000 		.word	.L149
 912 0008 C4030000 		.word	.L149
 913 000c FE020000 		.word	.L156
 914 0010 C4030000 		.word	.L149
 915 0014 DC020000 		.word	.L96
 916 0018 70020000 		.word	.L97
 917 001c C4030000 		.word	.L149
 918 0020 D4020000 		.word	.L98
 919 0024 F0020000 		.word	.L99
 920              		.section	.text.vUSBCDCTask
 921              	.L94:
 922 026c 04A8     		add	r0, sp, #16
 923 026e 4FE0     		b	.L113
 924              	.L97:
 925 0270 4949     		ldr	r1, .L161+72
 926 0272 4A88     		ldrh	r2, [r1, #2]
 927 0274 130A     		lsr	r3, r2, #8
 928 0276 022B     		cmp	r3, #2
 929 0278 0AD0     		beq	.L103
 930 027a 032B     		cmp	r3, #3
 931 027c 0CD0     		beq	.L104
 932 027e 012B     		cmp	r3, #1
 933 0280 00D0     		beq	.LCB707
 934 0282 9FE0     		b	.L149	@long jump
 935              	.LCB707:
 936 0284 4648     		ldr	r0, .L161+80
 937 0286 C988     		ldrh	r1, [r1, #6]
 938 0288 1222     		mov	r2, #18
 939              	.L155:
 940 028a FFF7FEFF 		bl	prvSendControlData
 941 028e 9BE0     		b	.L63
 942              	.L103:
 943 0290 4448     		ldr	r0, .L161+84
 944 0292 C988     		ldrh	r1, [r1, #6]
 945 0294 4322     		mov	r2, #67
 946 0296 1BE0     		b	.L158
 947              	.L104:
 948 0298 FF23     		mov	r3, #255
 949 029a 1340     		and	r3, r3, r2
 950 029c 042B     		cmp	r3, #4
 951 029e 00D9     		bls	.LCB732
 952 02a0 90E0     		b	.L149	@long jump
 953              	.LCB732:
 954 02a2 414A     		ldr	r2, .L161+88
 955 02a4 9B00     		lsl	r3, r3, #2
 956 02a6 9B58     		ldr	r3, [r3, r2]
 957 02a8 9F46     		mov	pc, r3
 958              		.section	.rodata.vUSBCDCTask
 959              		.align	2
 960              		.align	2
 961              	.L111:
 962 0028 AA020000 		.word	.L106
 963 002c B2020000 		.word	.L107
 964 0030 BA020000 		.word	.L108
 965 0034 C2020000 		.word	.L109
 966 0038 CA020000 		.word	.L110
 967              		.section	.text.vUSBCDCTask
 968              	.L106:
 969 02aa 4048     		ldr	r0, .L161+92
 970 02ac C988     		ldrh	r1, [r1, #6]
 971 02ae 0422     		mov	r2, #4
 972 02b0 0EE0     		b	.L158
 973              	.L107:
 974 02b2 3F48     		ldr	r0, .L161+96
 975 02b4 C988     		ldrh	r1, [r1, #6]
 976 02b6 1222     		mov	r2, #18
 977 02b8 0AE0     		b	.L158
 978              	.L108:
 979 02ba 3E48     		ldr	r0, .L161+100
 980 02bc C988     		ldrh	r1, [r1, #6]
 981 02be 2422     		mov	r2, #36
 982 02c0 06E0     		b	.L158
 983              	.L109:
 984 02c2 3D48     		ldr	r0, .L161+104
 985 02c4 C988     		ldrh	r1, [r1, #6]
 986 02c6 2622     		mov	r2, #38
 987 02c8 02E0     		b	.L158
 988              	.L110:
 989 02ca 3C48     		ldr	r0, .L161+108
 990 02cc C988     		ldrh	r1, [r1, #6]
 991 02ce 1E22     		mov	r2, #30
 992              	.L158:
 993 02d0 0123     		mov	r3, #1
 994 02d2 DAE7     		b	.L155
 995              	.L98:
 996 02d4 2348     		ldr	r0, .L161+20
 997 02d6 0121     		mov	r1, #1
 998 02d8 0122     		mov	r2, #1
 999 02da 31E0     		b	.L157
 1000              	.L96:
 1001 02dc FFF7FEFF 		bl	prvSendZLP
 1002 02e0 214A     		ldr	r2, .L161+24
 1003 02e2 0323     		mov	r3, #3
 1004 02e4 1360     		str	r3, [r2]
 1005 02e6 2C4B     		ldr	r3, .L161+72
 1006 02e8 2A4A     		ldr	r2, .L161+68
 1007 02ea 5B88     		ldrh	r3, [r3, #2]
 1008 02ec 1360     		str	r3, [r2]
 1009 02ee 6BE0     		b	.L63
 1010              	.L99:
 1011 02f0 294B     		ldr	r3, .L161+72
 1012 02f2 1C4A     		ldr	r2, .L161+20
 1013 02f4 5B88     		ldrh	r3, [r3, #2]
 1014 02f6 1370     		strb	r3, [r2]
 1015 02f8 1B4A     		ldr	r2, .L161+24
 1016 02fa 0223     		mov	r3, #2
 1017 02fc 1360     		str	r3, [r2]
 1018              	.L156:
 1019 02fe FFF7FEFF 		bl	prvSendZLP
 1020 0302 61E0     		b	.L63
 1021              	.L90:
 1022 0304 0023     		mov	r3, #0
 1023 0306 04A8     		add	r0, sp, #16
 1024 0308 0380     		strh	r3, [r0]
 1025 030a 6378     		ldrb	r3, [r4, #1]
 1026 030c 002B     		cmp	r3, #0
 1027 030e 59D1     		bne	.L149
 1028              	.L113:
 1029 0310 0221     		mov	r1, #2
 1030 0312 0222     		mov	r2, #2
 1031 0314 14E0     		b	.L157
 1032              	.L92:
 1033 0316 6378     		ldrb	r3, [r4, #1]
 1034 0318 202B     		cmp	r3, #32
 1035 031a 06D0     		beq	.L118
 1036 031c 202B     		cmp	r3, #32
 1037 031e 51D9     		bls	.L149
 1038 0320 212B     		cmp	r3, #33
 1039 0322 0AD0     		beq	.L119
 1040 0324 222B     		cmp	r3, #34
 1041 0326 4DD1     		bne	.L149
 1042 0328 0CE0     		b	.L120
 1043              	.L118:
 1044 032a FFF7FEFF 		bl	prvSendZLP
 1045 032e 291C     		mov	r1, r5
 1046 0330 0722     		mov	r2, #7
 1047 0332 2348     		ldr	r0, .L161+112
 1048 0334 FFF7FEFF 		bl	memcpy
 1049 0338 46E0     		b	.L63
 1050              	.L119:
 1051 033a 2148     		ldr	r0, .L161+112
 1052 033c E188     		ldrh	r1, [r4, #6]
 1053 033e 0722     		mov	r2, #7
 1054              	.L157:
 1055 0340 0023     		mov	r3, #0
 1056 0342 A2E7     		b	.L155
 1057              	.L120:
 1058 0344 FFF7FEFF 		bl	prvSendZLP
 1059 0348 084A     		ldr	r2, .L161+28
 1060 034a 6388     		ldrh	r3, [r4, #2]
 1061 034c 1370     		strb	r3, [r2]
 1062 034e 3BE0     		b	.L63
 1063              	.L162:
 1064              		.align	2
 1065              	.L161:
 1066 0350 00000000 		.word	xUSBInterruptQueue
 1067 0354 00000000 		.word	xRxCDC
 1068 0358 00000000 		.word	xTxCDC
 1069 035c 00000000 		.word	pxControlTx
 1070 0360 00000000 		.word	pxControlRx
 1071 0364 00000000 		.word	ucUSBConfig
 1072 0368 00000000 		.word	eDriverState
 1073 036c 00000000 		.word	ucControlState
 1074 0370 00000000 		.word	uiCurrentBank
 1075 0374 20FCFFFF 		.word	-992
 1076 0378 00FCFFFF 		.word	-1024
 1077 037c 0000FBFF 		.word	-327680
 1078 0380 7400FBFF 		.word	-327564
 1079 0384 00F0FFFF 		.word	-4096
 1080 0388 00000000 		.word	vUSB_ISR
 1081 038c FCF0FFFF 		.word	-3844
 1082 0390 00000000 		.word	usbIntefacedInitialized
 1083 0394 00000000 		.word	ulReceivedAddress
 1084 0398 00000000 		.word	xRequest.3556
 1085 039c 00000000 		.word	.L100
 1086 03a0 00000000 		.word	pxDeviceDescriptor
 1087 03a4 00000000 		.word	pxConfigDescriptor
 1088 03a8 28000000 		.word	.L111
 1089 03ac 00000000 		.word	pxLanguageStringDescriptor
 1090 03b0 00000000 		.word	pxManufacturerStringDescriptor
 1091 03b4 00000000 		.word	pxProductStringDescriptor
 1092 03b8 00000000 		.word	pxConfigurationStringDescriptor
 1093 03bc 00000000 		.word	pxInterfaceStringDescriptor
 1094 03c0 00000000 		.word	pxLineCoding
 1095              	.L149:
 1096 03c4 FFF7FEFF 		bl	prvSendStall
 1097              	.L63:
 1098 03c8 039B     		ldr	r3, [sp, #12]
 1099 03ca 1B68     		ldr	r3, [r3]
 1100 03cc DA04     		lsl	r2, r3, #19
 1101 03ce 1ED5     		bpl	.L61
 1102 03d0 404B     		ldr	r3, .L163
 1103 03d2 414A     		ldr	r2, .L163+4
 1104 03d4 0125     		mov	r5, #1
 1105 03d6 414C     		ldr	r4, .L163+8
 1106 03d8 1D60     		str	r5, [r3]
 1107 03da 0023     		mov	r3, #0
 1108 03dc 1370     		strb	r3, [r2]
 1109 03de 0F23     		mov	r3, #15
 1110 03e0 A362     		str	r3, [r4, #40]
 1111 03e2 0023     		mov	r3, #0
 1112 03e4 A362     		str	r3, [r4, #40]
 1113 03e6 8023     		mov	r3, #128
 1114 03e8 5B00     		lsl	r3, r3, #1
 1115 03ea A360     		str	r3, [r4, #8]
 1116 03ec FFF7FEFF 		bl	vPortEnterCritical
 1117 03f0 226B     		ldr	r2, [r4, #48]
 1118 03f2 4F23     		mov	r3, #79
 1119 03f4 1A43     		orr	r2, r2, r3
 1120 03f6 3023     		mov	r3, #48
 1121 03f8 9A43     		bic	r2, r2, r3
 1122 03fa 8023     		mov	r3, #128
 1123 03fc 1B02     		lsl	r3, r3, #8
 1124 03fe 1A43     		orr	r2, r2, r3
 1125 0400 2263     		str	r2, [r4, #48]
 1126 0402 2561     		str	r5, [r4, #16]
 1127 0404 FFF7FEFF 		bl	vPortExitCritical
 1128 0408 354A     		ldr	r2, .L163+12
 1129 040a 0223     		mov	r3, #2
 1130 040c 1360     		str	r3, [r2]
 1131              	.L61:
 1132 040e 314B     		ldr	r3, .L163
 1133 0410 1B68     		ldr	r3, [r3]
 1134 0412 052B     		cmp	r3, #5
 1135 0414 00D0     		beq	.LCB963
 1136 0416 5DE6     		b	.L159	@long jump
 1137              	.LCB963:
 1138 0418 2F4B     		ldr	r3, .L163+4
 1139 041a 1B78     		ldrb	r3, [r3]
 1140 041c 002B     		cmp	r3, #0
 1141 041e 00D1     		bne	.LCB969
 1142 0420 58E6     		b	.L159	@long jump
 1143              	.LCB969:
 1144 0422 2E4B     		ldr	r3, .L163+8
 1145 0424 9B6B     		ldr	r3, [r3, #56]
 1146 0426 DA06     		lsl	r2, r3, #27
 1147 0428 4ED4     		bmi	.L160
 1148 042a 2E4B     		ldr	r3, .L163+16
 1149 042c 1868     		ldr	r0, [r3]
 1150 042e FFF7FEFF 		bl	uxQueueMessagesWaiting
 1151 0432 0028     		cmp	r0, #0
 1152 0434 48D0     		beq	.L160
 1153 0436 0024     		mov	r4, #0
 1154              	.L128:
 1155 0438 2A4B     		ldr	r3, .L163+16
 1156 043a 6D46     		mov	r5, sp
 1157 043c 1335     		add	r5, r5, #19
 1158 043e 1868     		ldr	r0, [r3]
 1159 0440 291C     		mov	r1, r5
 1160 0442 0022     		mov	r2, #0
 1161 0444 FFF7FEFF 		bl	xQueueReceive
 1162 0448 0028     		cmp	r0, #0
 1163 044a 05D0     		beq	.L129
 1164 044c 2A78     		ldrb	r2, [r5]
 1165 044e 234B     		ldr	r3, .L163+8
 1166 0450 0134     		add	r4, r4, #1
 1167 0452 9A65     		str	r2, [r3, #88]
 1168 0454 402C     		cmp	r4, #64
 1169 0456 EFD1     		bne	.L128
 1170              	.L129:
 1171 0458 204B     		ldr	r3, .L163+8
 1172 045a 9A6B     		ldr	r2, [r3, #56]
 1173 045c 1021     		mov	r1, #16
 1174 045e 0A43     		orr	r2, r2, r1
 1175 0460 9A63     		str	r2, [r3, #56]
 1176 0462 31E0     		b	.L160
 1177              	.L131:
 1178 0464 4B6B     		ldr	r3, [r1, #52]
 1179 0466 5B01     		lsl	r3, r3, #5
 1180 0468 5D0D     		lsr	r5, r3, #21
 1181 046a 1F4B     		ldr	r3, .L163+20
 1182 046c 1868     		ldr	r0, [r3]
 1183 046e FFF7FEFF 		bl	uxQueueMessagesWaiting
 1184 0472 C823     		mov	r3, #200
 1185 0474 1B1A     		sub	r3, r3, r0
 1186 0476 9D42     		cmp	r5, r3
 1187 0478 00D3     		bcc	.LCB1024
 1188 047a 2BE6     		b	.L159	@long jump
 1189              	.LCB1024:
 1190 047c 0024     		mov	r4, #0
 1191 047e 0AE0     		b	.L133
 1192              	.L134:
 1193 0480 164B     		ldr	r3, .L163+8
 1194 0482 6946     		mov	r1, sp
 1195 0484 5B6D     		ldr	r3, [r3, #84]
 1196 0486 1331     		add	r1, r1, #19
 1197 0488 0B70     		strb	r3, [r1]
 1198 048a 174B     		ldr	r3, .L163+20
 1199 048c 0022     		mov	r2, #0
 1200 048e 1868     		ldr	r0, [r3]
 1201 0490 FFF7FEFF 		bl	xQueueSend
 1202 0494 0134     		add	r4, r4, #1
 1203              	.L133:
 1204 0496 AC42     		cmp	r4, r5
 1205 0498 F2D1     		bne	.L134
 1206 049a 104C     		ldr	r4, .L163+8
 1207 049c FFF7FEFF 		bl	vPortEnterCritical
 1208 04a0 636B     		ldr	r3, [r4, #52]
 1209 04a2 0F4D     		ldr	r5, .L163+12
 1210 04a4 4F22     		mov	r2, #79
 1211 04a6 1343     		orr	r3, r3, r2
 1212 04a8 3022     		mov	r2, #48
 1213 04aa 9343     		bic	r3, r3, r2
 1214 04ac 2A68     		ldr	r2, [r5]
 1215 04ae 9343     		bic	r3, r3, r2
 1216 04b0 6363     		str	r3, [r4, #52]
 1217 04b2 FFF7FEFF 		bl	vPortExitCritical
 1218 04b6 0222     		mov	r2, #2
 1219 04b8 2261     		str	r2, [r4, #16]
 1220 04ba 2B68     		ldr	r3, [r5]
 1221 04bc 022B     		cmp	r3, #2
 1222 04be 02D1     		bne	.L136
 1223 04c0 4023     		mov	r3, #64
 1224 04c2 2B60     		str	r3, [r5]
 1225 04c4 00E0     		b	.L160
 1226              	.L136:
 1227 04c6 2A60     		str	r2, [r5]
 1228              	.L160:
 1229 04c8 0449     		ldr	r1, .L163+8
 1230 04ca 4A6B     		ldr	r2, [r1, #52]
 1231 04cc 4223     		mov	r3, #66
 1232 04ce 1A42     		tst	r2, r3
 1233 04d0 C8D1     		bne	.L131
 1234 04d2 FFE5     		b	.L159
 1235              	.L164:
 1236              		.align	2
 1237              	.L163:
 1238 04d4 00000000 		.word	eDriverState
 1239 04d8 00000000 		.word	ucControlState
 1240 04dc 0000FBFF 		.word	-327680
 1241 04e0 00000000 		.word	uiCurrentBank
 1242 04e4 00000000 		.word	xTxCDC
 1243 04e8 00000000 		.word	xRxCDC
 1245              		.section	.text.vUSBSendDebug,"ax",%progbits
 1246              		.align	2
 1247              		.global	vUSBSendDebug
 1248              		.code 16
 1249              		.thumb_func
 1251              	vUSBSendDebug:
 1252 0000 70B5     		push	{r4, r5, r6, lr}
 1253 0002 041C     		mov	r4, r0
 1254 0004 FFF7FEFF 		bl	strlen
 1255 0008 0025     		mov	r5, #0
 1256 000a 061C     		mov	r6, r0
 1257 000c 04E0     		b	.L166
 1258              	.L167:
 1259 000e 2078     		ldrb	r0, [r4]
 1260 0010 FFF7FEFF 		bl	vUSBSendByte
 1261 0014 0134     		add	r4, r4, #1
 1262 0016 0135     		add	r5, r5, #1
 1263              	.L166:
 1264 0018 B542     		cmp	r5, r6
 1265 001a F8D1     		bne	.L167
 1266              		@ sp needed for prologue
 1267 001c 70BC     		pop	{r4, r5, r6}
 1268 001e 01BC     		pop	{r0}
 1269 0020 0047     		bx	r0
 1271              		.comm	xUSBInterruptQueue,4,4
 1272 0022 C046     		.section	.bss.uiCurrentBank,"aw",%nobits
 1273              		.align	2
 1276              	uiCurrentBank:
 1277 0000 00000000 		.space	4
 1278              		.section	.bss.ucControlState,"aw",%nobits
 1281              	ucControlState:
 1282 0000 00       		.space	1
 1283              		.section	.bss.xTxCDC,"aw",%nobits
 1284              		.align	2
 1287              	xTxCDC:
 1288 0000 00000000 		.space	4
 1289              		.section	.bss.xRxCDC,"aw",%nobits
 1290              		.align	2
 1293              	xRxCDC:
 1294 0000 00000000 		.space	4
 1295              		.section	.bss.pxControlRx,"aw",%nobits
 1296              		.align	2
 1299              	pxControlRx:
 1300 0000 00000000 		.space	136
 1300      00000000 
 1300      00000000 
 1300      00000000 
 1300      00000000 
 1301              		.section	.bss.pxControlTx,"aw",%nobits
 1302              		.align	2
 1305              	pxControlTx:
 1306 0000 00000000 		.space	136
 1306      00000000 
 1306      00000000 
 1306      00000000 
 1306      00000000 
 1307              		.ident	"GCC: (GNU) 4.0.2"
DEFINED SYMBOLS
                            *ABS*:00000000 USB-CDC.c
/cygdrive/c/Users/brent/AppData/Local/Temp/cctqvYq2.s:1      .text:00000000 $t
/cygdrive/c/Users/brent/AppData/Local/Temp/cctqvYq2.s:7      .rodata.pxConfigDescriptor:00000000 pxConfigDescriptor
/cygdrive/c/Users/brent/AppData/Local/Temp/cctqvYq2.s:79     .rodata.pxDeviceDescriptor:00000000 pxDeviceDescriptor
/cygdrive/c/Users/brent/AppData/Local/Temp/cctqvYq2.s:102    .rodata.pxInterfaceStringDescriptor:00000000 pxInterfaceStringDescriptor
/cygdrive/c/Users/brent/AppData/Local/Temp/cctqvYq2.s:137    .rodata.pxConfigurationStringDescriptor:00000000 pxConfigurationStringDescriptor
/cygdrive/c/Users/brent/AppData/Local/Temp/cctqvYq2.s:180    .rodata.pxProductStringDescriptor:00000000 pxProductStringDescriptor
/cygdrive/c/Users/brent/AppData/Local/Temp/cctqvYq2.s:221    .rodata.pxManufacturerStringDescriptor:00000000 pxManufacturerStringDescriptor
/cygdrive/c/Users/brent/AppData/Local/Temp/cctqvYq2.s:244    .rodata.pxLanguageStringDescriptor:00000000 pxLanguageStringDescriptor
/cygdrive/c/Users/brent/AppData/Local/Temp/cctqvYq2.s:253    .bss.usbIntefacedInitialized:00000000 usbIntefacedInitialized
/cygdrive/c/Users/brent/AppData/Local/Temp/cctqvYq2.s:259    .bss.eDriverState:00000000 eDriverState
/cygdrive/c/Users/brent/AppData/Local/Temp/cctqvYq2.s:264    .bss.ucUSBConfig:00000000 ucUSBConfig
/cygdrive/c/Users/brent/AppData/Local/Temp/cctqvYq2.s:270    .bss.ulReceivedAddress:00000000 ulReceivedAddress
/cygdrive/c/Users/brent/AppData/Local/Temp/cctqvYq2.s:275    .rodata.pxLineCoding:00000000 pxLineCoding
/cygdrive/c/Users/brent/AppData/Local/Temp/cctqvYq2.s:289    .text.vUSBIsInitialized:00000000 vUSBIsInitialized
/cygdrive/c/Users/brent/AppData/Local/Temp/cctqvYq2.s:286    .text.vUSBIsInitialized:00000000 $t
/cygdrive/c/Users/brent/AppData/Local/Temp/cctqvYq2.s:298    .text.vUSBIsInitialized:00000008 $d
/cygdrive/c/Users/brent/AppData/Local/Temp/cctqvYq2.s:306    .text.vUSBSendByte:00000000 vUSBSendByte
/cygdrive/c/Users/brent/AppData/Local/Temp/cctqvYq2.s:303    .text.vUSBSendByte:00000000 $t
/cygdrive/c/Users/brent/AppData/Local/Temp/cctqvYq2.s:323    .text.vUSBSendByte:0000001c $d
/cygdrive/c/Users/brent/AppData/Local/Temp/cctqvYq2.s:1287   .bss.xTxCDC:00000000 xTxCDC
/cygdrive/c/Users/brent/AppData/Local/Temp/cctqvYq2.s:331    .text.vUSBBytesAvailable:00000000 vUSBBytesAvailable
/cygdrive/c/Users/brent/AppData/Local/Temp/cctqvYq2.s:328    .text.vUSBBytesAvailable:00000000 $t
/cygdrive/c/Users/brent/AppData/Local/Temp/cctqvYq2.s:342    .text.vUSBBytesAvailable:00000010 $d
/cygdrive/c/Users/brent/AppData/Local/Temp/cctqvYq2.s:350    .text.vUSBReceiveByte:00000000 vUSBReceiveByte
/cygdrive/c/Users/brent/AppData/Local/Temp/cctqvYq2.s:347    .text.vUSBReceiveByte:00000000 $t
/cygdrive/c/Users/brent/AppData/Local/Temp/cctqvYq2.s:364    .text.vUSBReceiveByte:00000014 $d
/cygdrive/c/Users/brent/AppData/Local/Temp/cctqvYq2.s:1293   .bss.xRxCDC:00000000 xRxCDC
/cygdrive/c/Users/brent/AppData/Local/Temp/cctqvYq2.s:368    .text.prvSendZLP:00000000 $t
/cygdrive/c/Users/brent/AppData/Local/Temp/cctqvYq2.s:371    .text.prvSendZLP:00000000 prvSendZLP
/cygdrive/c/Users/brent/AppData/Local/Temp/cctqvYq2.s:405    .text.prvSendZLP:0000003c $d
/cygdrive/c/Users/brent/AppData/Local/Temp/cctqvYq2.s:1305   .bss.pxControlTx:00000000 pxControlTx
/cygdrive/c/Users/brent/AppData/Local/Temp/cctqvYq2.s:410    .text.prvSendStall:00000000 $t
/cygdrive/c/Users/brent/AppData/Local/Temp/cctqvYq2.s:413    .text.prvSendStall:00000000 prvSendStall
/cygdrive/c/Users/brent/AppData/Local/Temp/cctqvYq2.s:432    .text.prvSendStall:00000020 $d
/cygdrive/c/Users/brent/AppData/Local/Temp/cctqvYq2.s:436    .text.prvSendNextSegment:00000000 $t
/cygdrive/c/Users/brent/AppData/Local/Temp/cctqvYq2.s:439    .text.prvSendNextSegment:00000000 prvSendNextSegment
/cygdrive/c/Users/brent/AppData/Local/Temp/cctqvYq2.s:524    .text.prvSendNextSegment:00000098 $d
/cygdrive/c/Users/brent/AppData/Local/Temp/cctqvYq2.s:530    .text.prvSendControlData:00000000 $t
/cygdrive/c/Users/brent/AppData/Local/Temp/cctqvYq2.s:533    .text.prvSendControlData:00000000 prvSendControlData
/cygdrive/c/Users/brent/AppData/Local/Temp/cctqvYq2.s:574    .text.prvSendControlData:00000048 $d
/cygdrive/c/Users/brent/AppData/Local/Temp/cctqvYq2.s:581    .bss.xRequest.3556:00000000 xRequest.3556
/cygdrive/c/Users/brent/AppData/Local/Temp/cctqvYq2.s:589    .text.vUSBCDCTask:00000000 vUSBCDCTask
/cygdrive/c/Users/brent/AppData/Local/Temp/cctqvYq2.s:586    .text.vUSBCDCTask:00000000 $t
/cygdrive/c/Users/brent/AppData/Local/Temp/cctqvYq2.s:910    .rodata.vUSBCDCTask:00000000 $d
/cygdrive/c/Users/brent/AppData/Local/Temp/cctqvYq2.s:1066   .text.vUSBCDCTask:00000350 $d
                            *COM*:00000004 xUSBInterruptQueue
/cygdrive/c/Users/brent/AppData/Local/Temp/cctqvYq2.s:1299   .bss.pxControlRx:00000000 pxControlRx
/cygdrive/c/Users/brent/AppData/Local/Temp/cctqvYq2.s:1281   .bss.ucControlState:00000000 ucControlState
/cygdrive/c/Users/brent/AppData/Local/Temp/cctqvYq2.s:1276   .bss.uiCurrentBank:00000000 uiCurrentBank
/cygdrive/c/Users/brent/AppData/Local/Temp/cctqvYq2.s:1096   .text.vUSBCDCTask:000003c4 $t
/cygdrive/c/Users/brent/AppData/Local/Temp/cctqvYq2.s:1238   .text.vUSBCDCTask:000004d4 $d
/cygdrive/c/Users/brent/AppData/Local/Temp/cctqvYq2.s:1251   .text.vUSBSendDebug:00000000 vUSBSendDebug
/cygdrive/c/Users/brent/AppData/Local/Temp/cctqvYq2.s:1248   .text.vUSBSendDebug:00000000 $t

UNDEFINED SYMBOLS
xQueueSend
uxQueueMessagesWaiting
xQueueReceive
vTaskDelay
vPortEnterCritical
vPortExitCritical
memcpy
xQueueCreate
Toggle_LED
AT91F_AIC_ConfigureIt
vUSB_ISR
strlen
