   1              		.code	16
   2              		.file	"usb_comm.c"
   3              		.global	duty
   4              		.section	.data.duty,"aw",%progbits
   5              		.align	1
   8              	duty:
   9 0000 0100     		.short	1
  10              		.section	.text.onUSBEchoTask,"ax",%progbits
  11              		.align	2
  12              		.global	onUSBEchoTask
  13              		.code 16
  14              		.thumb_func
  16              	onUSBEchoTask:
  17 0000 10B5     		push	{r4, lr}
  18 0002 81B0     		sub	sp, sp, #4
  19 0004 02E0     		b	.L2
  20              	.L3:
  21 0006 0120     		mov	r0, #1
  22 0008 FFF7FEFF 		bl	vTaskDelay
  23              	.L2:
  24 000c FFF7FEFF 		bl	vUSBIsInitialized
  25 0010 0028     		cmp	r0, #0
  26 0012 F8D0     		beq	.L3
  27              	.L6:
  28 0014 6C46     		mov	r4, sp
  29 0016 0334     		add	r4, r4, #3
  30 0018 201C     		mov	r0, r4
  31 001a FFF7FEFF 		bl	vUSBReceiveByte
  32 001e 2078     		ldrb	r0, [r4]
  33 0020 FFF7FEFF 		bl	vUSBSendByte
  34 0024 F6E7     		b	.L6
  36 0026 C046     		.section	.text.SendBytes,"ax",%progbits
  37              		.align	2
  38              		.global	SendBytes
  39              		.code 16
  40              		.thumb_func
  42              	SendBytes:
  43 0000 70B5     		push	{r4, r5, r6, lr}
  44 0002 041C     		mov	r4, r0
  45 0004 0E1C     		mov	r6, r1
  46 0006 0025     		mov	r5, #0
  47 0008 04E0     		b	.L8
  48              	.L9:
  49 000a 2078     		ldrb	r0, [r4]
  50 000c FFF7FEFF 		bl	vUSBSendByte
  51 0010 0134     		add	r4, r4, #1
  52 0012 0135     		add	r5, r5, #1
  53              	.L8:
  54 0014 B542     		cmp	r5, r6
  55 0016 F8D1     		bne	.L9
  56              		@ sp needed for prologue
  57 0018 70BC     		pop	{r4, r5, r6}
  58 001a 01BC     		pop	{r0}
  59 001c 0047     		bx	r0
  61 001e C046     		.section	.rodata.str1.4,"aMS",%progbits,1
  62              		.align	2
  63              	.LC0:
  64 0000 48656C6C 		.ascii	"Hello!\015\012\000"
  64      6F210D0A 
  64      00
  65 0009 000000   		.align	2
  66              	.LC3:
  67 000c 44757479 		.ascii	"Duty %d\015\012\000"
  67      2025640D 
  67      0A00
  68 0016 0000     		.align	2
  69              	.LC5:
  70 0018 416C6C20 		.ascii	"All ADC0:%d; ADC1:%d; ADC2:%d; ADC3:%d; ADC4:%d; AD"
  70      41444330 
  70      3A25643B 
  70      20414443 
  70      313A2564 
  71 004b 43353A25 		.ascii	"C5:%d; ADC6:%d; ADC7:%d\015\012\000"
  71      643B2041 
  71      4443363A 
  71      25643B20 
  71      41444337 
  72 0065 000000   		.section	.text.onUSBCommTask,"ax",%progbits
  73              		.align	2
  74              		.global	onUSBCommTask
  75              		.code 16
  76              		.thumb_func
  78              	onUSBCommTask:
  79 0000 70B5     		push	{r4, r5, r6, lr}
  80 0002 DAB0     		sub	sp, sp, #360
  81 0004 02E0     		b	.L13
  82              	.L14:
  83 0006 0120     		mov	r0, #1
  84 0008 FFF7FEFF 		bl	vTaskDelay
  85              	.L13:
  86 000c FFF7FEFF 		bl	vUSBIsInitialized
  87 0010 0028     		cmp	r0, #0
  88 0012 F8D0     		beq	.L14
  89              	.L40:
  90 0014 4D4E     		ldr	r6, .L41
  91 0016 6E44     		add	r6, r6, sp
  92 0018 301C     		mov	r0, r6
  93 001a FFF7FEFF 		bl	vUSBReceiveByte
  94 001e 3378     		ldrb	r3, [r6]
  95 0020 562B     		cmp	r3, #86
  96 0022 08D1     		bne	.L16
  97 0024 06A8     		add	r0, sp, #24
  98 0026 0322     		mov	r2, #3
  99 0028 0223     		mov	r3, #2
 100 002a 0270     		strb	r2, [r0]
 101 002c 4370     		strb	r3, [r0, #1]
 102 002e 8270     		strb	r2, [r0, #2]
 103 0030 0321     		mov	r1, #3
 104 0032 FFF7FEFF 		bl	SendBytes
 105              	.L16:
 106 0036 3378     		ldrb	r3, [r6]
 107 0038 212B     		cmp	r3, #33
 108 003a 0BD1     		bne	.L18
 109 003c 06AC     		add	r4, sp, #24
 110 003e 4449     		ldr	r1, .L41+4
 111 0040 201C     		mov	r0, r4
 112 0042 FFF7FEFF 		bl	strcpy
 113 0046 201C     		mov	r0, r4
 114 0048 FFF7FEFF 		bl	strlen
 115 004c 011C     		mov	r1, r0
 116 004e 201C     		mov	r0, r4
 117 0050 FFF7FEFF 		bl	SendBytes
 118              	.L18:
 119 0054 3378     		ldrb	r3, [r6]
 120 0056 7A2B     		cmp	r3, #122
 121 0058 15D1     		bne	.L20
 122 005a 3E4D     		ldr	r5, .L41+8
 123 005c 2A88     		ldrh	r2, [r5]
 124 005e 013A     		sub	r2, r2, #1
 125 0060 1204     		lsl	r2, r2, #16
 126 0062 120C     		lsr	r2, r2, #16
 127 0064 06AC     		add	r4, sp, #24
 128 0066 2A80     		strh	r2, [r5]
 129 0068 3B49     		ldr	r1, .L41+12
 130 006a 201C     		mov	r0, r4
 131 006c FFF7FEFF 		bl	sprintf
 132 0070 201C     		mov	r0, r4
 133 0072 FFF7FEFF 		bl	strlen
 134 0076 011C     		mov	r1, r0
 135 0078 201C     		mov	r0, r4
 136 007a FFF7FEFF 		bl	SendBytes
 137 007e 2988     		ldrh	r1, [r5]
 138 0080 0020     		mov	r0, #0
 139 0082 FFF7FEFF 		bl	PWM_SetDutyCycle
 140              	.L20:
 141 0086 3378     		ldrb	r3, [r6]
 142 0088 782B     		cmp	r3, #120
 143 008a 15D1     		bne	.L22
 144 008c 314D     		ldr	r5, .L41+8
 145 008e 2A88     		ldrh	r2, [r5]
 146 0090 0132     		add	r2, r2, #1
 147 0092 1204     		lsl	r2, r2, #16
 148 0094 120C     		lsr	r2, r2, #16
 149 0096 06AC     		add	r4, sp, #24
 150 0098 2A80     		strh	r2, [r5]
 151 009a 2F49     		ldr	r1, .L41+12
 152 009c 201C     		mov	r0, r4
 153 009e FFF7FEFF 		bl	sprintf
 154 00a2 201C     		mov	r0, r4
 155 00a4 FFF7FEFF 		bl	strlen
 156 00a8 011C     		mov	r1, r0
 157 00aa 201C     		mov	r0, r4
 158 00ac FFF7FEFF 		bl	SendBytes
 159 00b0 2988     		ldrh	r1, [r5]
 160 00b2 0020     		mov	r0, #0
 161 00b4 FFF7FEFF 		bl	PWM_SetDutyCycle
 162              	.L22:
 163 00b8 3378     		ldrb	r3, [r6]
 164 00ba 632B     		cmp	r3, #99
 165 00bc 17D1     		bne	.L24
 166 00be 0124     		mov	r4, #1
 167              	.L26:
 168 00c0 0120     		mov	r0, #1
 169 00c2 FFF7FEFF 		bl	vTaskDelay
 170 00c6 211C     		mov	r1, r4
 171 00c8 0020     		mov	r0, #0
 172 00ca FFF7FEFF 		bl	PWM_SetDutyCycle
 173 00ce FA23     		mov	r3, #250
 174 00d0 0134     		add	r4, r4, #1
 175 00d2 9B00     		lsl	r3, r3, #2
 176 00d4 9C42     		cmp	r4, r3
 177 00d6 F3D1     		bne	.L26
 178 00d8 204C     		ldr	r4, .L41+16
 179              	.L28:
 180 00da 0120     		mov	r0, #1
 181 00dc FFF7FEFF 		bl	vTaskDelay
 182 00e0 211C     		mov	r1, r4
 183 00e2 0020     		mov	r0, #0
 184 00e4 013C     		sub	r4, r4, #1
 185 00e6 FFF7FEFF 		bl	PWM_SetDutyCycle
 186 00ea 002C     		cmp	r4, #0
 187 00ec F5D1     		bne	.L28
 188              	.L24:
 189 00ee 174B     		ldr	r3, .L41
 190 00f0 6B44     		add	r3, r3, sp
 191 00f2 1B78     		ldrb	r3, [r3]
 192 00f4 612B     		cmp	r3, #97
 193 00f6 8DD1     		bne	.L40
 194 00f8 54AB     		add	r3, sp, #336
 195 00fa 0093     		str	r3, [sp]
 196 00fc 53AB     		add	r3, sp, #332
 197 00fe 0193     		str	r3, [sp, #4]
 198 0100 52AB     		add	r3, sp, #328
 199 0102 0293     		str	r3, [sp, #8]
 200 0104 51AB     		add	r3, sp, #324
 201 0106 0393     		str	r3, [sp, #12]
 202 0108 57A9     		add	r1, sp, #348
 203 010a 56AA     		add	r2, sp, #344
 204 010c 55AB     		add	r3, sp, #340
 205 010e 58A8     		add	r0, sp, #352
 206 0110 FFF7FEFF 		bl	ReadAllADC
 207 0114 5699     		ldr	r1, [sp, #344]
 208 0116 0091     		str	r1, [sp]
 209 0118 5599     		ldr	r1, [sp, #340]
 210 011a 0191     		str	r1, [sp, #4]
 211 011c 5499     		ldr	r1, [sp, #336]
 212 011e 0291     		str	r1, [sp, #8]
 213 0120 5399     		ldr	r1, [sp, #332]
 214 0122 0391     		str	r1, [sp, #12]
 215 0124 5299     		ldr	r1, [sp, #328]
 216 0126 0491     		str	r1, [sp, #16]
 217 0128 5199     		ldr	r1, [sp, #324]
 218 012a 06AC     		add	r4, sp, #24
 219 012c 589A     		ldr	r2, [sp, #352]
 220 012e 579B     		ldr	r3, [sp, #348]
 221 0130 0591     		str	r1, [sp, #20]
 222 0132 201C     		mov	r0, r4
 223 0134 0A49     		ldr	r1, .L41+20
 224 0136 FFF7FEFF 		bl	sprintf
 225 013a 201C     		mov	r0, r4
 226 013c FFF7FEFF 		bl	strlen
 227 0140 011C     		mov	r1, r0
 228 0142 201C     		mov	r0, r4
 229 0144 FFF7FEFF 		bl	SendBytes
 230 0148 64E7     		b	.L40
 231              	.L42:
 232 014a 0000     		.align	2
 233              	.L41:
 234 014c 67010000 		.word	359
 235 0150 00000000 		.word	.LC0
 236 0154 00000000 		.word	duty
 237 0158 0C000000 		.word	.LC3
 238 015c E7030000 		.word	999
 239 0160 18000000 		.word	.LC5
 241              		.ident	"GCC: (GNU) 4.0.2"
DEFINED SYMBOLS
                            *ABS*:00000000 usb_comm.c
/cygdrive/c/Users/brent/AppData/Local/Temp/ccU1qzEA.s:1      .text:00000000 $t
/cygdrive/c/Users/brent/AppData/Local/Temp/ccU1qzEA.s:8      .data.duty:00000000 duty
/cygdrive/c/Users/brent/AppData/Local/Temp/ccU1qzEA.s:16     .text.onUSBEchoTask:00000000 onUSBEchoTask
/cygdrive/c/Users/brent/AppData/Local/Temp/ccU1qzEA.s:13     .text.onUSBEchoTask:00000000 $t
/cygdrive/c/Users/brent/AppData/Local/Temp/ccU1qzEA.s:42     .text.SendBytes:00000000 SendBytes
/cygdrive/c/Users/brent/AppData/Local/Temp/ccU1qzEA.s:39     .text.SendBytes:00000000 $t
/cygdrive/c/Users/brent/AppData/Local/Temp/ccU1qzEA.s:78     .text.onUSBCommTask:00000000 onUSBCommTask
/cygdrive/c/Users/brent/AppData/Local/Temp/ccU1qzEA.s:75     .text.onUSBCommTask:00000000 $t
/cygdrive/c/Users/brent/AppData/Local/Temp/ccU1qzEA.s:234    .text.onUSBCommTask:0000014c $d

UNDEFINED SYMBOLS
vTaskDelay
vUSBIsInitialized
vUSBReceiveByte
vUSBSendByte
strcpy
strlen
sprintf
PWM_SetDutyCycle
ReadAllADC
