   1              		.code	16
   2              		.file	"tasks.c"
   3              		.global	pxCurrentTCB
   4              		.section	.bss.pxCurrentTCB,"aw",%nobits
   5              		.align	2
   8              	pxCurrentTCB:
   9 0000 00000000 		.space	4
  10              		.section	.bss.xMissedYield,"aw",%nobits
  11              		.align	2
  14              	xMissedYield:
  15 0000 00000000 		.space	4
  16              		.section	.bss.xTickCount,"aw",%nobits
  17              		.align	2
  20              	xTickCount:
  21 0000 00000000 		.space	4
  22              		.section	.bss.xNumOfOverflows,"aw",%nobits
  23              		.align	2
  26              	xNumOfOverflows:
  27 0000 00000000 		.space	4
  28              		.section	.bss.uxTopReadyPriority,"aw",%nobits
  29              		.align	2
  32              	uxTopReadyPriority:
  33 0000 00000000 		.space	4
  34              		.section	.bss.uxSchedulerSuspended,"aw",%nobits
  35              		.align	2
  38              	uxSchedulerSuspended:
  39 0000 00000000 		.space	4
  40              		.section	.bss.uxMissedTicks,"aw",%nobits
  41              		.align	2
  44              	uxMissedTicks:
  45 0000 00000000 		.space	4
  46              		.section	.bss.uxCurrentNumberOfTasks,"aw",%nobits
  47              		.align	2
  50              	uxCurrentNumberOfTasks:
  51 0000 00000000 		.space	4
  52              		.section	.bss.xSchedulerRunning,"aw",%nobits
  53              		.align	2
  56              	xSchedulerRunning:
  57 0000 00000000 		.space	4
  58              		.section	.bss.uxTopUsedPriority,"aw",%nobits
  59              		.align	2
  62              	uxTopUsedPriority:
  63 0000 00000000 		.space	4
  64              		.section	.text.vTaskSuspendAll,"ax",%progbits
  65              		.align	2
  66              		.global	vTaskSuspendAll
  67              		.code 16
  68              		.thumb_func
  70              	vTaskSuspendAll:
  71 0000 00B5     		push	{lr}
  72 0002 FFF7FEFF 		bl	vPortEnterCritical
  73 0006 044A     		ldr	r2, .L3
  74 0008 1368     		ldr	r3, [r2]
  75 000a 0133     		add	r3, r3, #1
  76 000c 1360     		str	r3, [r2]
  77 000e FFF7FEFF 		bl	vPortExitCritical
  78              		@ sp needed for prologue
  79 0012 01BC     		pop	{r0}
  80 0014 0047     		bx	r0
  81              	.L4:
  82 0016 0000     		.align	2
  83              	.L3:
  84 0018 00000000 		.word	uxSchedulerSuspended
  86              		.section	.text.uxTaskPriorityGet,"ax",%progbits
  87              		.align	2
  88              		.global	uxTaskPriorityGet
  89              		.code 16
  90              		.thumb_func
  92              	uxTaskPriorityGet:
  93 0000 10B5     		push	{r4, lr}
  94 0002 041C     		mov	r4, r0
  95 0004 FFF7FEFF 		bl	vPortEnterCritical
  96 0008 002C     		cmp	r4, #0
  97 000a 02D1     		bne	.L6
  98 000c 054B     		ldr	r3, .L10
  99 000e 1868     		ldr	r0, [r3]
 100 0010 00E0     		b	.L8
 101              	.L6:
 102 0012 201C     		mov	r0, r4
 103              	.L8:
 104 0014 C46A     		ldr	r4, [r0, #44]
 105 0016 FFF7FEFF 		bl	vPortExitCritical
 106 001a 201C     		mov	r0, r4
 107              		@ sp needed for prologue
 108 001c 10BC     		pop	{r4}
 109 001e 02BC     		pop	{r1}
 110 0020 0847     		bx	r1
 111              	.L11:
 112 0022 0000     		.align	2
 113              	.L10:
 114 0024 00000000 		.word	pxCurrentTCB
 116              		.section	.text.vTaskPrioritySet,"ax",%progbits
 117              		.align	2
 118              		.global	vTaskPrioritySet
 119              		.code 16
 120              		.thumb_func
 122              	vTaskPrioritySet:
 123 0000 F0B5     		push	{r4, r5, r6, r7, lr}
 124 0002 061C     		mov	r6, r0
 125 0004 0D1C     		mov	r5, r1
 126 0006 0429     		cmp	r1, #4
 127 0008 00D9     		bls	.L13
 128 000a 0425     		mov	r5, #4
 129              	.L13:
 130 000c FFF7FEFF 		bl	vPortEnterCritical
 131 0010 002E     		cmp	r6, #0
 132 0012 02D1     		bne	.L15
 133 0014 1C4B     		ldr	r3, .L31
 134 0016 1C68     		ldr	r4, [r3]
 135 0018 00E0     		b	.L17
 136              	.L15:
 137 001a 341C     		mov	r4, r6
 138              	.L17:
 139 001c E26A     		ldr	r2, [r4, #44]
 140 001e AA42     		cmp	r2, r5
 141 0020 2CD0     		beq	.L18
 142 0022 194B     		ldr	r3, .L31
 143 0024 1B68     		ldr	r3, [r3]
 144 0026 DB6A     		ldr	r3, [r3, #44]
 145 0028 9D42     		cmp	r5, r3
 146 002a 02D9     		bls	.L20
 147 002c 002E     		cmp	r6, #0
 148 002e 02D1     		bne	.L22
 149 0030 03E0     		b	.L23
 150              	.L20:
 151 0032 002E     		cmp	r6, #0
 152 0034 01D1     		bne	.L23
 153              	.L22:
 154 0036 0127     		mov	r7, #1
 155 0038 00E0     		b	.L24
 156              	.L23:
 157 003a 0027     		mov	r7, #0
 158              	.L24:
 159 003c 0523     		mov	r3, #5
 160 003e 5B1B     		sub	r3, r3, r5
 161 0040 A361     		str	r3, [r4, #24]
 162 0042 9300     		lsl	r3, r2, #2
 163 0044 9B18     		add	r3, r3, r2
 164 0046 114E     		ldr	r6, .L31+4
 165 0048 9B00     		lsl	r3, r3, #2
 166 004a 6269     		ldr	r2, [r4, #20]
 167 004c 9B19     		add	r3, r3, r6
 168 004e E562     		str	r5, [r4, #44]
 169 0050 9A42     		cmp	r2, r3
 170 0052 10D1     		bne	.L25
 171 0054 251D     		add	r5, r4, #4
 172 0056 281C     		mov	r0, r5
 173 0058 FFF7FEFF 		bl	vListRemove
 174 005c 0C49     		ldr	r1, .L31+8
 175 005e E26A     		ldr	r2, [r4, #44]
 176 0060 0B68     		ldr	r3, [r1]
 177 0062 9A42     		cmp	r2, r3
 178 0064 00D9     		bls	.L27
 179 0066 0A60     		str	r2, [r1]
 180              	.L27:
 181 0068 9000     		lsl	r0, r2, #2
 182 006a 8018     		add	r0, r0, r2
 183 006c 8000     		lsl	r0, r0, #2
 184 006e 8019     		add	r0, r0, r6
 185 0070 291C     		mov	r1, r5
 186 0072 FFF7FEFF 		bl	vListInsertEnd
 187              	.L25:
 188 0076 012F     		cmp	r7, #1
 189 0078 00D1     		bne	.L18
 190 007a 00DF     		SWI
 191              		.code	16
 192              	.L18:
 193 007c FFF7FEFF 		bl	vPortExitCritical
 194              		@ sp needed for prologue
 195 0080 F0BC     		pop	{r4, r5, r6, r7}
 196 0082 01BC     		pop	{r0}
 197 0084 0047     		bx	r0
 198              	.L32:
 199 0086 0000     		.align	2
 200              	.L31:
 201 0088 00000000 		.word	pxCurrentTCB
 202 008c 00000000 		.word	pxReadyTasksLists
 203 0090 00000000 		.word	uxTopReadyPriority
 205              		.section	.text.vTaskSuspend,"ax",%progbits
 206              		.align	2
 207              		.global	vTaskSuspend
 208              		.code 16
 209              		.thumb_func
 211              	vTaskSuspend:
 212 0000 70B5     		push	{r4, r5, r6, lr}
 213 0002 051C     		mov	r5, r0
 214 0004 FFF7FEFF 		bl	vPortEnterCritical
 215 0008 114B     		ldr	r3, .L44
 216 000a 1B68     		ldr	r3, [r3]
 217 000c 9D42     		cmp	r5, r3
 218 000e 01D1     		bne	.L34
 219 0010 0025     		mov	r5, #0
 220 0012 01E0     		b	.L36
 221              	.L34:
 222 0014 002D     		cmp	r5, #0
 223 0016 02D1     		bne	.L37
 224              	.L36:
 225 0018 0D4B     		ldr	r3, .L44
 226 001a 1C68     		ldr	r4, [r3]
 227 001c 00E0     		b	.L38
 228              	.L37:
 229 001e 2C1C     		mov	r4, r5
 230              	.L38:
 231 0020 261D     		add	r6, r4, #4
 232 0022 301C     		mov	r0, r6
 233 0024 FFF7FEFF 		bl	vListRemove
 234 0028 A36A     		ldr	r3, [r4, #40]
 235 002a 002B     		cmp	r3, #0
 236 002c 03D0     		beq	.L39
 237 002e 201C     		mov	r0, r4
 238 0030 1830     		add	r0, r0, #24
 239 0032 FFF7FEFF 		bl	vListRemove
 240              	.L39:
 241 0036 0748     		ldr	r0, .L44+4
 242 0038 311C     		mov	r1, r6
 243 003a FFF7FEFF 		bl	vListInsertEnd
 244 003e FFF7FEFF 		bl	vPortExitCritical
 245 0042 002D     		cmp	r5, #0
 246 0044 00D1     		bne	.L43
 247 0046 00DF     		SWI
 248              		.code	16
 249              	.L43:
 250              		@ sp needed for prologue
 251 0048 70BC     		pop	{r4, r5, r6}
 252 004a 01BC     		pop	{r0}
 253 004c 0047     		bx	r0
 254              	.L45:
 255 004e 0000     		.align	2
 256              	.L44:
 257 0050 00000000 		.word	pxCurrentTCB
 258 0054 00000000 		.word	xSuspendedTaskList
 260              		.section	.text.vTaskResume,"ax",%progbits
 261              		.align	2
 262              		.global	vTaskResume
 263              		.code 16
 264              		.thumb_func
 266              	vTaskResume:
 267 0000 30B5     		push	{r4, r5, lr}
 268 0002 041C     		mov	r4, r0
 269 0004 0028     		cmp	r0, #0
 270 0006 24D0     		beq	.L55
 271 0008 FFF7FEFF 		bl	vPortEnterCritical
 272 000c 6269     		ldr	r2, [r4, #20]
 273 000e 124B     		ldr	r3, .L56
 274 0010 9A42     		cmp	r2, r3
 275 0012 1CD1     		bne	.L49
 276 0014 A26A     		ldr	r2, [r4, #40]
 277 0016 114B     		ldr	r3, .L56+4
 278 0018 9A42     		cmp	r2, r3
 279 001a 18D0     		beq	.L49
 280 001c 251D     		add	r5, r4, #4
 281 001e 281C     		mov	r0, r5
 282 0020 FFF7FEFF 		bl	vListRemove
 283 0024 0E49     		ldr	r1, .L56+8
 284 0026 E26A     		ldr	r2, [r4, #44]
 285 0028 0B68     		ldr	r3, [r1]
 286 002a 9A42     		cmp	r2, r3
 287 002c 00D9     		bls	.L52
 288 002e 0A60     		str	r2, [r1]
 289              	.L52:
 290 0030 9000     		lsl	r0, r2, #2
 291 0032 8018     		add	r0, r0, r2
 292 0034 0B4B     		ldr	r3, .L56+12
 293 0036 8000     		lsl	r0, r0, #2
 294 0038 C018     		add	r0, r0, r3
 295 003a 291C     		mov	r1, r5
 296 003c FFF7FEFF 		bl	vListInsertEnd
 297 0040 094B     		ldr	r3, .L56+16
 298 0042 1B68     		ldr	r3, [r3]
 299 0044 E26A     		ldr	r2, [r4, #44]
 300 0046 DB6A     		ldr	r3, [r3, #44]
 301 0048 9A42     		cmp	r2, r3
 302 004a 00D3     		bcc	.L49
 303 004c 00DF     		SWI
 304              		.code	16
 305              	.L49:
 306 004e FFF7FEFF 		bl	vPortExitCritical
 307              	.L55:
 308              		@ sp needed for prologue
 309 0052 30BC     		pop	{r4, r5}
 310 0054 01BC     		pop	{r0}
 311 0056 0047     		bx	r0
 312              	.L57:
 313              		.align	2
 314              	.L56:
 315 0058 00000000 		.word	xSuspendedTaskList
 316 005c 00000000 		.word	xPendingReadyList
 317 0060 00000000 		.word	uxTopReadyPriority
 318 0064 00000000 		.word	pxReadyTasksLists
 319 0068 00000000 		.word	pxCurrentTCB
 321              		.section	.text.xTaskResumeFromISR,"ax",%progbits
 322              		.align	2
 323              		.global	xTaskResumeFromISR
 324              		.code 16
 325              		.thumb_func
 327              	xTaskResumeFromISR:
 328 0000 70B5     		push	{r4, r5, r6, lr}
 329 0002 4269     		ldr	r2, [r0, #20]
 330 0004 174B     		ldr	r3, .L69
 331 0006 041C     		mov	r4, r0
 332 0008 9A42     		cmp	r2, r3
 333 000a 26D1     		bne	.L59
 334 000c 836A     		ldr	r3, [r0, #40]
 335 000e 1648     		ldr	r0, .L69+4
 336 0010 8342     		cmp	r3, r0
 337 0012 22D0     		beq	.L59
 338 0014 154B     		ldr	r3, .L69+8
 339 0016 1B68     		ldr	r3, [r3]
 340 0018 002B     		cmp	r3, #0
 341 001a 1AD1     		bne	.L62
 342 001c 144B     		ldr	r3, .L69+12
 343 001e 1B68     		ldr	r3, [r3]
 344 0020 E26A     		ldr	r2, [r4, #44]
 345 0022 DB6A     		ldr	r3, [r3, #44]
 346 0024 0026     		mov	r6, #0
 347 0026 9A42     		cmp	r2, r3
 348 0028 00D3     		bcc	.L64
 349 002a 0126     		mov	r6, #1
 350              	.L64:
 351 002c 251D     		add	r5, r4, #4
 352 002e 281C     		mov	r0, r5
 353 0030 FFF7FEFF 		bl	vListRemove
 354 0034 0F4A     		ldr	r2, .L69+16
 355 0036 E16A     		ldr	r1, [r4, #44]
 356 0038 1368     		ldr	r3, [r2]
 357 003a 9942     		cmp	r1, r3
 358 003c 00D9     		bls	.L65
 359 003e 1160     		str	r1, [r2]
 360              	.L65:
 361 0040 8800     		lsl	r0, r1, #2
 362 0042 4018     		add	r0, r0, r1
 363 0044 0C4B     		ldr	r3, .L69+20
 364 0046 8000     		lsl	r0, r0, #2
 365 0048 C018     		add	r0, r0, r3
 366 004a 291C     		mov	r1, r5
 367 004c FFF7FEFF 		bl	vListInsertEnd
 368 0050 04E0     		b	.L67
 369              	.L62:
 370 0052 211C     		mov	r1, r4
 371 0054 1831     		add	r1, r1, #24
 372 0056 FFF7FEFF 		bl	vListInsertEnd
 373              	.L59:
 374 005a 0026     		mov	r6, #0
 375              	.L67:
 376 005c 301C     		mov	r0, r6
 377              		@ sp needed for prologue
 378 005e 70BC     		pop	{r4, r5, r6}
 379 0060 02BC     		pop	{r1}
 380 0062 0847     		bx	r1
 381              	.L70:
 382              		.align	2
 383              	.L69:
 384 0064 00000000 		.word	xSuspendedTaskList
 385 0068 00000000 		.word	xPendingReadyList
 386 006c 00000000 		.word	uxSchedulerSuspended
 387 0070 00000000 		.word	pxCurrentTCB
 388 0074 00000000 		.word	uxTopReadyPriority
 389 0078 00000000 		.word	pxReadyTasksLists
 391              		.section	.text.vTaskEndScheduler,"ax",%progbits
 392              		.align	2
 393              		.global	vTaskEndScheduler
 394              		.code 16
 395              		.thumb_func
 397              	vTaskEndScheduler:
 398 0000 00B5     		push	{lr}
 399 0002 FFF7FEFF 		bl	vPortDisableInterruptsFromThumb
 400 0006 034A     		ldr	r2, .L73
 401 0008 0023     		mov	r3, #0
 402 000a 1360     		str	r3, [r2]
 403 000c FFF7FEFF 		bl	vPortEndScheduler
 404              		@ sp needed for prologue
 405 0010 01BC     		pop	{r0}
 406 0012 0047     		bx	r0
 407              	.L74:
 408              		.align	2
 409              	.L73:
 410 0014 00000000 		.word	xSchedulerRunning
 412              		.section	.text.vTaskIncrementTick,"ax",%progbits
 413              		.align	2
 414              		.global	vTaskIncrementTick
 415              		.code 16
 416              		.thumb_func
 418              	vTaskIncrementTick:
 419 0000 30B5     		push	{r4, r5, lr}
 420 0002 234B     		ldr	r3, .L90
 421 0004 1B68     		ldr	r3, [r3]
 422 0006 002B     		cmp	r3, #0
 423 0008 3AD1     		bne	.L76
 424 000a 224B     		ldr	r3, .L90+4
 425 000c 1A68     		ldr	r2, [r3]
 426 000e 0132     		add	r2, r2, #1
 427 0010 1A60     		str	r2, [r3]
 428 0012 1B68     		ldr	r3, [r3]
 429 0014 002B     		cmp	r3, #0
 430 0016 28D1     		bne	.L89
 431 0018 1F4A     		ldr	r2, .L90+8
 432 001a 2049     		ldr	r1, .L90+12
 433 001c 0868     		ldr	r0, [r1]
 434 001e 1368     		ldr	r3, [r2]
 435 0020 0B60     		str	r3, [r1]
 436 0022 1060     		str	r0, [r2]
 437 0024 1E4A     		ldr	r2, .L90+16
 438 0026 1368     		ldr	r3, [r2]
 439 0028 0133     		add	r3, r3, #1
 440 002a 1360     		str	r3, [r2]
 441 002c 1DE0     		b	.L89
 442              	.L80:
 443 002e 194B     		ldr	r3, .L90+4
 444 0030 1A68     		ldr	r2, [r3]
 445 0032 6368     		ldr	r3, [r4, #4]
 446 0034 9A42     		cmp	r2, r3
 447 0036 27D3     		bcc	.L88
 448 0038 251D     		add	r5, r4, #4
 449 003a 281C     		mov	r0, r5
 450 003c FFF7FEFF 		bl	vListRemove
 451 0040 A36A     		ldr	r3, [r4, #40]
 452 0042 002B     		cmp	r3, #0
 453 0044 03D0     		beq	.L83
 454 0046 201C     		mov	r0, r4
 455 0048 1830     		add	r0, r0, #24
 456 004a FFF7FEFF 		bl	vListRemove
 457              	.L83:
 458 004e 1549     		ldr	r1, .L90+20
 459 0050 E26A     		ldr	r2, [r4, #44]
 460 0052 0B68     		ldr	r3, [r1]
 461 0054 9A42     		cmp	r2, r3
 462 0056 00D9     		bls	.L85
 463 0058 0A60     		str	r2, [r1]
 464              	.L85:
 465 005a 9000     		lsl	r0, r2, #2
 466 005c 8018     		add	r0, r0, r2
 467 005e 124B     		ldr	r3, .L90+24
 468 0060 8000     		lsl	r0, r0, #2
 469 0062 C018     		add	r0, r0, r3
 470 0064 291C     		mov	r1, r5
 471 0066 FFF7FEFF 		bl	vListInsertEnd
 472              	.L89:
 473 006a 0C4A     		ldr	r2, .L90+12
 474 006c 1368     		ldr	r3, [r2]
 475 006e 1B68     		ldr	r3, [r3]
 476 0070 002B     		cmp	r3, #0
 477 0072 09D0     		beq	.L88
 478 0074 1368     		ldr	r3, [r2]
 479 0076 DB68     		ldr	r3, [r3, #12]
 480 0078 DC68     		ldr	r4, [r3, #12]
 481 007a 002C     		cmp	r4, #0
 482 007c D7D1     		bne	.L80
 483 007e 03E0     		b	.L88
 484              	.L76:
 485 0080 0A4A     		ldr	r2, .L90+28
 486 0082 1368     		ldr	r3, [r2]
 487 0084 0133     		add	r3, r3, #1
 488 0086 1360     		str	r3, [r2]
 489              	.L88:
 490              		@ sp needed for prologue
 491 0088 30BC     		pop	{r4, r5}
 492 008a 01BC     		pop	{r0}
 493 008c 0047     		bx	r0
 494              	.L91:
 495 008e 0000     		.align	2
 496              	.L90:
 497 0090 00000000 		.word	uxSchedulerSuspended
 498 0094 00000000 		.word	xTickCount
 499 0098 00000000 		.word	pxOverflowDelayedTaskList
 500 009c 00000000 		.word	pxDelayedTaskList
 501 00a0 00000000 		.word	xNumOfOverflows
 502 00a4 00000000 		.word	uxTopReadyPriority
 503 00a8 00000000 		.word	pxReadyTasksLists
 504 00ac 00000000 		.word	uxMissedTicks
 506              		.section	.text.xTaskResumeAll,"ax",%progbits
 507              		.align	2
 508              		.global	xTaskResumeAll
 509              		.code 16
 510              		.thumb_func
 512              	xTaskResumeAll:
 513 0000 70B5     		push	{r4, r5, r6, lr}
 514 0002 FFF7FEFF 		bl	vPortEnterCritical
 515 0006 2A4B     		ldr	r3, .L118
 516 0008 1A68     		ldr	r2, [r3]
 517 000a 013A     		sub	r2, r2, #1
 518 000c 1A60     		str	r2, [r3]
 519 000e 1B68     		ldr	r3, [r3]
 520 0010 002B     		cmp	r3, #0
 521 0012 45D1     		bne	.L93
 522 0014 274B     		ldr	r3, .L118+4
 523 0016 1B68     		ldr	r3, [r3]
 524 0018 002B     		cmp	r3, #0
 525 001a 41D0     		beq	.L93
 526 001c 0026     		mov	r6, #0
 527 001e 1CE0     		b	.L117
 528              	.L97:
 529 0020 201C     		mov	r0, r4
 530 0022 1830     		add	r0, r0, #24
 531 0024 251D     		add	r5, r4, #4
 532 0026 FFF7FEFF 		bl	vListRemove
 533 002a 281C     		mov	r0, r5
 534 002c FFF7FEFF 		bl	vListRemove
 535 0030 2149     		ldr	r1, .L118+8
 536 0032 E26A     		ldr	r2, [r4, #44]
 537 0034 0B68     		ldr	r3, [r1]
 538 0036 9A42     		cmp	r2, r3
 539 0038 00D9     		bls	.L98
 540 003a 0A60     		str	r2, [r1]
 541              	.L98:
 542 003c 9000     		lsl	r0, r2, #2
 543 003e 8018     		add	r0, r0, r2
 544 0040 1E4B     		ldr	r3, .L118+12
 545 0042 8000     		lsl	r0, r0, #2
 546 0044 C018     		add	r0, r0, r3
 547 0046 291C     		mov	r1, r5
 548 0048 FFF7FEFF 		bl	vListInsertEnd
 549 004c 1C4B     		ldr	r3, .L118+16
 550 004e 1B68     		ldr	r3, [r3]
 551 0050 E26A     		ldr	r2, [r4, #44]
 552 0052 DB6A     		ldr	r3, [r3, #44]
 553 0054 9A42     		cmp	r2, r3
 554 0056 00D3     		bcc	.L117
 555 0058 0126     		mov	r6, #1
 556              	.L117:
 557 005a 1A4A     		ldr	r2, .L118+20
 558 005c 1368     		ldr	r3, [r2]
 559 005e 002B     		cmp	r3, #0
 560 0060 03D0     		beq	.L101
 561 0062 D368     		ldr	r3, [r2, #12]
 562 0064 DC68     		ldr	r4, [r3, #12]
 563 0066 002C     		cmp	r4, #0
 564 0068 DAD1     		bne	.L97
 565              	.L101:
 566 006a 174B     		ldr	r3, .L118+24
 567 006c 1B68     		ldr	r3, [r3]
 568 006e 002B     		cmp	r3, #0
 569 0070 05D1     		bne	.L115
 570 0072 09E0     		b	.L114
 571              	.L105:
 572 0074 FFF7FEFF 		bl	vTaskIncrementTick
 573 0078 2368     		ldr	r3, [r4]
 574 007a 013B     		sub	r3, r3, #1
 575 007c 2360     		str	r3, [r4]
 576              	.L115:
 577 007e 124C     		ldr	r4, .L118+24
 578 0080 2368     		ldr	r3, [r4]
 579 0082 002B     		cmp	r3, #0
 580 0084 F6D1     		bne	.L105
 581 0086 05E0     		b	.L106
 582              	.L114:
 583 0088 012E     		cmp	r6, #1
 584 008a 03D0     		beq	.L106
 585 008c 0F4B     		ldr	r3, .L118+28
 586 008e 1B68     		ldr	r3, [r3]
 587 0090 012B     		cmp	r3, #1
 588 0092 05D1     		bne	.L93
 589              	.L106:
 590 0094 0D4A     		ldr	r2, .L118+28
 591 0096 0023     		mov	r3, #0
 592 0098 1360     		str	r3, [r2]
 593 009a 00DF     		SWI
 594              		.code	16
 595 009c 0124     		mov	r4, #1
 596 009e 00E0     		b	.L108
 597              	.L93:
 598 00a0 0024     		mov	r4, #0
 599              	.L108:
 600 00a2 FFF7FEFF 		bl	vPortExitCritical
 601 00a6 201C     		mov	r0, r4
 602              		@ sp needed for prologue
 603 00a8 70BC     		pop	{r4, r5, r6}
 604 00aa 02BC     		pop	{r1}
 605 00ac 0847     		bx	r1
 606              	.L119:
 607 00ae 0000     		.align	2
 608              	.L118:
 609 00b0 00000000 		.word	uxSchedulerSuspended
 610 00b4 00000000 		.word	uxCurrentNumberOfTasks
 611 00b8 00000000 		.word	uxTopReadyPriority
 612 00bc 00000000 		.word	pxReadyTasksLists
 613 00c0 00000000 		.word	pxCurrentTCB
 614 00c4 00000000 		.word	xPendingReadyList
 615 00c8 00000000 		.word	uxMissedTicks
 616 00cc 00000000 		.word	xMissedYield
 618              		.section	.text.vTaskDelay,"ax",%progbits
 619              		.align	2
 620              		.global	vTaskDelay
 621              		.code 16
 622              		.thumb_func
 624              	vTaskDelay:
 625 0000 70B5     		push	{r4, r5, r6, lr}
 626 0002 061C     		mov	r6, r0
 627 0004 0028     		cmp	r0, #0
 628 0006 1AD0     		beq	.L121
 629 0008 FFF7FEFF 		bl	vTaskSuspendAll
 630 000c 0E4D     		ldr	r5, .L129
 631 000e 2C68     		ldr	r4, [r5]
 632 0010 A419     		add	r4, r4, r6
 633 0012 0E4E     		ldr	r6, .L129+4
 634 0014 3068     		ldr	r0, [r6]
 635 0016 0430     		add	r0, r0, #4
 636 0018 FFF7FEFF 		bl	vListRemove
 637 001c 3368     		ldr	r3, [r6]
 638 001e 5C60     		str	r4, [r3, #4]
 639 0020 2B68     		ldr	r3, [r5]
 640 0022 9C42     		cmp	r4, r3
 641 0024 01D2     		bcs	.L123
 642 0026 0A4B     		ldr	r3, .L129+8
 643 0028 00E0     		b	.L128
 644              	.L123:
 645 002a 0A4B     		ldr	r3, .L129+12
 646              	.L128:
 647 002c 1868     		ldr	r0, [r3]
 648 002e 3168     		ldr	r1, [r6]
 649 0030 0431     		add	r1, r1, #4
 650 0032 FFF7FEFF 		bl	vListInsert
 651 0036 FFF7FEFF 		bl	xTaskResumeAll
 652 003a 0028     		cmp	r0, #0
 653 003c 00D1     		bne	.L127
 654              	.L121:
 655 003e 00DF     		SWI
 656              		.code	16
 657              	.L127:
 658              		@ sp needed for prologue
 659 0040 70BC     		pop	{r4, r5, r6}
 660 0042 01BC     		pop	{r0}
 661 0044 0047     		bx	r0
 662              	.L130:
 663 0046 0000     		.align	2
 664              	.L129:
 665 0048 00000000 		.word	xTickCount
 666 004c 00000000 		.word	pxCurrentTCB
 667 0050 00000000 		.word	pxOverflowDelayedTaskList
 668 0054 00000000 		.word	pxDelayedTaskList
 670              		.section	.text.vTaskDelayUntil,"ax",%progbits
 671              		.align	2
 672              		.global	vTaskDelayUntil
 673              		.code 16
 674              		.thumb_func
 676              	vTaskDelayUntil:
 677 0000 30B5     		push	{r4, r5, lr}
 678 0002 0C1C     		mov	r4, r1
 679 0004 051C     		mov	r5, r0
 680 0006 FFF7FEFF 		bl	vTaskSuspendAll
 681 000a 1749     		ldr	r1, .L148
 682 000c 2A68     		ldr	r2, [r5]
 683 000e 0B68     		ldr	r3, [r1]
 684 0010 1419     		add	r4, r2, r4
 685 0012 9342     		cmp	r3, r2
 686 0014 02D2     		bcs	.L132
 687 0016 9442     		cmp	r4, r2
 688 0018 05D2     		bcs	.L134
 689 001a 01E0     		b	.L146
 690              	.L132:
 691 001c 9442     		cmp	r4, r2
 692 001e 04D3     		bcc	.L136
 693              	.L146:
 694 0020 0B68     		ldr	r3, [r1]
 695 0022 9C42     		cmp	r4, r3
 696 0024 01D8     		bhi	.L136
 697              	.L134:
 698 0026 0023     		mov	r3, #0
 699 0028 00E0     		b	.L138
 700              	.L136:
 701 002a 0123     		mov	r3, #1
 702              	.L138:
 703 002c 2C60     		str	r4, [r5]
 704 002e 002B     		cmp	r3, #0
 705 0030 12D0     		beq	.L139
 706 0032 0E4D     		ldr	r5, .L148+4
 707 0034 2868     		ldr	r0, [r5]
 708 0036 0430     		add	r0, r0, #4
 709 0038 FFF7FEFF 		bl	vListRemove
 710 003c 2B68     		ldr	r3, [r5]
 711 003e 5C60     		str	r4, [r3, #4]
 712 0040 094B     		ldr	r3, .L148
 713 0042 1B68     		ldr	r3, [r3]
 714 0044 9C42     		cmp	r4, r3
 715 0046 01D2     		bcs	.L141
 716 0048 094B     		ldr	r3, .L148+8
 717 004a 00E0     		b	.L147
 718              	.L141:
 719 004c 094B     		ldr	r3, .L148+12
 720              	.L147:
 721 004e 1868     		ldr	r0, [r3]
 722 0050 2968     		ldr	r1, [r5]
 723 0052 0431     		add	r1, r1, #4
 724 0054 FFF7FEFF 		bl	vListInsert
 725              	.L139:
 726 0058 FFF7FEFF 		bl	xTaskResumeAll
 727 005c 0028     		cmp	r0, #0
 728 005e 00D1     		bne	.L145
 729 0060 00DF     		SWI
 730              		.code	16
 731              	.L145:
 732              		@ sp needed for prologue
 733 0062 30BC     		pop	{r4, r5}
 734 0064 01BC     		pop	{r0}
 735 0066 0047     		bx	r0
 736              	.L149:
 737              		.align	2
 738              	.L148:
 739 0068 00000000 		.word	xTickCount
 740 006c 00000000 		.word	pxCurrentTCB
 741 0070 00000000 		.word	pxOverflowDelayedTaskList
 742 0074 00000000 		.word	pxDelayedTaskList
 744              		.section	.text.xTaskGetTickCount,"ax",%progbits
 745              		.align	2
 746              		.global	xTaskGetTickCount
 747              		.code 16
 748              		.thumb_func
 750              	xTaskGetTickCount:
 751 0000 10B5     		push	{r4, lr}
 752 0002 FFF7FEFF 		bl	vPortEnterCritical
 753 0006 044B     		ldr	r3, .L152
 754 0008 1C68     		ldr	r4, [r3]
 755 000a FFF7FEFF 		bl	vPortExitCritical
 756 000e 201C     		mov	r0, r4
 757              		@ sp needed for prologue
 758 0010 10BC     		pop	{r4}
 759 0012 02BC     		pop	{r1}
 760 0014 0847     		bx	r1
 761              	.L153:
 762 0016 0000     		.align	2
 763              	.L152:
 764 0018 00000000 		.word	xTickCount
 766              		.section	.text.uxTaskGetNumberOfTasks,"ax",%progbits
 767              		.align	2
 768              		.global	uxTaskGetNumberOfTasks
 769              		.code 16
 770              		.thumb_func
 772              	uxTaskGetNumberOfTasks:
 773 0000 10B5     		push	{r4, lr}
 774 0002 FFF7FEFF 		bl	vPortEnterCritical
 775 0006 044B     		ldr	r3, .L156
 776 0008 1C68     		ldr	r4, [r3]
 777 000a FFF7FEFF 		bl	vPortExitCritical
 778 000e 201C     		mov	r0, r4
 779              		@ sp needed for prologue
 780 0010 10BC     		pop	{r4}
 781 0012 02BC     		pop	{r1}
 782 0014 0847     		bx	r1
 783              	.L157:
 784 0016 0000     		.align	2
 785              	.L156:
 786 0018 00000000 		.word	uxCurrentNumberOfTasks
 788              		.section	.text.vTaskSwitchContext,"ax",%progbits
 789              		.align	2
 790              		.global	vTaskSwitchContext
 791              		.code 16
 792              		.thumb_func
 794              	vTaskSwitchContext:
 795 0000 10B5     		push	{r4, lr}
 796 0002 244B     		ldr	r3, .L168
 797 0004 1B68     		ldr	r3, [r3]
 798 0006 002B     		cmp	r3, #0
 799 0008 06D0     		beq	.L167
 800 000a 234A     		ldr	r2, .L168+4
 801 000c 0123     		mov	r3, #1
 802 000e 1360     		str	r3, [r2]
 803 0010 3DE0     		b	.L166
 804              	.L162:
 805 0012 0368     		ldr	r3, [r0]
 806 0014 013B     		sub	r3, r3, #1
 807 0016 0360     		str	r3, [r0]
 808              	.L167:
 809 0018 2048     		ldr	r0, .L168+8
 810 001a 0368     		ldr	r3, [r0]
 811 001c 9A00     		lsl	r2, r3, #2
 812 001e D218     		add	r2, r2, r3
 813 0020 1F4C     		ldr	r4, .L168+12
 814 0022 9200     		lsl	r2, r2, #2
 815 0024 1219     		add	r2, r2, r4
 816 0026 1368     		ldr	r3, [r2]
 817 0028 002B     		cmp	r3, #0
 818 002a F2D0     		beq	.L162
 819 002c 0168     		ldr	r1, [r0]
 820 002e 0268     		ldr	r2, [r0]
 821 0030 9300     		lsl	r3, r2, #2
 822 0032 9B18     		add	r3, r3, r2
 823 0034 9B00     		lsl	r3, r3, #2
 824 0036 1B19     		add	r3, r3, r4
 825 0038 5B68     		ldr	r3, [r3, #4]
 826 003a 5A68     		ldr	r2, [r3, #4]
 827 003c 8B00     		lsl	r3, r1, #2
 828 003e 5B18     		add	r3, r3, r1
 829 0040 9B00     		lsl	r3, r3, #2
 830 0042 1B19     		add	r3, r3, r4
 831 0044 5A60     		str	r2, [r3, #4]
 832 0046 0168     		ldr	r1, [r0]
 833 0048 0368     		ldr	r3, [r0]
 834 004a 9A00     		lsl	r2, r3, #2
 835 004c D218     		add	r2, r2, r3
 836 004e 8B00     		lsl	r3, r1, #2
 837 0050 5B18     		add	r3, r3, r1
 838 0052 9B00     		lsl	r3, r3, #2
 839 0054 9200     		lsl	r2, r2, #2
 840 0056 1B19     		add	r3, r3, r4
 841 0058 1219     		add	r2, r2, r4
 842 005a 5B68     		ldr	r3, [r3, #4]
 843 005c 0832     		add	r2, r2, #8
 844 005e 9342     		cmp	r3, r2
 845 0060 0CD1     		bne	.L164
 846 0062 0168     		ldr	r1, [r0]
 847 0064 0268     		ldr	r2, [r0]
 848 0066 9300     		lsl	r3, r2, #2
 849 0068 9B18     		add	r3, r3, r2
 850 006a 9B00     		lsl	r3, r3, #2
 851 006c 1B19     		add	r3, r3, r4
 852 006e 5B68     		ldr	r3, [r3, #4]
 853 0070 5A68     		ldr	r2, [r3, #4]
 854 0072 8B00     		lsl	r3, r1, #2
 855 0074 5B18     		add	r3, r3, r1
 856 0076 9B00     		lsl	r3, r3, #2
 857 0078 1B19     		add	r3, r3, r4
 858 007a 5A60     		str	r2, [r3, #4]
 859              	.L164:
 860 007c 0268     		ldr	r2, [r0]
 861 007e 9300     		lsl	r3, r2, #2
 862 0080 9B18     		add	r3, r3, r2
 863 0082 9B00     		lsl	r3, r3, #2
 864 0084 1B19     		add	r3, r3, r4
 865 0086 5B68     		ldr	r3, [r3, #4]
 866 0088 DA68     		ldr	r2, [r3, #12]
 867 008a 064B     		ldr	r3, .L168+16
 868 008c 1A60     		str	r2, [r3]
 869              	.L166:
 870              		@ sp needed for prologue
 871 008e 10BC     		pop	{r4}
 872 0090 01BC     		pop	{r0}
 873 0092 0047     		bx	r0
 874              	.L169:
 875              		.align	2
 876              	.L168:
 877 0094 00000000 		.word	uxSchedulerSuspended
 878 0098 00000000 		.word	xMissedYield
 879 009c 00000000 		.word	uxTopReadyPriority
 880 00a0 00000000 		.word	pxReadyTasksLists
 881 00a4 00000000 		.word	pxCurrentTCB
 883              		.section	.text.vTaskPlaceOnEventList,"ax",%progbits
 884              		.align	2
 885              		.global	vTaskPlaceOnEventList
 886              		.code 16
 887              		.thumb_func
 889              	vTaskPlaceOnEventList:
 890 0000 F0B5     		push	{r4, r5, r6, r7, lr}
 891 0002 0E4F     		ldr	r7, .L176
 892 0004 0E1C     		mov	r6, r1
 893 0006 3968     		ldr	r1, [r7]
 894 0008 1831     		add	r1, r1, #24
 895 000a FFF7FEFF 		bl	vListInsert
 896 000e 0C4D     		ldr	r5, .L176+4
 897 0010 2C68     		ldr	r4, [r5]
 898 0012 3868     		ldr	r0, [r7]
 899 0014 0430     		add	r0, r0, #4
 900 0016 FFF7FEFF 		bl	vListRemove
 901 001a 3B68     		ldr	r3, [r7]
 902 001c A419     		add	r4, r4, r6
 903 001e 5C60     		str	r4, [r3, #4]
 904 0020 2B68     		ldr	r3, [r5]
 905 0022 9C42     		cmp	r4, r3
 906 0024 01D2     		bcs	.L171
 907 0026 074B     		ldr	r3, .L176+8
 908 0028 00E0     		b	.L175
 909              	.L171:
 910 002a 074B     		ldr	r3, .L176+12
 911              	.L175:
 912 002c 1868     		ldr	r0, [r3]
 913 002e 3968     		ldr	r1, [r7]
 914 0030 0431     		add	r1, r1, #4
 915 0032 FFF7FEFF 		bl	vListInsert
 916              		@ sp needed for prologue
 917 0036 F0BC     		pop	{r4, r5, r6, r7}
 918 0038 01BC     		pop	{r0}
 919 003a 0047     		bx	r0
 920              	.L177:
 921              		.align	2
 922              	.L176:
 923 003c 00000000 		.word	pxCurrentTCB
 924 0040 00000000 		.word	xTickCount
 925 0044 00000000 		.word	pxOverflowDelayedTaskList
 926 0048 00000000 		.word	pxDelayedTaskList
 928              		.section	.text.xTaskRemoveFromEventList,"ax",%progbits
 929              		.align	2
 930              		.global	xTaskRemoveFromEventList
 931              		.code 16
 932              		.thumb_func
 934              	xTaskRemoveFromEventList:
 935 0000 30B5     		push	{r4, r5, lr}
 936 0002 0368     		ldr	r3, [r0]
 937 0004 002B     		cmp	r3, #0
 938 0006 01D1     		bne	.L179
 939 0008 0025     		mov	r5, #0
 940 000a 01E0     		b	.L181
 941              	.L179:
 942 000c C368     		ldr	r3, [r0, #12]
 943 000e DD68     		ldr	r5, [r3, #12]
 944              	.L181:
 945 0010 2C1C     		mov	r4, r5
 946 0012 1834     		add	r4, r4, #24
 947 0014 201C     		mov	r0, r4
 948 0016 FFF7FEFF 		bl	vListRemove
 949 001a 114B     		ldr	r3, .L190
 950 001c 1B68     		ldr	r3, [r3]
 951 001e 002B     		cmp	r3, #0
 952 0020 0FD1     		bne	.L182
 953 0022 2C1D     		add	r4, r5, #4
 954 0024 201C     		mov	r0, r4
 955 0026 FFF7FEFF 		bl	vListRemove
 956 002a 0E49     		ldr	r1, .L190+4
 957 002c EA6A     		ldr	r2, [r5, #44]
 958 002e 0B68     		ldr	r3, [r1]
 959 0030 9A42     		cmp	r2, r3
 960 0032 00D9     		bls	.L184
 961 0034 0A60     		str	r2, [r1]
 962              	.L184:
 963 0036 9000     		lsl	r0, r2, #2
 964 0038 8018     		add	r0, r0, r2
 965 003a 0B4B     		ldr	r3, .L190+8
 966 003c 8000     		lsl	r0, r0, #2
 967 003e C018     		add	r0, r0, r3
 968 0040 00E0     		b	.L189
 969              	.L182:
 970 0042 0A48     		ldr	r0, .L190+12
 971              	.L189:
 972 0044 211C     		mov	r1, r4
 973 0046 FFF7FEFF 		bl	vListInsertEnd
 974 004a 094B     		ldr	r3, .L190+16
 975 004c 1B68     		ldr	r3, [r3]
 976 004e EA6A     		ldr	r2, [r5, #44]
 977 0050 DB6A     		ldr	r3, [r3, #44]
 978 0052 0020     		mov	r0, #0
 979 0054 9A42     		cmp	r2, r3
 980 0056 00D3     		bcc	.L187
 981 0058 0120     		mov	r0, #1
 982              	.L187:
 983              		@ sp needed for prologue
 984 005a 30BC     		pop	{r4, r5}
 985 005c 02BC     		pop	{r1}
 986 005e 0847     		bx	r1
 987              	.L191:
 988              		.align	2
 989              	.L190:
 990 0060 00000000 		.word	uxSchedulerSuspended
 991 0064 00000000 		.word	uxTopReadyPriority
 992 0068 00000000 		.word	pxReadyTasksLists
 993 006c 00000000 		.word	xPendingReadyList
 994 0070 00000000 		.word	pxCurrentTCB
 996              		.section	.text.vTaskSetTimeOutState,"ax",%progbits
 997              		.align	2
 998              		.global	vTaskSetTimeOutState
 999              		.code 16
 1000              		.thumb_func
 1002              	vTaskSetTimeOutState:
 1003 0000 034B     		ldr	r3, .L194
 1004 0002 1B68     		ldr	r3, [r3]
 1005 0004 0360     		str	r3, [r0]
 1006 0006 034B     		ldr	r3, .L194+4
 1007 0008 1B68     		ldr	r3, [r3]
 1008              		@ lr needed for prologue
 1009 000a 4360     		str	r3, [r0, #4]
 1010              		@ sp needed for prologue
 1011 000c 7047     		bx	lr
 1012              	.L195:
 1013 000e 0000     		.align	2
 1014              	.L194:
 1015 0010 00000000 		.word	xNumOfOverflows
 1016 0014 00000000 		.word	xTickCount
 1018              		.section	.text.vTaskMissedYield,"ax",%progbits
 1019              		.align	2
 1020              		.global	vTaskMissedYield
 1021              		.code 16
 1022              		.thumb_func
 1024              	vTaskMissedYield:
 1025 0000 014A     		ldr	r2, .L198
 1026 0002 0123     		mov	r3, #1
 1027              		@ lr needed for prologue
 1028 0004 1360     		str	r3, [r2]
 1029              		@ sp needed for prologue
 1030 0006 7047     		bx	lr
 1031              	.L199:
 1032              		.align	2
 1033              	.L198:
 1034 0008 00000000 		.word	xMissedYield
 1036              		.section	.text.prvIdleTask,"ax",%progbits
 1037              		.align	2
 1038              		.code 16
 1039              		.thumb_func
 1041              	prvIdleTask:
 1042 0000 024A     		ldr	r2, .L211
 1043              		@ lr needed for prologue
 1044              	.L210:
 1045 0002 1368     		ldr	r3, [r2]
 1046 0004 012B     		cmp	r3, #1
 1047 0006 FCD9     		bls	.L210
 1048 0008 00DF     		SWI
 1049              		.code	16
 1050 000a FAE7     		b	.L210
 1051              	.L212:
 1052              		.align	2
 1053              	.L211:
 1054 000c 00000000 		.word	pxReadyTasksLists
 1056              		.section	.bss.uxTaskNumber.3709,"aw",%nobits
 1057              		.align	2
 1060              	uxTaskNumber.3709:
 1061 0000 00000000 		.space	4
 1062              		.section	.text.xTaskCreate,"ax",%progbits
 1063              		.align	2
 1064              		.global	xTaskCreate
 1065              		.code 16
 1066              		.thumb_func
 1068              	xTaskCreate:
 1069 0000 F0B5     		push	{r4, r5, r6, r7, lr}
 1070 0002 84B0     		sub	sp, sp, #16
 1071 0004 0290     		str	r0, [sp, #8]
 1072 0006 1204     		lsl	r2, r2, #16
 1073 0008 4C20     		mov	r0, #76
 1074 000a 0191     		str	r1, [sp, #4]
 1075 000c 0093     		str	r3, [sp]
 1076 000e 099F     		ldr	r7, [sp, #36]
 1077 0010 150C     		lsr	r5, r2, #16
 1078 0012 FFF7FEFF 		bl	pvPortMalloc
 1079 0016 061C     		mov	r6, r0
 1080 0018 0028     		cmp	r0, #0
 1081 001a 09D0     		beq	.L241
 1082 001c AC00     		lsl	r4, r5, #2
 1083 001e 201C     		mov	r0, r4
 1084 0020 FFF7FEFF 		bl	pvPortMalloc
 1085 0024 3063     		str	r0, [r6, #48]
 1086 0026 0028     		cmp	r0, #0
 1087 0028 05D1     		bne	.L217
 1088 002a 301C     		mov	r0, r6
 1089 002c FFF7FEFF 		bl	vPortFree
 1090              	.L241:
 1091 0030 0120     		mov	r0, #1
 1092 0032 4042     		neg	r0, r0
 1093 0034 89E0     		b	.L216
 1094              	.L217:
 1095 0036 A521     		mov	r1, #165
 1096 0038 221C     		mov	r2, r4
 1097 003a FFF7FEFF 		bl	memset
 1098 003e 331C     		mov	r3, r6
 1099 0040 4833     		add	r3, r3, #72
 1100 0042 301C     		mov	r0, r6
 1101 0044 1D80     		strh	r5, [r3]
 1102 0046 1022     		mov	r2, #16
 1103 0048 3830     		add	r0, r0, #56
 1104 004a 0199     		ldr	r1, [sp, #4]
 1105 004c FFF7FEFF 		bl	strncpy
 1106 0050 321C     		mov	r2, r6
 1107 0052 4732     		add	r2, r2, #71
 1108 0054 0023     		mov	r3, #0
 1109 0056 1370     		strb	r3, [r2]
 1110 0058 042F     		cmp	r7, #4
 1111 005a 01D9     		bls	.L219
 1112 005c 0424     		mov	r4, #4
 1113 005e 00E0     		b	.L221
 1114              	.L219:
 1115 0060 3C1C     		mov	r4, r7
 1116              	.L221:
 1117 0062 331D     		add	r3, r6, #4
 1118 0064 181C     		mov	r0, r3
 1119 0066 F462     		str	r4, [r6, #44]
 1120 0068 0393     		str	r3, [sp, #12]
 1121 006a FFF7FEFF 		bl	vListInitialiseItem
 1122 006e 301C     		mov	r0, r6
 1123 0070 1830     		add	r0, r0, #24
 1124 0072 FFF7FEFF 		bl	vListInitialiseItem
 1125 0076 0523     		mov	r3, #5
 1126 0078 1B1B     		sub	r3, r3, r4
 1127 007a B361     		str	r3, [r6, #24]
 1128 007c 3661     		str	r6, [r6, #16]
 1129 007e 7662     		str	r6, [r6, #36]
 1130 0080 331C     		mov	r3, r6
 1131 0082 4833     		add	r3, r3, #72
 1132 0084 1B88     		ldrh	r3, [r3]
 1133 0086 306B     		ldr	r0, [r6, #48]
 1134 0088 9B00     		lsl	r3, r3, #2
 1135 008a C018     		add	r0, r0, r3
 1136 008c 009A     		ldr	r2, [sp]
 1137 008e 0299     		ldr	r1, [sp, #8]
 1138 0090 0438     		sub	r0, r0, #4
 1139 0092 FFF7FEFF 		bl	pxPortInitialiseStack
 1140 0096 3060     		str	r0, [r6]
 1141 0098 FFF7FEFF 		bl	vPortEnterCritical
 1142 009c 2D4A     		ldr	r2, .L242
 1143 009e 1368     		ldr	r3, [r2]
 1144 00a0 0133     		add	r3, r3, #1
 1145 00a2 1360     		str	r3, [r2]
 1146 00a4 1368     		ldr	r3, [r2]
 1147 00a6 012B     		cmp	r3, #1
 1148 00a8 1CD1     		bne	.L222
 1149 00aa 2B4B     		ldr	r3, .L242+4
 1150 00ac 2B4C     		ldr	r4, .L242+8
 1151 00ae 1E60     		str	r6, [r3]
 1152              	.L224:
 1153 00b0 201C     		mov	r0, r4
 1154 00b2 FFF7FEFF 		bl	vListInitialise
 1155 00b6 2A4B     		ldr	r3, .L242+12
 1156 00b8 1434     		add	r4, r4, #20
 1157 00ba 9C42     		cmp	r4, r3
 1158 00bc F8D1     		bne	.L224
 1159 00be 294D     		ldr	r5, .L242+16
 1160 00c0 281C     		mov	r0, r5
 1161 00c2 FFF7FEFF 		bl	vListInitialise
 1162 00c6 284C     		ldr	r4, .L242+20
 1163 00c8 201C     		mov	r0, r4
 1164 00ca FFF7FEFF 		bl	vListInitialise
 1165 00ce 2748     		ldr	r0, .L242+24
 1166 00d0 FFF7FEFF 		bl	vListInitialise
 1167 00d4 2648     		ldr	r0, .L242+28
 1168 00d6 FFF7FEFF 		bl	vListInitialise
 1169 00da 264B     		ldr	r3, .L242+32
 1170 00dc 1D60     		str	r5, [r3]
 1171 00de 264B     		ldr	r3, .L242+36
 1172 00e0 1C60     		str	r4, [r3]
 1173 00e2 09E0     		b	.L226
 1174              	.L222:
 1175 00e4 254B     		ldr	r3, .L242+40
 1176 00e6 1B68     		ldr	r3, [r3]
 1177 00e8 002B     		cmp	r3, #0
 1178 00ea 05D1     		bne	.L226
 1179 00ec 1A4A     		ldr	r2, .L242+4
 1180 00ee 1368     		ldr	r3, [r2]
 1181 00f0 DB6A     		ldr	r3, [r3, #44]
 1182 00f2 BB42     		cmp	r3, r7
 1183 00f4 00D8     		bhi	.L226
 1184 00f6 1660     		str	r6, [r2]
 1185              	.L226:
 1186 00f8 214A     		ldr	r2, .L242+44
 1187 00fa F16A     		ldr	r1, [r6, #44]
 1188 00fc 1368     		ldr	r3, [r2]
 1189 00fe 9942     		cmp	r1, r3
 1190 0100 00D9     		bls	.L229
 1191 0102 1160     		str	r1, [r2]
 1192              	.L229:
 1193 0104 1F4B     		ldr	r3, .L242+48
 1194 0106 1A68     		ldr	r2, [r3]
 1195 0108 7263     		str	r2, [r6, #52]
 1196 010a 0132     		add	r2, r2, #1
 1197 010c 1A60     		str	r2, [r3]
 1198 010e 1E4A     		ldr	r2, .L242+52
 1199 0110 1368     		ldr	r3, [r2]
 1200 0112 9942     		cmp	r1, r3
 1201 0114 00D9     		bls	.L231
 1202 0116 1160     		str	r1, [r2]
 1203              	.L231:
 1204 0118 8800     		lsl	r0, r1, #2
 1205 011a 104B     		ldr	r3, .L242+8
 1206 011c 4018     		add	r0, r0, r1
 1207 011e 8000     		lsl	r0, r0, #2
 1208 0120 C018     		add	r0, r0, r3
 1209 0122 0399     		ldr	r1, [sp, #12]
 1210 0124 FFF7FEFF 		bl	vListInsertEnd
 1211 0128 FFF7FEFF 		bl	vPortExitCritical
 1212 012c 0A9B     		ldr	r3, [sp, #40]
 1213 012e 002B     		cmp	r3, #0
 1214 0130 00D0     		beq	.L233
 1215 0132 1E60     		str	r6, [r3]
 1216              	.L233:
 1217 0134 114B     		ldr	r3, .L242+40
 1218 0136 1B68     		ldr	r3, [r3]
 1219 0138 002B     		cmp	r3, #0
 1220 013a 05D0     		beq	.L235
 1221 013c 064B     		ldr	r3, .L242+4
 1222 013e 1B68     		ldr	r3, [r3]
 1223 0140 DB6A     		ldr	r3, [r3, #44]
 1224 0142 BB42     		cmp	r3, r7
 1225 0144 00D2     		bcs	.L235
 1226 0146 00DF     		SWI
 1227              		.code	16
 1228              	.L235:
 1229 0148 0120     		mov	r0, #1
 1230              	.L216:
 1231 014a 04B0     		add	sp, sp, #16
 1232              		@ sp needed for prologue
 1233 014c F0BC     		pop	{r4, r5, r6, r7}
 1234 014e 02BC     		pop	{r1}
 1235 0150 0847     		bx	r1
 1236              	.L243:
 1237 0152 0000     		.align	2
 1238              	.L242:
 1239 0154 00000000 		.word	uxCurrentNumberOfTasks
 1240 0158 00000000 		.word	pxCurrentTCB
 1241 015c 00000000 		.word	pxReadyTasksLists
 1242 0160 64000000 		.word	pxReadyTasksLists+100
 1243 0164 00000000 		.word	xDelayedTaskList1
 1244 0168 00000000 		.word	xDelayedTaskList2
 1245 016c 00000000 		.word	xPendingReadyList
 1246 0170 00000000 		.word	xSuspendedTaskList
 1247 0174 00000000 		.word	pxDelayedTaskList
 1248 0178 00000000 		.word	pxOverflowDelayedTaskList
 1249 017c 00000000 		.word	xSchedulerRunning
 1250 0180 00000000 		.word	uxTopUsedPriority
 1251 0184 00000000 		.word	uxTaskNumber.3709
 1252 0188 00000000 		.word	uxTopReadyPriority
 1254              		.section	.rodata.str1.4,"aMS",%progbits,1
 1255              		.align	2
 1256              	.LC77:
 1257 0000 49444C45 		.ascii	"IDLE\000"
 1257      00
 1258 0005 000000   		.section	.text.vTaskStartScheduler,"ax",%progbits
 1259              		.align	2
 1260              		.global	vTaskStartScheduler
 1261              		.code 16
 1262              		.thumb_func
 1264              	vTaskStartScheduler:
 1265 0000 30B5     		push	{r4, r5, lr}
 1266 0002 82B0     		sub	sp, sp, #8
 1267 0004 0025     		mov	r5, #0
 1268 0006 0B49     		ldr	r1, .L248
 1269 0008 0B48     		ldr	r0, .L248+4
 1270 000a 6422     		mov	r2, #100
 1271 000c 0023     		mov	r3, #0
 1272 000e 0095     		str	r5, [sp]
 1273 0010 0195     		str	r5, [sp, #4]
 1274 0012 FFF7FEFF 		bl	xTaskCreate
 1275 0016 041C     		mov	r4, r0
 1276 0018 0128     		cmp	r0, #1
 1277 001a 07D1     		bne	.L247
 1278 001c FFF7FEFF 		bl	vPortDisableInterruptsFromThumb
 1279 0020 064B     		ldr	r3, .L248+8
 1280 0022 1C60     		str	r4, [r3]
 1281 0024 064B     		ldr	r3, .L248+12
 1282 0026 1D60     		str	r5, [r3]
 1283 0028 FFF7FEFF 		bl	xPortStartScheduler
 1284              	.L247:
 1285 002c 02B0     		add	sp, sp, #8
 1286              		@ sp needed for prologue
 1287 002e 30BC     		pop	{r4, r5}
 1288 0030 01BC     		pop	{r0}
 1289 0032 0047     		bx	r0
 1290              	.L249:
 1291              		.align	2
 1292              	.L248:
 1293 0034 00000000 		.word	.LC77
 1294 0038 00000000 		.word	prvIdleTask
 1295 003c 00000000 		.word	xSchedulerRunning
 1296 0040 00000000 		.word	xTickCount
 1298              		.section	.text.xTaskCheckForTimeOut,"ax",%progbits
 1299              		.align	2
 1300              		.global	xTaskCheckForTimeOut
 1301              		.code 16
 1302              		.thumb_func
 1304              	xTaskCheckForTimeOut:
 1305 0000 70B5     		push	{r4, r5, r6, lr}
 1306 0002 104E     		ldr	r6, .L257
 1307 0004 0368     		ldr	r3, [r0]
 1308 0006 3268     		ldr	r2, [r6]
 1309 0008 041C     		mov	r4, r0
 1310 000a 0D1C     		mov	r5, r1
 1311 000c 9A42     		cmp	r2, r3
 1312 000e 04D0     		beq	.L251
 1313 0010 0D4B     		ldr	r3, .L257+4
 1314 0012 1A68     		ldr	r2, [r3]
 1315 0014 4368     		ldr	r3, [r0, #4]
 1316 0016 9A42     		cmp	r2, r3
 1317 0018 10D8     		bhi	.L253
 1318              	.L251:
 1319 001a 0B4A     		ldr	r2, .L257+4
 1320 001c 6068     		ldr	r0, [r4, #4]
 1321 001e 1368     		ldr	r3, [r2]
 1322 0020 2968     		ldr	r1, [r5]
 1323 0022 1B1A     		sub	r3, r3, r0
 1324 0024 8B42     		cmp	r3, r1
 1325 0026 09D2     		bcs	.L253
 1326 0028 1368     		ldr	r3, [r2]
 1327 002a 1B1A     		sub	r3, r3, r0
 1328 002c CB1A     		sub	r3, r1, r3
 1329 002e 2B60     		str	r3, [r5]
 1330 0030 3368     		ldr	r3, [r6]
 1331 0032 2360     		str	r3, [r4]
 1332 0034 1368     		ldr	r3, [r2]
 1333 0036 0020     		mov	r0, #0
 1334 0038 6360     		str	r3, [r4, #4]
 1335 003a 00E0     		b	.L255
 1336              	.L253:
 1337 003c 0120     		mov	r0, #1
 1338              	.L255:
 1339              		@ sp needed for prologue
 1340 003e 70BC     		pop	{r4, r5, r6}
 1341 0040 02BC     		pop	{r1}
 1342 0042 0847     		bx	r1
 1343              	.L258:
 1344              		.align	2
 1345              	.L257:
 1346 0044 00000000 		.word	xNumOfOverflows
 1347 0048 00000000 		.word	xTickCount
 1349              		.section	.bss.xSuspendedTaskList,"aw",%nobits
 1350              		.align	2
 1353              	xSuspendedTaskList:
 1354 0000 00000000 		.space	20
 1354      00000000 
 1354      00000000 
 1354      00000000 
 1354      00000000 
 1355              		.section	.bss.xPendingReadyList,"aw",%nobits
 1356              		.align	2
 1359              	xPendingReadyList:
 1360 0000 00000000 		.space	20
 1360      00000000 
 1360      00000000 
 1360      00000000 
 1360      00000000 
 1361              		.section	.bss.pxOverflowDelayedTaskList,"aw",%nobits
 1362              		.align	2
 1365              	pxOverflowDelayedTaskList:
 1366 0000 00000000 		.space	4
 1367              		.section	.bss.pxDelayedTaskList,"aw",%nobits
 1368              		.align	2
 1371              	pxDelayedTaskList:
 1372 0000 00000000 		.space	4
 1373              		.section	.bss.xDelayedTaskList2,"aw",%nobits
 1374              		.align	2
 1377              	xDelayedTaskList2:
 1378 0000 00000000 		.space	20
 1378      00000000 
 1378      00000000 
 1378      00000000 
 1378      00000000 
 1379              		.section	.bss.xDelayedTaskList1,"aw",%nobits
 1380              		.align	2
 1383              	xDelayedTaskList1:
 1384 0000 00000000 		.space	20
 1384      00000000 
 1384      00000000 
 1384      00000000 
 1384      00000000 
 1385              		.section	.bss.pxReadyTasksLists,"aw",%nobits
 1386              		.align	2
 1389              	pxReadyTasksLists:
 1390 0000 00000000 		.space	100
 1390      00000000 
 1390      00000000 
 1390      00000000 
 1390      00000000 
 1391              		.ident	"GCC: (GNU) 4.0.2"
DEFINED SYMBOLS
                            *ABS*:00000000 tasks.c
/cygdrive/c/Users/brent/AppData/Local/Temp/ccOJK9uT.s:1      .text:00000000 $t
/cygdrive/c/Users/brent/AppData/Local/Temp/ccOJK9uT.s:8      .bss.pxCurrentTCB:00000000 pxCurrentTCB
/cygdrive/c/Users/brent/AppData/Local/Temp/ccOJK9uT.s:14     .bss.xMissedYield:00000000 xMissedYield
/cygdrive/c/Users/brent/AppData/Local/Temp/ccOJK9uT.s:20     .bss.xTickCount:00000000 xTickCount
/cygdrive/c/Users/brent/AppData/Local/Temp/ccOJK9uT.s:26     .bss.xNumOfOverflows:00000000 xNumOfOverflows
/cygdrive/c/Users/brent/AppData/Local/Temp/ccOJK9uT.s:32     .bss.uxTopReadyPriority:00000000 uxTopReadyPriority
/cygdrive/c/Users/brent/AppData/Local/Temp/ccOJK9uT.s:38     .bss.uxSchedulerSuspended:00000000 uxSchedulerSuspended
/cygdrive/c/Users/brent/AppData/Local/Temp/ccOJK9uT.s:44     .bss.uxMissedTicks:00000000 uxMissedTicks
/cygdrive/c/Users/brent/AppData/Local/Temp/ccOJK9uT.s:50     .bss.uxCurrentNumberOfTasks:00000000 uxCurrentNumberOfTasks
/cygdrive/c/Users/brent/AppData/Local/Temp/ccOJK9uT.s:56     .bss.xSchedulerRunning:00000000 xSchedulerRunning
/cygdrive/c/Users/brent/AppData/Local/Temp/ccOJK9uT.s:62     .bss.uxTopUsedPriority:00000000 uxTopUsedPriority
/cygdrive/c/Users/brent/AppData/Local/Temp/ccOJK9uT.s:70     .text.vTaskSuspendAll:00000000 vTaskSuspendAll
/cygdrive/c/Users/brent/AppData/Local/Temp/ccOJK9uT.s:67     .text.vTaskSuspendAll:00000000 $t
/cygdrive/c/Users/brent/AppData/Local/Temp/ccOJK9uT.s:84     .text.vTaskSuspendAll:00000018 $d
/cygdrive/c/Users/brent/AppData/Local/Temp/ccOJK9uT.s:92     .text.uxTaskPriorityGet:00000000 uxTaskPriorityGet
/cygdrive/c/Users/brent/AppData/Local/Temp/ccOJK9uT.s:89     .text.uxTaskPriorityGet:00000000 $t
/cygdrive/c/Users/brent/AppData/Local/Temp/ccOJK9uT.s:114    .text.uxTaskPriorityGet:00000024 $d
/cygdrive/c/Users/brent/AppData/Local/Temp/ccOJK9uT.s:122    .text.vTaskPrioritySet:00000000 vTaskPrioritySet
/cygdrive/c/Users/brent/AppData/Local/Temp/ccOJK9uT.s:119    .text.vTaskPrioritySet:00000000 $t
/cygdrive/c/Users/brent/AppData/Local/Temp/ccOJK9uT.s:201    .text.vTaskPrioritySet:00000088 $d
/cygdrive/c/Users/brent/AppData/Local/Temp/ccOJK9uT.s:1389   .bss.pxReadyTasksLists:00000000 pxReadyTasksLists
/cygdrive/c/Users/brent/AppData/Local/Temp/ccOJK9uT.s:211    .text.vTaskSuspend:00000000 vTaskSuspend
/cygdrive/c/Users/brent/AppData/Local/Temp/ccOJK9uT.s:208    .text.vTaskSuspend:00000000 $t
/cygdrive/c/Users/brent/AppData/Local/Temp/ccOJK9uT.s:257    .text.vTaskSuspend:00000050 $d
/cygdrive/c/Users/brent/AppData/Local/Temp/ccOJK9uT.s:1353   .bss.xSuspendedTaskList:00000000 xSuspendedTaskList
/cygdrive/c/Users/brent/AppData/Local/Temp/ccOJK9uT.s:266    .text.vTaskResume:00000000 vTaskResume
/cygdrive/c/Users/brent/AppData/Local/Temp/ccOJK9uT.s:263    .text.vTaskResume:00000000 $t
/cygdrive/c/Users/brent/AppData/Local/Temp/ccOJK9uT.s:315    .text.vTaskResume:00000058 $d
/cygdrive/c/Users/brent/AppData/Local/Temp/ccOJK9uT.s:1359   .bss.xPendingReadyList:00000000 xPendingReadyList
/cygdrive/c/Users/brent/AppData/Local/Temp/ccOJK9uT.s:327    .text.xTaskResumeFromISR:00000000 xTaskResumeFromISR
/cygdrive/c/Users/brent/AppData/Local/Temp/ccOJK9uT.s:324    .text.xTaskResumeFromISR:00000000 $t
/cygdrive/c/Users/brent/AppData/Local/Temp/ccOJK9uT.s:384    .text.xTaskResumeFromISR:00000064 $d
/cygdrive/c/Users/brent/AppData/Local/Temp/ccOJK9uT.s:397    .text.vTaskEndScheduler:00000000 vTaskEndScheduler
/cygdrive/c/Users/brent/AppData/Local/Temp/ccOJK9uT.s:394    .text.vTaskEndScheduler:00000000 $t
/cygdrive/c/Users/brent/AppData/Local/Temp/ccOJK9uT.s:410    .text.vTaskEndScheduler:00000014 $d
/cygdrive/c/Users/brent/AppData/Local/Temp/ccOJK9uT.s:418    .text.vTaskIncrementTick:00000000 vTaskIncrementTick
/cygdrive/c/Users/brent/AppData/Local/Temp/ccOJK9uT.s:415    .text.vTaskIncrementTick:00000000 $t
/cygdrive/c/Users/brent/AppData/Local/Temp/ccOJK9uT.s:497    .text.vTaskIncrementTick:00000090 $d
/cygdrive/c/Users/brent/AppData/Local/Temp/ccOJK9uT.s:1365   .bss.pxOverflowDelayedTaskList:00000000 pxOverflowDelayedTaskList
/cygdrive/c/Users/brent/AppData/Local/Temp/ccOJK9uT.s:1371   .bss.pxDelayedTaskList:00000000 pxDelayedTaskList
/cygdrive/c/Users/brent/AppData/Local/Temp/ccOJK9uT.s:512    .text.xTaskResumeAll:00000000 xTaskResumeAll
/cygdrive/c/Users/brent/AppData/Local/Temp/ccOJK9uT.s:509    .text.xTaskResumeAll:00000000 $t
/cygdrive/c/Users/brent/AppData/Local/Temp/ccOJK9uT.s:609    .text.xTaskResumeAll:000000b0 $d
/cygdrive/c/Users/brent/AppData/Local/Temp/ccOJK9uT.s:624    .text.vTaskDelay:00000000 vTaskDelay
/cygdrive/c/Users/brent/AppData/Local/Temp/ccOJK9uT.s:621    .text.vTaskDelay:00000000 $t
/cygdrive/c/Users/brent/AppData/Local/Temp/ccOJK9uT.s:665    .text.vTaskDelay:00000048 $d
/cygdrive/c/Users/brent/AppData/Local/Temp/ccOJK9uT.s:676    .text.vTaskDelayUntil:00000000 vTaskDelayUntil
/cygdrive/c/Users/brent/AppData/Local/Temp/ccOJK9uT.s:673    .text.vTaskDelayUntil:00000000 $t
/cygdrive/c/Users/brent/AppData/Local/Temp/ccOJK9uT.s:739    .text.vTaskDelayUntil:00000068 $d
/cygdrive/c/Users/brent/AppData/Local/Temp/ccOJK9uT.s:750    .text.xTaskGetTickCount:00000000 xTaskGetTickCount
/cygdrive/c/Users/brent/AppData/Local/Temp/ccOJK9uT.s:747    .text.xTaskGetTickCount:00000000 $t
/cygdrive/c/Users/brent/AppData/Local/Temp/ccOJK9uT.s:764    .text.xTaskGetTickCount:00000018 $d
/cygdrive/c/Users/brent/AppData/Local/Temp/ccOJK9uT.s:772    .text.uxTaskGetNumberOfTasks:00000000 uxTaskGetNumberOfTasks
/cygdrive/c/Users/brent/AppData/Local/Temp/ccOJK9uT.s:769    .text.uxTaskGetNumberOfTasks:00000000 $t
/cygdrive/c/Users/brent/AppData/Local/Temp/ccOJK9uT.s:786    .text.uxTaskGetNumberOfTasks:00000018 $d
/cygdrive/c/Users/brent/AppData/Local/Temp/ccOJK9uT.s:794    .text.vTaskSwitchContext:00000000 vTaskSwitchContext
/cygdrive/c/Users/brent/AppData/Local/Temp/ccOJK9uT.s:791    .text.vTaskSwitchContext:00000000 $t
/cygdrive/c/Users/brent/AppData/Local/Temp/ccOJK9uT.s:877    .text.vTaskSwitchContext:00000094 $d
/cygdrive/c/Users/brent/AppData/Local/Temp/ccOJK9uT.s:889    .text.vTaskPlaceOnEventList:00000000 vTaskPlaceOnEventList
/cygdrive/c/Users/brent/AppData/Local/Temp/ccOJK9uT.s:886    .text.vTaskPlaceOnEventList:00000000 $t
/cygdrive/c/Users/brent/AppData/Local/Temp/ccOJK9uT.s:923    .text.vTaskPlaceOnEventList:0000003c $d
/cygdrive/c/Users/brent/AppData/Local/Temp/ccOJK9uT.s:934    .text.xTaskRemoveFromEventList:00000000 xTaskRemoveFromEventList
/cygdrive/c/Users/brent/AppData/Local/Temp/ccOJK9uT.s:931    .text.xTaskRemoveFromEventList:00000000 $t
/cygdrive/c/Users/brent/AppData/Local/Temp/ccOJK9uT.s:990    .text.xTaskRemoveFromEventList:00000060 $d
/cygdrive/c/Users/brent/AppData/Local/Temp/ccOJK9uT.s:1002   .text.vTaskSetTimeOutState:00000000 vTaskSetTimeOutState
/cygdrive/c/Users/brent/AppData/Local/Temp/ccOJK9uT.s:999    .text.vTaskSetTimeOutState:00000000 $t
/cygdrive/c/Users/brent/AppData/Local/Temp/ccOJK9uT.s:1015   .text.vTaskSetTimeOutState:00000010 $d
/cygdrive/c/Users/brent/AppData/Local/Temp/ccOJK9uT.s:1024   .text.vTaskMissedYield:00000000 vTaskMissedYield
/cygdrive/c/Users/brent/AppData/Local/Temp/ccOJK9uT.s:1021   .text.vTaskMissedYield:00000000 $t
/cygdrive/c/Users/brent/AppData/Local/Temp/ccOJK9uT.s:1034   .text.vTaskMissedYield:00000008 $d
/cygdrive/c/Users/brent/AppData/Local/Temp/ccOJK9uT.s:1038   .text.prvIdleTask:00000000 $t
/cygdrive/c/Users/brent/AppData/Local/Temp/ccOJK9uT.s:1041   .text.prvIdleTask:00000000 prvIdleTask
/cygdrive/c/Users/brent/AppData/Local/Temp/ccOJK9uT.s:1054   .text.prvIdleTask:0000000c $d
/cygdrive/c/Users/brent/AppData/Local/Temp/ccOJK9uT.s:1060   .bss.uxTaskNumber.3709:00000000 uxTaskNumber.3709
/cygdrive/c/Users/brent/AppData/Local/Temp/ccOJK9uT.s:1068   .text.xTaskCreate:00000000 xTaskCreate
/cygdrive/c/Users/brent/AppData/Local/Temp/ccOJK9uT.s:1065   .text.xTaskCreate:00000000 $t
/cygdrive/c/Users/brent/AppData/Local/Temp/ccOJK9uT.s:1239   .text.xTaskCreate:00000154 $d
/cygdrive/c/Users/brent/AppData/Local/Temp/ccOJK9uT.s:1383   .bss.xDelayedTaskList1:00000000 xDelayedTaskList1
/cygdrive/c/Users/brent/AppData/Local/Temp/ccOJK9uT.s:1377   .bss.xDelayedTaskList2:00000000 xDelayedTaskList2
/cygdrive/c/Users/brent/AppData/Local/Temp/ccOJK9uT.s:1264   .text.vTaskStartScheduler:00000000 vTaskStartScheduler
/cygdrive/c/Users/brent/AppData/Local/Temp/ccOJK9uT.s:1261   .text.vTaskStartScheduler:00000000 $t
/cygdrive/c/Users/brent/AppData/Local/Temp/ccOJK9uT.s:1293   .text.vTaskStartScheduler:00000034 $d
/cygdrive/c/Users/brent/AppData/Local/Temp/ccOJK9uT.s:1304   .text.xTaskCheckForTimeOut:00000000 xTaskCheckForTimeOut
/cygdrive/c/Users/brent/AppData/Local/Temp/ccOJK9uT.s:1301   .text.xTaskCheckForTimeOut:00000000 $t
/cygdrive/c/Users/brent/AppData/Local/Temp/ccOJK9uT.s:1346   .text.xTaskCheckForTimeOut:00000044 $d

UNDEFINED SYMBOLS
vPortEnterCritical
vPortExitCritical
vListRemove
vListInsertEnd
vPortDisableInterruptsFromThumb
vPortEndScheduler
vListInsert
pvPortMalloc
vPortFree
memset
strncpy
vListInitialiseItem
pxPortInitialiseStack
vListInitialise
xPortStartScheduler
