   1              		.code	16
   2              		.file	"lib_AT91SAM7S256.c"
   3              		.section	.text.AT91F_AIC_ConfigureIt,"ax",%progbits
   4              		.align	2
   5              		.global	AT91F_AIC_ConfigureIt
   6              		.code 16
   7              		.thumb_func
   9              	AT91F_AIC_ConfigureIt:
  10 0000 F0B5     		push	{r4, r5, r6, r7, lr}
  11 0002 8D00     		lsl	r5, r1, #2
  12 0004 2D18     		add	r5, r5, r0
  13 0006 2E1D     		add	r6, r5, #4
  14 0008 F46F     		ldr	r4, [r6, #124]
  15 000a 059F     		ldr	r7, [sp, #20]
  16 000c A446     		mov	ip, r4
  17 000e 0124     		mov	r4, #1
  18 0010 8C40     		lsl	r4, r4, r1
  19 0012 FC30     		add	r0, r0, #252
  20 0014 1343     		orr	r3, r3, r2
  21 0016 8462     		str	r4, [r0, #40]
  22 0018 F767     		str	r7, [r6, #124]
  23 001a 2B60     		str	r3, [r5]
  24 001c C462     		str	r4, [r0, #44]
  25 001e 6046     		mov	r0, ip
  26              		@ sp needed for prologue
  27 0020 F0BC     		pop	{r4, r5, r6, r7}
  28 0022 02BC     		pop	{r1}
  29 0024 0847     		bx	r1
  31 0026 C046     		.section	.text.AT91F_AIC_EnableIt,"ax",%progbits
  32              		.align	2
  33              		.global	AT91F_AIC_EnableIt
  34              		.code 16
  35              		.thumb_func
  37              	AT91F_AIC_EnableIt:
  38 0000 0123     		mov	r3, #1
  39 0002 8B40     		lsl	r3, r3, r1
  40 0004 FC30     		add	r0, r0, #252
  41              		@ lr needed for prologue
  42 0006 4362     		str	r3, [r0, #36]
  43              		@ sp needed for prologue
  44 0008 7047     		bx	lr
  46 000a C046     		.section	.text.AT91F_AIC_DisableIt,"ax",%progbits
  47              		.align	2
  48              		.global	AT91F_AIC_DisableIt
  49              		.code 16
  50              		.thumb_func
  52              	AT91F_AIC_DisableIt:
  53 0000 0123     		mov	r3, #1
  54 0002 8B40     		lsl	r3, r3, r1
  55 0004 FC30     		add	r0, r0, #252
  56 0006 8362     		str	r3, [r0, #40]
  57              		@ lr needed for prologue
  58 0008 C362     		str	r3, [r0, #44]
  59              		@ sp needed for prologue
  60 000a 7047     		bx	lr
  62              		.section	.text.AT91F_AIC_ClearIt,"ax",%progbits
  63              		.align	2
  64              		.global	AT91F_AIC_ClearIt
  65              		.code 16
  66              		.thumb_func
  68              	AT91F_AIC_ClearIt:
  69 0000 0123     		mov	r3, #1
  70 0002 8B40     		lsl	r3, r3, r1
  71 0004 FC30     		add	r0, r0, #252
  72              		@ lr needed for prologue
  73 0006 C362     		str	r3, [r0, #44]
  74              		@ sp needed for prologue
  75 0008 7047     		bx	lr
  77 000a C046     		.section	.text.AT91F_AIC_AcknowledgeIt,"ax",%progbits
  78              		.align	2
  79              		.global	AT91F_AIC_AcknowledgeIt
  80              		.code 16
  81              		.thumb_func
  83              	AT91F_AIC_AcknowledgeIt:
  84 0000 FC30     		add	r0, r0, #252
  85 0002 436B     		ldr	r3, [r0, #52]
  86              		@ lr needed for prologue
  87 0004 4363     		str	r3, [r0, #52]
  88              		@ sp needed for prologue
  89 0006 7047     		bx	lr
  91              		.section	.text.AT91F_AIC_SetExceptionVector,"ax",%progbits
  92              		.align	2
  93              		.global	AT91F_AIC_SetExceptionVector
  94              		.code 16
  95              		.thumb_func
  97              	AT91F_AIC_SetExceptionVector:
  98 0000 10B5     		push	{r4, lr}
  99 0002 094B     		ldr	r3, .L16
 100 0004 0468     		ldr	r4, [r0]
 101 0006 9942     		cmp	r1, r3
 102 0008 01D1     		bne	.L12
 103 000a 0160     		str	r1, [r0]
 104 000c 07E0     		b	.L14
 105              	.L12:
 106 000e 0B1A     		sub	r3, r1, r0
 107 0010 083B     		sub	r3, r3, #8
 108 0012 9B01     		lsl	r3, r3, #6
 109 0014 EA22     		mov	r2, #234
 110 0016 1B0A     		lsr	r3, r3, #8
 111 0018 1206     		lsl	r2, r2, #24
 112 001a 1343     		orr	r3, r3, r2
 113 001c 0360     		str	r3, [r0]
 114              	.L14:
 115 001e 201C     		mov	r0, r4
 116              		@ sp needed for prologue
 117 0020 10BC     		pop	{r4}
 118 0022 02BC     		pop	{r1}
 119 0024 0847     		bx	r1
 120              	.L17:
 121 0026 0000     		.align	2
 122              	.L16:
 123 0028 20FF1FE5 		.word	-450887904
 125              		.section	.text.AT91F_AIC_Trig,"ax",%progbits
 126              		.align	2
 127              		.global	AT91F_AIC_Trig
 128              		.code 16
 129              		.thumb_func
 131              	AT91F_AIC_Trig:
 132 0000 0123     		mov	r3, #1
 133 0002 8B40     		lsl	r3, r3, r1
 134 0004 FC30     		add	r0, r0, #252
 135              		@ lr needed for prologue
 136 0006 0363     		str	r3, [r0, #48]
 137              		@ sp needed for prologue
 138 0008 7047     		bx	lr
 140 000a C046     		.section	.text.AT91F_AIC_IsActive,"ax",%progbits
 141              		.align	2
 142              		.global	AT91F_AIC_IsActive
 143              		.code 16
 144              		.thumb_func
 146              	AT91F_AIC_IsActive:
 147 0000 FC30     		add	r0, r0, #252
 148 0002 C068     		ldr	r0, [r0, #12]
 149 0004 0123     		mov	r3, #1
 150 0006 8B40     		lsl	r3, r3, r1
 151 0008 1840     		and	r0, r0, r3
 152              		@ lr needed for prologue
 153              		@ sp needed for prologue
 154 000a 7047     		bx	lr
 156              		.section	.text.AT91F_AIC_IsPending,"ax",%progbits
 157              		.align	2
 158              		.global	AT91F_AIC_IsPending
 159              		.code 16
 160              		.thumb_func
 162              	AT91F_AIC_IsPending:
 163 0000 FC30     		add	r0, r0, #252
 164 0002 0069     		ldr	r0, [r0, #16]
 165 0004 0123     		mov	r3, #1
 166 0006 8B40     		lsl	r3, r3, r1
 167 0008 1840     		and	r0, r0, r3
 168              		@ lr needed for prologue
 169              		@ sp needed for prologue
 170 000a 7047     		bx	lr
 172              		.section	.text.AT91F_PDC_SetNextRx,"ax",%progbits
 173              		.align	2
 174              		.global	AT91F_PDC_SetNextRx
 175              		.code 16
 176              		.thumb_func
 178              	AT91F_PDC_SetNextRx:
 179 0000 0161     		str	r1, [r0, #16]
 180              		@ lr needed for prologue
 181 0002 4261     		str	r2, [r0, #20]
 182              		@ sp needed for prologue
 183 0004 7047     		bx	lr
 185 0006 C046     		.section	.text.AT91F_PDC_SetNextTx,"ax",%progbits
 186              		.align	2
 187              		.global	AT91F_PDC_SetNextTx
 188              		.code 16
 189              		.thumb_func
 191              	AT91F_PDC_SetNextTx:
 192 0000 8161     		str	r1, [r0, #24]
 193              		@ lr needed for prologue
 194 0002 C261     		str	r2, [r0, #28]
 195              		@ sp needed for prologue
 196 0004 7047     		bx	lr
 198 0006 C046     		.section	.text.AT91F_PDC_SetRx,"ax",%progbits
 199              		.align	2
 200              		.global	AT91F_PDC_SetRx
 201              		.code 16
 202              		.thumb_func
 204              	AT91F_PDC_SetRx:
 205 0000 0160     		str	r1, [r0]
 206              		@ lr needed for prologue
 207 0002 4260     		str	r2, [r0, #4]
 208              		@ sp needed for prologue
 209 0004 7047     		bx	lr
 211 0006 C046     		.section	.text.AT91F_PDC_SetTx,"ax",%progbits
 212              		.align	2
 213              		.global	AT91F_PDC_SetTx
 214              		.code 16
 215              		.thumb_func
 217              	AT91F_PDC_SetTx:
 218 0000 8160     		str	r1, [r0, #8]
 219              		@ lr needed for prologue
 220 0002 C260     		str	r2, [r0, #12]
 221              		@ sp needed for prologue
 222 0004 7047     		bx	lr
 224 0006 C046     		.section	.text.AT91F_PDC_EnableTx,"ax",%progbits
 225              		.align	2
 226              		.global	AT91F_PDC_EnableTx
 227              		.code 16
 228              		.thumb_func
 230              	AT91F_PDC_EnableTx:
 231 0000 8023     		mov	r3, #128
 232 0002 5B00     		lsl	r3, r3, #1
 233              		@ lr needed for prologue
 234 0004 0362     		str	r3, [r0, #32]
 235              		@ sp needed for prologue
 236 0006 7047     		bx	lr
 238              		.section	.text.AT91F_PDC_EnableRx,"ax",%progbits
 239              		.align	2
 240              		.global	AT91F_PDC_EnableRx
 241              		.code 16
 242              		.thumb_func
 244              	AT91F_PDC_EnableRx:
 245 0000 0123     		mov	r3, #1
 246              		@ lr needed for prologue
 247 0002 0362     		str	r3, [r0, #32]
 248              		@ sp needed for prologue
 249 0004 7047     		bx	lr
 251 0006 C046     		.section	.text.AT91F_PDC_DisableTx,"ax",%progbits
 252              		.align	2
 253              		.global	AT91F_PDC_DisableTx
 254              		.code 16
 255              		.thumb_func
 257              	AT91F_PDC_DisableTx:
 258 0000 8023     		mov	r3, #128
 259 0002 9B00     		lsl	r3, r3, #2
 260              		@ lr needed for prologue
 261 0004 0362     		str	r3, [r0, #32]
 262              		@ sp needed for prologue
 263 0006 7047     		bx	lr
 265              		.section	.text.AT91F_PDC_DisableRx,"ax",%progbits
 266              		.align	2
 267              		.global	AT91F_PDC_DisableRx
 268              		.code 16
 269              		.thumb_func
 271              	AT91F_PDC_DisableRx:
 272 0000 0223     		mov	r3, #2
 273              		@ lr needed for prologue
 274 0002 0362     		str	r3, [r0, #32]
 275              		@ sp needed for prologue
 276 0004 7047     		bx	lr
 278 0006 C046     		.section	.text.AT91F_PDC_IsTxEmpty,"ax",%progbits
 279              		.align	2
 280              		.global	AT91F_PDC_IsTxEmpty
 281              		.code 16
 282              		.thumb_func
 284              	AT91F_PDC_IsTxEmpty:
 285 0000 C368     		ldr	r3, [r0, #12]
 286              		@ lr needed for prologue
 287 0002 0020     		mov	r0, #0
 288 0004 002B     		cmp	r3, #0
 289 0006 00D1     		bne	.L41
 290 0008 0120     		mov	r0, #1
 291              	.L41:
 292              		@ sp needed for prologue
 293 000a 7047     		bx	lr
 295              		.section	.text.AT91F_PDC_IsNextTxEmpty,"ax",%progbits
 296              		.align	2
 297              		.global	AT91F_PDC_IsNextTxEmpty
 298              		.code 16
 299              		.thumb_func
 301              	AT91F_PDC_IsNextTxEmpty:
 302 0000 C369     		ldr	r3, [r0, #28]
 303              		@ lr needed for prologue
 304 0002 0020     		mov	r0, #0
 305 0004 002B     		cmp	r3, #0
 306 0006 00D1     		bne	.L44
 307 0008 0120     		mov	r0, #1
 308              	.L44:
 309              		@ sp needed for prologue
 310 000a 7047     		bx	lr
 312              		.section	.text.AT91F_PDC_IsRxEmpty,"ax",%progbits
 313              		.align	2
 314              		.global	AT91F_PDC_IsRxEmpty
 315              		.code 16
 316              		.thumb_func
 318              	AT91F_PDC_IsRxEmpty:
 319 0000 4368     		ldr	r3, [r0, #4]
 320              		@ lr needed for prologue
 321 0002 0020     		mov	r0, #0
 322 0004 002B     		cmp	r3, #0
 323 0006 00D1     		bne	.L47
 324 0008 0120     		mov	r0, #1
 325              	.L47:
 326              		@ sp needed for prologue
 327 000a 7047     		bx	lr
 329              		.section	.text.AT91F_PDC_IsNextRxEmpty,"ax",%progbits
 330              		.align	2
 331              		.global	AT91F_PDC_IsNextRxEmpty
 332              		.code 16
 333              		.thumb_func
 335              	AT91F_PDC_IsNextRxEmpty:
 336 0000 4369     		ldr	r3, [r0, #20]
 337              		@ lr needed for prologue
 338 0002 0020     		mov	r0, #0
 339 0004 002B     		cmp	r3, #0
 340 0006 00D1     		bne	.L50
 341 0008 0120     		mov	r0, #1
 342              	.L50:
 343              		@ sp needed for prologue
 344 000a 7047     		bx	lr
 346              		.section	.text.AT91F_DBGU_InterruptEnable,"ax",%progbits
 347              		.align	2
 348              		.global	AT91F_DBGU_InterruptEnable
 349              		.code 16
 350              		.thumb_func
 352              	AT91F_DBGU_InterruptEnable:
 353              		@ lr needed for prologue
 354 0000 8160     		str	r1, [r0, #8]
 355              		@ sp needed for prologue
 356 0002 7047     		bx	lr
 358              		.section	.text.AT91F_DBGU_InterruptDisable,"ax",%progbits
 359              		.align	2
 360              		.global	AT91F_DBGU_InterruptDisable
 361              		.code 16
 362              		.thumb_func
 364              	AT91F_DBGU_InterruptDisable:
 365              		@ lr needed for prologue
 366 0000 C160     		str	r1, [r0, #12]
 367              		@ sp needed for prologue
 368 0002 7047     		bx	lr
 370              		.section	.text.AT91F_DBGU_GetInterruptMaskStatus,"ax",%progbits
 371              		.align	2
 372              		.global	AT91F_DBGU_GetInterruptMaskStatus
 373              		.code 16
 374              		.thumb_func
 376              	AT91F_DBGU_GetInterruptMaskStatus:
 377 0000 0069     		ldr	r0, [r0, #16]
 378              		@ lr needed for prologue
 379              		@ sp needed for prologue
 380 0002 7047     		bx	lr
 382              		.section	.text.AT91F_PIO_CfgPeriph,"ax",%progbits
 383              		.align	2
 384              		.global	AT91F_PIO_CfgPeriph
 385              		.code 16
 386              		.thumb_func
 388              	AT91F_PIO_CfgPeriph:
 389 0000 0167     		str	r1, [r0, #112]
 390 0002 1143     		orr	r1, r1, r2
 391 0004 4267     		str	r2, [r0, #116]
 392              		@ lr needed for prologue
 393 0006 4160     		str	r1, [r0, #4]
 394              		@ sp needed for prologue
 395 0008 7047     		bx	lr
 397 000a C046     		.section	.text.AT91F_PIO_CfgOutput,"ax",%progbits
 398              		.align	2
 399              		.global	AT91F_PIO_CfgOutput
 400              		.code 16
 401              		.thumb_func
 403              	AT91F_PIO_CfgOutput:
 404 0000 0160     		str	r1, [r0]
 405              		@ lr needed for prologue
 406 0002 0161     		str	r1, [r0, #16]
 407              		@ sp needed for prologue
 408 0004 7047     		bx	lr
 410 0006 C046     		.section	.text.AT91F_PIO_CfgInput,"ax",%progbits
 411              		.align	2
 412              		.global	AT91F_PIO_CfgInput
 413              		.code 16
 414              		.thumb_func
 416              	AT91F_PIO_CfgInput:
 417 0000 4161     		str	r1, [r0, #20]
 418              		@ lr needed for prologue
 419 0002 0160     		str	r1, [r0]
 420              		@ sp needed for prologue
 421 0004 7047     		bx	lr
 423 0006 C046     		.section	.text.AT91F_PIO_CfgOpendrain,"ax",%progbits
 424              		.align	2
 425              		.global	AT91F_PIO_CfgOpendrain
 426              		.code 16
 427              		.thumb_func
 429              	AT91F_PIO_CfgOpendrain:
 430 0000 CB43     		mvn	r3, r1
 431 0002 4365     		str	r3, [r0, #84]
 432              		@ lr needed for prologue
 433 0004 0165     		str	r1, [r0, #80]
 434              		@ sp needed for prologue
 435 0006 7047     		bx	lr
 437              		.section	.text.AT91F_PIO_CfgPullup,"ax",%progbits
 438              		.align	2
 439              		.global	AT91F_PIO_CfgPullup
 440              		.code 16
 441              		.thumb_func
 443              	AT91F_PIO_CfgPullup:
 444 0000 CB43     		mvn	r3, r1
 445 0002 0366     		str	r3, [r0, #96]
 446              		@ lr needed for prologue
 447 0004 4166     		str	r1, [r0, #100]
 448              		@ sp needed for prologue
 449 0006 7047     		bx	lr
 451              		.section	.text.AT91F_PIO_CfgDirectDrive,"ax",%progbits
 452              		.align	2
 453              		.global	AT91F_PIO_CfgDirectDrive
 454              		.code 16
 455              		.thumb_func
 457              	AT91F_PIO_CfgDirectDrive:
 458 0000 031C     		mov	r3, r0
 459 0002 CA43     		mvn	r2, r1
 460 0004 A433     		add	r3, r3, #164
 461 0006 A030     		add	r0, r0, #160
 462 0008 1A60     		str	r2, [r3]
 463              		@ lr needed for prologue
 464 000a 0160     		str	r1, [r0]
 465              		@ sp needed for prologue
 466 000c 7047     		bx	lr
 468 000e C046     		.section	.text.AT91F_PIO_CfgInputFilter,"ax",%progbits
 469              		.align	2
 470              		.global	AT91F_PIO_CfgInputFilter
 471              		.code 16
 472              		.thumb_func
 474              	AT91F_PIO_CfgInputFilter:
 475 0000 CB43     		mvn	r3, r1
 476 0002 4362     		str	r3, [r0, #36]
 477              		@ lr needed for prologue
 478 0004 0162     		str	r1, [r0, #32]
 479              		@ sp needed for prologue
 480 0006 7047     		bx	lr
 482              		.section	.text.AT91F_PIO_GetInput,"ax",%progbits
 483              		.align	2
 484              		.global	AT91F_PIO_GetInput
 485              		.code 16
 486              		.thumb_func
 488              	AT91F_PIO_GetInput:
 489 0000 C06B     		ldr	r0, [r0, #60]
 490              		@ lr needed for prologue
 491              		@ sp needed for prologue
 492 0002 7047     		bx	lr
 494              		.section	.text.AT91F_PIO_SetOutput,"ax",%progbits
 495              		.align	2
 496              		.global	AT91F_PIO_SetOutput
 497              		.code 16
 498              		.thumb_func
 500              	AT91F_PIO_SetOutput:
 501              		@ lr needed for prologue
 502 0000 0163     		str	r1, [r0, #48]
 503              		@ sp needed for prologue
 504 0002 7047     		bx	lr
 506              		.section	.text.AT91F_PIO_ClearOutput,"ax",%progbits
 507              		.align	2
 508              		.global	AT91F_PIO_ClearOutput
 509              		.code 16
 510              		.thumb_func
 512              	AT91F_PIO_ClearOutput:
 513              		@ lr needed for prologue
 514 0000 4163     		str	r1, [r0, #52]
 515              		@ sp needed for prologue
 516 0002 7047     		bx	lr
 518              		.section	.text.AT91F_PIO_ForceOutput,"ax",%progbits
 519              		.align	2
 520              		.global	AT91F_PIO_ForceOutput
 521              		.code 16
 522              		.thumb_func
 524              	AT91F_PIO_ForceOutput:
 525              		@ lr needed for prologue
 526 0000 8163     		str	r1, [r0, #56]
 527              		@ sp needed for prologue
 528 0002 7047     		bx	lr
 530              		.section	.text.AT91F_PIO_Enable,"ax",%progbits
 531              		.align	2
 532              		.global	AT91F_PIO_Enable
 533              		.code 16
 534              		.thumb_func
 536              	AT91F_PIO_Enable:
 537              		@ lr needed for prologue
 538 0000 0160     		str	r1, [r0]
 539              		@ sp needed for prologue
 540 0002 7047     		bx	lr
 542              		.section	.text.AT91F_PIO_Disable,"ax",%progbits
 543              		.align	2
 544              		.global	AT91F_PIO_Disable
 545              		.code 16
 546              		.thumb_func
 548              	AT91F_PIO_Disable:
 549              		@ lr needed for prologue
 550 0000 4160     		str	r1, [r0, #4]
 551              		@ sp needed for prologue
 552 0002 7047     		bx	lr
 554              		.section	.text.AT91F_PIO_GetStatus,"ax",%progbits
 555              		.align	2
 556              		.global	AT91F_PIO_GetStatus
 557              		.code 16
 558              		.thumb_func
 560              	AT91F_PIO_GetStatus:
 561 0000 8068     		ldr	r0, [r0, #8]
 562              		@ lr needed for prologue
 563              		@ sp needed for prologue
 564 0002 7047     		bx	lr
 566              		.section	.text.AT91F_PIO_OutputEnable,"ax",%progbits
 567              		.align	2
 568              		.global	AT91F_PIO_OutputEnable
 569              		.code 16
 570              		.thumb_func
 572              	AT91F_PIO_OutputEnable:
 573              		@ lr needed for prologue
 574 0000 0161     		str	r1, [r0, #16]
 575              		@ sp needed for prologue
 576 0002 7047     		bx	lr
 578              		.section	.text.AT91F_PIO_OutputDisable,"ax",%progbits
 579              		.align	2
 580              		.global	AT91F_PIO_OutputDisable
 581              		.code 16
 582              		.thumb_func
 584              	AT91F_PIO_OutputDisable:
 585              		@ lr needed for prologue
 586 0000 4161     		str	r1, [r0, #20]
 587              		@ sp needed for prologue
 588 0002 7047     		bx	lr
 590              		.section	.text.AT91F_PIO_GetOutputStatus,"ax",%progbits
 591              		.align	2
 592              		.global	AT91F_PIO_GetOutputStatus
 593              		.code 16
 594              		.thumb_func
 596              	AT91F_PIO_GetOutputStatus:
 597 0000 8069     		ldr	r0, [r0, #24]
 598              		@ lr needed for prologue
 599              		@ sp needed for prologue
 600 0002 7047     		bx	lr
 602              		.section	.text.AT91F_PIO_InputFilterEnable,"ax",%progbits
 603              		.align	2
 604              		.global	AT91F_PIO_InputFilterEnable
 605              		.code 16
 606              		.thumb_func
 608              	AT91F_PIO_InputFilterEnable:
 609              		@ lr needed for prologue
 610 0000 0162     		str	r1, [r0, #32]
 611              		@ sp needed for prologue
 612 0002 7047     		bx	lr
 614              		.section	.text.AT91F_PIO_InputFilterDisable,"ax",%progbits
 615              		.align	2
 616              		.global	AT91F_PIO_InputFilterDisable
 617              		.code 16
 618              		.thumb_func
 620              	AT91F_PIO_InputFilterDisable:
 621              		@ lr needed for prologue
 622 0000 4162     		str	r1, [r0, #36]
 623              		@ sp needed for prologue
 624 0002 7047     		bx	lr
 626              		.section	.text.AT91F_PIO_GetInputFilterStatus,"ax",%progbits
 627              		.align	2
 628              		.global	AT91F_PIO_GetInputFilterStatus
 629              		.code 16
 630              		.thumb_func
 632              	AT91F_PIO_GetInputFilterStatus:
 633 0000 806A     		ldr	r0, [r0, #40]
 634              		@ lr needed for prologue
 635              		@ sp needed for prologue
 636 0002 7047     		bx	lr
 638              		.section	.text.AT91F_PIO_GetOutputDataStatus,"ax",%progbits
 639              		.align	2
 640              		.global	AT91F_PIO_GetOutputDataStatus
 641              		.code 16
 642              		.thumb_func
 644              	AT91F_PIO_GetOutputDataStatus:
 645 0000 806B     		ldr	r0, [r0, #56]
 646              		@ lr needed for prologue
 647              		@ sp needed for prologue
 648 0002 7047     		bx	lr
 650              		.section	.text.AT91F_PIO_InterruptEnable,"ax",%progbits
 651              		.align	2
 652              		.global	AT91F_PIO_InterruptEnable
 653              		.code 16
 654              		.thumb_func
 656              	AT91F_PIO_InterruptEnable:
 657              		@ lr needed for prologue
 658 0000 0164     		str	r1, [r0, #64]
 659              		@ sp needed for prologue
 660 0002 7047     		bx	lr
 662              		.section	.text.AT91F_PIO_InterruptDisable,"ax",%progbits
 663              		.align	2
 664              		.global	AT91F_PIO_InterruptDisable
 665              		.code 16
 666              		.thumb_func
 668              	AT91F_PIO_InterruptDisable:
 669              		@ lr needed for prologue
 670 0000 4164     		str	r1, [r0, #68]
 671              		@ sp needed for prologue
 672 0002 7047     		bx	lr
 674              		.section	.text.AT91F_PIO_GetInterruptMaskStatus,"ax",%progbits
 675              		.align	2
 676              		.global	AT91F_PIO_GetInterruptMaskStatus
 677              		.code 16
 678              		.thumb_func
 680              	AT91F_PIO_GetInterruptMaskStatus:
 681 0000 806C     		ldr	r0, [r0, #72]
 682              		@ lr needed for prologue
 683              		@ sp needed for prologue
 684 0002 7047     		bx	lr
 686              		.section	.text.AT91F_PIO_GetInterruptStatus,"ax",%progbits
 687              		.align	2
 688              		.global	AT91F_PIO_GetInterruptStatus
 689              		.code 16
 690              		.thumb_func
 692              	AT91F_PIO_GetInterruptStatus:
 693 0000 C06C     		ldr	r0, [r0, #76]
 694              		@ lr needed for prologue
 695              		@ sp needed for prologue
 696 0002 7047     		bx	lr
 698              		.section	.text.AT91F_PIO_MultiDriverEnable,"ax",%progbits
 699              		.align	2
 700              		.global	AT91F_PIO_MultiDriverEnable
 701              		.code 16
 702              		.thumb_func
 704              	AT91F_PIO_MultiDriverEnable:
 705              		@ lr needed for prologue
 706 0000 0165     		str	r1, [r0, #80]
 707              		@ sp needed for prologue
 708 0002 7047     		bx	lr
 710              		.section	.text.AT91F_PIO_MultiDriverDisable,"ax",%progbits
 711              		.align	2
 712              		.global	AT91F_PIO_MultiDriverDisable
 713              		.code 16
 714              		.thumb_func
 716              	AT91F_PIO_MultiDriverDisable:
 717              		@ lr needed for prologue
 718 0000 4165     		str	r1, [r0, #84]
 719              		@ sp needed for prologue
 720 0002 7047     		bx	lr
 722              		.section	.text.AT91F_PIO_GetMultiDriverStatus,"ax",%progbits
 723              		.align	2
 724              		.global	AT91F_PIO_GetMultiDriverStatus
 725              		.code 16
 726              		.thumb_func
 728              	AT91F_PIO_GetMultiDriverStatus:
 729 0000 806D     		ldr	r0, [r0, #88]
 730              		@ lr needed for prologue
 731              		@ sp needed for prologue
 732 0002 7047     		bx	lr
 734              		.section	.text.AT91F_PIO_A_RegisterSelection,"ax",%progbits
 735              		.align	2
 736              		.global	AT91F_PIO_A_RegisterSelection
 737              		.code 16
 738              		.thumb_func
 740              	AT91F_PIO_A_RegisterSelection:
 741              		@ lr needed for prologue
 742 0000 0167     		str	r1, [r0, #112]
 743              		@ sp needed for prologue
 744 0002 7047     		bx	lr
 746              		.section	.text.AT91F_PIO_B_RegisterSelection,"ax",%progbits
 747              		.align	2
 748              		.global	AT91F_PIO_B_RegisterSelection
 749              		.code 16
 750              		.thumb_func
 752              	AT91F_PIO_B_RegisterSelection:
 753              		@ lr needed for prologue
 754 0000 4167     		str	r1, [r0, #116]
 755              		@ sp needed for prologue
 756 0002 7047     		bx	lr
 758              		.section	.text.AT91F_PIO_Get_AB_RegisterStatus,"ax",%progbits
 759              		.align	2
 760              		.global	AT91F_PIO_Get_AB_RegisterStatus
 761              		.code 16
 762              		.thumb_func
 764              	AT91F_PIO_Get_AB_RegisterStatus:
 765 0000 806F     		ldr	r0, [r0, #120]
 766              		@ lr needed for prologue
 767              		@ sp needed for prologue
 768 0002 7047     		bx	lr
 770              		.section	.text.AT91F_PIO_OutputWriteEnable,"ax",%progbits
 771              		.align	2
 772              		.global	AT91F_PIO_OutputWriteEnable
 773              		.code 16
 774              		.thumb_func
 776              	AT91F_PIO_OutputWriteEnable:
 777 0000 A030     		add	r0, r0, #160
 778              		@ lr needed for prologue
 779 0002 0160     		str	r1, [r0]
 780              		@ sp needed for prologue
 781 0004 7047     		bx	lr
 783 0006 C046     		.section	.text.AT91F_PIO_OutputWriteDisable,"ax",%progbits
 784              		.align	2
 785              		.global	AT91F_PIO_OutputWriteDisable
 786              		.code 16
 787              		.thumb_func
 789              	AT91F_PIO_OutputWriteDisable:
 790 0000 A430     		add	r0, r0, #164
 791              		@ lr needed for prologue
 792 0002 0160     		str	r1, [r0]
 793              		@ sp needed for prologue
 794 0004 7047     		bx	lr
 796 0006 C046     		.section	.text.AT91F_PIO_GetOutputWriteStatus,"ax",%progbits
 797              		.align	2
 798              		.global	AT91F_PIO_GetOutputWriteStatus
 799              		.code 16
 800              		.thumb_func
 802              	AT91F_PIO_GetOutputWriteStatus:
 803 0000 A830     		add	r0, r0, #168
 804 0002 0068     		ldr	r0, [r0]
 805              		@ lr needed for prologue
 806              		@ sp needed for prologue
 807 0004 7047     		bx	lr
 809 0006 C046     		.section	.text.AT91F_PIO_GetCfgPullup,"ax",%progbits
 810              		.align	2
 811              		.global	AT91F_PIO_GetCfgPullup
 812              		.code 16
 813              		.thumb_func
 815              	AT91F_PIO_GetCfgPullup:
 816 0000 806E     		ldr	r0, [r0, #104]
 817              		@ lr needed for prologue
 818              		@ sp needed for prologue
 819 0002 7047     		bx	lr
 821              		.section	.text.AT91F_PMC_CfgSysClkEnableReg,"ax",%progbits
 822              		.align	2
 823              		.global	AT91F_PMC_CfgSysClkEnableReg
 824              		.code 16
 825              		.thumb_func
 827              	AT91F_PMC_CfgSysClkEnableReg:
 828              		@ lr needed for prologue
 829 0000 0160     		str	r1, [r0]
 830              		@ sp needed for prologue
 831 0002 7047     		bx	lr
 833              		.section	.text.AT91F_PMC_CfgSysClkDisableReg,"ax",%progbits
 834              		.align	2
 835              		.global	AT91F_PMC_CfgSysClkDisableReg
 836              		.code 16
 837              		.thumb_func
 839              	AT91F_PMC_CfgSysClkDisableReg:
 840              		@ lr needed for prologue
 841 0000 4160     		str	r1, [r0, #4]
 842              		@ sp needed for prologue
 843 0002 7047     		bx	lr
 845              		.section	.text.AT91F_PMC_GetSysClkStatusReg,"ax",%progbits
 846              		.align	2
 847              		.global	AT91F_PMC_GetSysClkStatusReg
 848              		.code 16
 849              		.thumb_func
 851              	AT91F_PMC_GetSysClkStatusReg:
 852 0000 8068     		ldr	r0, [r0, #8]
 853              		@ lr needed for prologue
 854              		@ sp needed for prologue
 855 0002 7047     		bx	lr
 857              		.section	.text.AT91F_PMC_EnablePeriphClock,"ax",%progbits
 858              		.align	2
 859              		.global	AT91F_PMC_EnablePeriphClock
 860              		.code 16
 861              		.thumb_func
 863              	AT91F_PMC_EnablePeriphClock:
 864              		@ lr needed for prologue
 865 0000 0161     		str	r1, [r0, #16]
 866              		@ sp needed for prologue
 867 0002 7047     		bx	lr
 869              		.section	.text.AT91F_PMC_DisablePeriphClock,"ax",%progbits
 870              		.align	2
 871              		.global	AT91F_PMC_DisablePeriphClock
 872              		.code 16
 873              		.thumb_func
 875              	AT91F_PMC_DisablePeriphClock:
 876              		@ lr needed for prologue
 877 0000 4161     		str	r1, [r0, #20]
 878              		@ sp needed for prologue
 879 0002 7047     		bx	lr
 881              		.section	.text.AT91F_PMC_GetPeriphClock,"ax",%progbits
 882              		.align	2
 883              		.global	AT91F_PMC_GetPeriphClock
 884              		.code 16
 885              		.thumb_func
 887              	AT91F_PMC_GetPeriphClock:
 888 0000 8069     		ldr	r0, [r0, #24]
 889              		@ lr needed for prologue
 890              		@ sp needed for prologue
 891 0002 7047     		bx	lr
 893              		.section	.text.AT91F_CKGR_CfgMainOscillatorReg,"ax",%progbits
 894              		.align	2
 895              		.global	AT91F_CKGR_CfgMainOscillatorReg
 896              		.code 16
 897              		.thumb_func
 899              	AT91F_CKGR_CfgMainOscillatorReg:
 900              		@ lr needed for prologue
 901 0000 0160     		str	r1, [r0]
 902              		@ sp needed for prologue
 903 0002 7047     		bx	lr
 905              		.section	.text.AT91F_CKGR_GetMainOscillatorReg,"ax",%progbits
 906              		.align	2
 907              		.global	AT91F_CKGR_GetMainOscillatorReg
 908              		.code 16
 909              		.thumb_func
 911              	AT91F_CKGR_GetMainOscillatorReg:
 912 0000 0068     		ldr	r0, [r0]
 913              		@ lr needed for prologue
 914              		@ sp needed for prologue
 915 0002 7047     		bx	lr
 917              		.section	.text.AT91F_CKGR_EnableMainOscillator,"ax",%progbits
 918              		.align	2
 919              		.global	AT91F_CKGR_EnableMainOscillator
 920              		.code 16
 921              		.thumb_func
 923              	AT91F_CKGR_EnableMainOscillator:
 924 0000 0368     		ldr	r3, [r0]
 925 0002 0122     		mov	r2, #1
 926 0004 1343     		orr	r3, r3, r2
 927              		@ lr needed for prologue
 928 0006 0360     		str	r3, [r0]
 929              		@ sp needed for prologue
 930 0008 7047     		bx	lr
 932 000a C046     		.section	.text.AT91F_CKGR_DisableMainOscillator,"ax",%progbits
 933              		.align	2
 934              		.global	AT91F_CKGR_DisableMainOscillator
 935              		.code 16
 936              		.thumb_func
 938              	AT91F_CKGR_DisableMainOscillator:
 939 0000 0368     		ldr	r3, [r0]
 940 0002 0122     		mov	r2, #1
 941 0004 9343     		bic	r3, r3, r2
 942              		@ lr needed for prologue
 943 0006 0360     		str	r3, [r0]
 944              		@ sp needed for prologue
 945 0008 7047     		bx	lr
 947              		.global	__udivsi3
 948 000a C046     		.section	.text.AT91F_CKGR_CfgMainOscStartUpTime,"ax",%progbits
 949              		.align	2
 950              		.global	AT91F_CKGR_CfgMainOscStartUpTime
 951              		.code 16
 952              		.thumb_func
 954              	AT91F_CKGR_CfgMainOscStartUpTime:
 955 0000 30B5     		push	{r4, r5, lr}
 956 0002 051C     		mov	r5, r0
 957 0004 0368     		ldr	r3, [r0]
 958 0006 0748     		ldr	r0, .L150
 959 0008 0340     		and	r3, r3, r0
 960 000a 2B60     		str	r3, [r5]
 961 000c 081C     		mov	r0, r1
 962 000e 5043     		mul	r0, r0, r2
 963 0010 0549     		ldr	r1, .L150+4
 964 0012 FFF7FEFF 		bl	__udivsi3
 965 0016 2C68     		ldr	r4, [r5]
 966 0018 0002     		lsl	r0, r0, #8
 967 001a 0443     		orr	r4, r4, r0
 968 001c 2C60     		str	r4, [r5]
 969              		@ sp needed for prologue
 970 001e 30BC     		pop	{r4, r5}
 971 0020 01BC     		pop	{r0}
 972 0022 0047     		bx	r0
 973              	.L151:
 974              		.align	2
 975              	.L150:
 976 0024 FF00FFFF 		.word	-65281
 977 0028 00127A00 		.word	8000000
 979              		.section	.text.AT91F_CKGR_GetMainClockFreqReg,"ax",%progbits
 980              		.align	2
 981              		.global	AT91F_CKGR_GetMainClockFreqReg
 982              		.code 16
 983              		.thumb_func
 985              	AT91F_CKGR_GetMainClockFreqReg:
 986 0000 4068     		ldr	r0, [r0, #4]
 987              		@ lr needed for prologue
 988              		@ sp needed for prologue
 989 0002 7047     		bx	lr
 991              		.section	.text.AT91F_CKGR_GetMainClock,"ax",%progbits
 992              		.align	2
 993              		.global	AT91F_CKGR_GetMainClock
 994              		.code 16
 995              		.thumb_func
 997              	AT91F_CKGR_GetMainClock:
 998 0000 4368     		ldr	r3, [r0, #4]
 999 0002 034A     		ldr	r2, .L156
 1000 0004 1340     		and	r3, r3, r2
 1001 0006 081C     		mov	r0, r1
 1002 0008 5843     		mul	r0, r0, r3
 1003 000a 0009     		lsr	r0, r0, #4
 1004              		@ lr needed for prologue
 1005              		@ sp needed for prologue
 1006 000c 7047     		bx	lr
 1007              	.L157:
 1008 000e 0000     		.align	2
 1009              	.L156:
 1010 0010 FFFF0000 		.word	65535
 1012              		.section	.text.AT91F_PMC_CfgMCKReg,"ax",%progbits
 1013              		.align	2
 1014              		.global	AT91F_PMC_CfgMCKReg
 1015              		.code 16
 1016              		.thumb_func
 1018              	AT91F_PMC_CfgMCKReg:
 1019              		@ lr needed for prologue
 1020 0000 0163     		str	r1, [r0, #48]
 1021              		@ sp needed for prologue
 1022 0002 7047     		bx	lr
 1024              		.section	.text.AT91F_PMC_GetMCKReg,"ax",%progbits
 1025              		.align	2
 1026              		.global	AT91F_PMC_GetMCKReg
 1027              		.code 16
 1028              		.thumb_func
 1030              	AT91F_PMC_GetMCKReg:
 1031 0000 006B     		ldr	r0, [r0, #48]
 1032              		@ lr needed for prologue
 1033              		@ sp needed for prologue
 1034 0002 7047     		bx	lr
 1036              		.section	.text.AT91F_PMC_EnablePCK,"ax",%progbits
 1037              		.align	2
 1038              		.global	AT91F_PMC_EnablePCK
 1039              		.code 16
 1040              		.thumb_func
 1042              	AT91F_PMC_EnablePCK:
 1043 0000 8B00     		lsl	r3, r1, #2
 1044 0002 1B18     		add	r3, r3, r0
 1045 0004 1A64     		str	r2, [r3, #64]
 1046 0006 8023     		mov	r3, #128
 1047 0008 5B00     		lsl	r3, r3, #1
 1048 000a 8B40     		lsl	r3, r3, r1
 1049              		@ lr needed for prologue
 1050 000c 0360     		str	r3, [r0]
 1051              		@ sp needed for prologue
 1052 000e 7047     		bx	lr
 1054              		.section	.text.AT91F_PMC_DisablePCK,"ax",%progbits
 1055              		.align	2
 1056              		.global	AT91F_PMC_DisablePCK
 1057              		.code 16
 1058              		.thumb_func
 1060              	AT91F_PMC_DisablePCK:
 1061 0000 8023     		mov	r3, #128
 1062 0002 5B00     		lsl	r3, r3, #1
 1063 0004 8B40     		lsl	r3, r3, r1
 1064              		@ lr needed for prologue
 1065 0006 4360     		str	r3, [r0, #4]
 1066              		@ sp needed for prologue
 1067 0008 7047     		bx	lr
 1069 000a C046     		.section	.text.AT91F_PMC_EnableIt,"ax",%progbits
 1070              		.align	2
 1071              		.global	AT91F_PMC_EnableIt
 1072              		.code 16
 1073              		.thumb_func
 1075              	AT91F_PMC_EnableIt:
 1076              		@ lr needed for prologue
 1077 0000 0166     		str	r1, [r0, #96]
 1078              		@ sp needed for prologue
 1079 0002 7047     		bx	lr
 1081              		.section	.text.AT91F_PMC_DisableIt,"ax",%progbits
 1082              		.align	2
 1083              		.global	AT91F_PMC_DisableIt
 1084              		.code 16
 1085              		.thumb_func
 1087              	AT91F_PMC_DisableIt:
 1088              		@ lr needed for prologue
 1089 0000 4166     		str	r1, [r0, #100]
 1090              		@ sp needed for prologue
 1091 0002 7047     		bx	lr
 1093              		.section	.text.AT91F_PMC_GetStatus,"ax",%progbits
 1094              		.align	2
 1095              		.global	AT91F_PMC_GetStatus
 1096              		.code 16
 1097              		.thumb_func
 1099              	AT91F_PMC_GetStatus:
 1100 0000 806E     		ldr	r0, [r0, #104]
 1101              		@ lr needed for prologue
 1102              		@ sp needed for prologue
 1103 0002 7047     		bx	lr
 1105              		.section	.text.AT91F_PMC_GetInterruptMaskStatus,"ax",%progbits
 1106              		.align	2
 1107              		.global	AT91F_PMC_GetInterruptMaskStatus
 1108              		.code 16
 1109              		.thumb_func
 1111              	AT91F_PMC_GetInterruptMaskStatus:
 1112 0000 C06E     		ldr	r0, [r0, #108]
 1113              		@ lr needed for prologue
 1114              		@ sp needed for prologue
 1115 0002 7047     		bx	lr
 1117              		.section	.text.AT91F_CKGR_CfgPLLReg,"ax",%progbits
 1118              		.align	2
 1119              		.global	AT91F_CKGR_CfgPLLReg
 1120              		.code 16
 1121              		.thumb_func
 1123              	AT91F_CKGR_CfgPLLReg:
 1124              		@ lr needed for prologue
 1125 0000 C160     		str	r1, [r0, #12]
 1126              		@ sp needed for prologue
 1127 0002 7047     		bx	lr
 1129              		.section	.text.AT91F_CKGR_GetPLLReg,"ax",%progbits
 1130              		.align	2
 1131              		.global	AT91F_CKGR_GetPLLReg
 1132              		.code 16
 1133              		.thumb_func
 1135              	AT91F_CKGR_GetPLLReg:
 1136 0000 C068     		ldr	r0, [r0, #12]
 1137              		@ lr needed for prologue
 1138              		@ sp needed for prologue
 1139 0002 7047     		bx	lr
 1141              		.section	.text.AT91F_RSTSoftReset,"ax",%progbits
 1142              		.align	2
 1143              		.global	AT91F_RSTSoftReset
 1144              		.code 16
 1145              		.thumb_func
 1147              	AT91F_RSTSoftReset:
 1148 0000 A523     		mov	r3, #165
 1149 0002 1B06     		lsl	r3, r3, #24
 1150 0004 1943     		orr	r1, r1, r3
 1151              		@ lr needed for prologue
 1152 0006 0160     		str	r1, [r0]
 1153              		@ sp needed for prologue
 1154 0008 7047     		bx	lr
 1156 000a C046     		.section	.text.AT91F_RSTSetMode,"ax",%progbits
 1157              		.align	2
 1158              		.global	AT91F_RSTSetMode
 1159              		.code 16
 1160              		.thumb_func
 1162              	AT91F_RSTSetMode:
 1163 0000 A523     		mov	r3, #165
 1164 0002 1B06     		lsl	r3, r3, #24
 1165 0004 1943     		orr	r1, r1, r3
 1166              		@ lr needed for prologue
 1167 0006 8160     		str	r1, [r0, #8]
 1168              		@ sp needed for prologue
 1169 0008 7047     		bx	lr
 1171 000a C046     		.section	.text.AT91F_RSTGetMode,"ax",%progbits
 1172              		.align	2
 1173              		.global	AT91F_RSTGetMode
 1174              		.code 16
 1175              		.thumb_func
 1177              	AT91F_RSTGetMode:
 1178 0000 8068     		ldr	r0, [r0, #8]
 1179              		@ lr needed for prologue
 1180              		@ sp needed for prologue
 1181 0002 7047     		bx	lr
 1183              		.section	.text.AT91F_RSTGetStatus,"ax",%progbits
 1184              		.align	2
 1185              		.global	AT91F_RSTGetStatus
 1186              		.code 16
 1187              		.thumb_func
 1189              	AT91F_RSTGetStatus:
 1190 0000 4068     		ldr	r0, [r0, #4]
 1191              		@ lr needed for prologue
 1192              		@ sp needed for prologue
 1193 0002 7047     		bx	lr
 1195              		.section	.text.AT91F_RSTIsSoftRstActive,"ax",%progbits
 1196              		.align	2
 1197              		.global	AT91F_RSTIsSoftRstActive
 1198              		.code 16
 1199              		.thumb_func
 1201              	AT91F_RSTIsSoftRstActive:
 1202 0000 4068     		ldr	r0, [r0, #4]
 1203 0002 8023     		mov	r3, #128
 1204 0004 9B02     		lsl	r3, r3, #10
 1205 0006 1840     		and	r0, r0, r3
 1206              		@ lr needed for prologue
 1207              		@ sp needed for prologue
 1208 0008 7047     		bx	lr
 1210 000a C046     		.section	.text.AT91F_RTTSetTimeBase,"ax",%progbits
 1211              		.align	2
 1212              		.global	AT91F_RTTSetTimeBase
 1213              		.code 16
 1214              		.thumb_func
 1216              	AT91F_RTTSetTimeBase:
 1217 0000 30B5     		push	{r4, r5, lr}
 1218 0002 FA23     		mov	r3, #250
 1219 0004 DB00     		lsl	r3, r3, #3
 1220 0006 051C     		mov	r5, r0
 1221 0008 9942     		cmp	r1, r3
 1222 000a 01D9     		bls	.L189
 1223 000c 0120     		mov	r0, #1
 1224 000e 0EE0     		b	.L191
 1225              	.L189:
 1226 0010 0368     		ldr	r3, [r0]
 1227 0012 084A     		ldr	r2, .L193
 1228 0014 1340     		and	r3, r3, r2
 1229 0016 0360     		str	r3, [r0]
 1230 0018 0468     		ldr	r4, [r0]
 1231 001a C803     		lsl	r0, r1, #15
 1232 001c FA21     		mov	r1, #250
 1233 001e 8900     		lsl	r1, r1, #2
 1234 0020 FFF7FEFF 		bl	__udivsi3
 1235 0024 044B     		ldr	r3, .L193+4
 1236 0026 1840     		and	r0, r0, r3
 1237 0028 0443     		orr	r4, r4, r0
 1238 002a 2C60     		str	r4, [r5]
 1239 002c 0020     		mov	r0, #0
 1240              	.L191:
 1241              		@ sp needed for prologue
 1242 002e 30BC     		pop	{r4, r5}
 1243 0030 02BC     		pop	{r1}
 1244 0032 0847     		bx	r1
 1245              	.L194:
 1246              		.align	2
 1247              	.L193:
 1248 0034 0000FFFF 		.word	-65536
 1249 0038 FFFF0000 		.word	65535
 1251              		.section	.text.AT91F_RTTSetPrescaler,"ax",%progbits
 1252              		.align	2
 1253              		.global	AT91F_RTTSetPrescaler
 1254              		.code 16
 1255              		.thumb_func
 1257              	AT91F_RTTSetPrescaler:
 1258 0000 0368     		ldr	r3, [r0]
 1259 0002 054A     		ldr	r2, .L197
 1260 0004 1340     		and	r3, r3, r2
 1261 0006 0360     		str	r3, [r0]
 1262 0008 044A     		ldr	r2, .L197+4
 1263 000a 0368     		ldr	r3, [r0]
 1264 000c 1140     		and	r1, r1, r2
 1265 000e 0B43     		orr	r3, r3, r1
 1266 0010 0360     		str	r3, [r0]
 1267 0012 0068     		ldr	r0, [r0]
 1268              		@ lr needed for prologue
 1269              		@ sp needed for prologue
 1270 0014 7047     		bx	lr
 1271              	.L198:
 1272 0016 0000     		.align	2
 1273              	.L197:
 1274 0018 0000FFFF 		.word	-65536
 1275 001c FFFF0000 		.word	65535
 1277              		.section	.text.AT91F_RTTRestart,"ax",%progbits
 1278              		.align	2
 1279              		.global	AT91F_RTTRestart
 1280              		.code 16
 1281              		.thumb_func
 1283              	AT91F_RTTRestart:
 1284 0000 0268     		ldr	r2, [r0]
 1285 0002 8023     		mov	r3, #128
 1286 0004 DB02     		lsl	r3, r3, #11
 1287 0006 1A43     		orr	r2, r2, r3
 1288              		@ lr needed for prologue
 1289 0008 0260     		str	r2, [r0]
 1290              		@ sp needed for prologue
 1291 000a 7047     		bx	lr
 1293              		.section	.text.AT91F_RTTSetAlarmINT,"ax",%progbits
 1294              		.align	2
 1295              		.global	AT91F_RTTSetAlarmINT
 1296              		.code 16
 1297              		.thumb_func
 1299              	AT91F_RTTSetAlarmINT:
 1300 0000 0268     		ldr	r2, [r0]
 1301 0002 8023     		mov	r3, #128
 1302 0004 5B02     		lsl	r3, r3, #9
 1303 0006 1A43     		orr	r2, r2, r3
 1304              		@ lr needed for prologue
 1305 0008 0260     		str	r2, [r0]
 1306              		@ sp needed for prologue
 1307 000a 7047     		bx	lr
 1309              		.section	.text.AT91F_RTTClearAlarmINT,"ax",%progbits
 1310              		.align	2
 1311              		.global	AT91F_RTTClearAlarmINT
 1312              		.code 16
 1313              		.thumb_func
 1315              	AT91F_RTTClearAlarmINT:
 1316 0000 0368     		ldr	r3, [r0]
 1317 0002 024A     		ldr	r2, .L205
 1318 0004 1340     		and	r3, r3, r2
 1319              		@ lr needed for prologue
 1320 0006 0360     		str	r3, [r0]
 1321              		@ sp needed for prologue
 1322 0008 7047     		bx	lr
 1323              	.L206:
 1324 000a 0000     		.align	2
 1325              	.L205:
 1326 000c FFFFFEFF 		.word	-65537
 1328              		.section	.text.AT91F_RTTSetRttIncINT,"ax",%progbits
 1329              		.align	2
 1330              		.global	AT91F_RTTSetRttIncINT
 1331              		.code 16
 1332              		.thumb_func
 1334              	AT91F_RTTSetRttIncINT:
 1335 0000 0268     		ldr	r2, [r0]
 1336 0002 8023     		mov	r3, #128
 1337 0004 9B02     		lsl	r3, r3, #10
 1338 0006 1A43     		orr	r2, r2, r3
 1339              		@ lr needed for prologue
 1340 0008 0260     		str	r2, [r0]
 1341              		@ sp needed for prologue
 1342 000a 7047     		bx	lr
 1344              		.section	.text.AT91F_RTTClearRttIncINT,"ax",%progbits
 1345              		.align	2
 1346              		.global	AT91F_RTTClearRttIncINT
 1347              		.code 16
 1348              		.thumb_func
 1350              	AT91F_RTTClearRttIncINT:
 1351 0000 0368     		ldr	r3, [r0]
 1352 0002 024A     		ldr	r2, .L211
 1353 0004 1340     		and	r3, r3, r2
 1354              		@ lr needed for prologue
 1355 0006 0360     		str	r3, [r0]
 1356              		@ sp needed for prologue
 1357 0008 7047     		bx	lr
 1358              	.L212:
 1359 000a 0000     		.align	2
 1360              	.L211:
 1361 000c FFFFFDFF 		.word	-131073
 1363              		.section	.text.AT91F_RTTSetAlarmValue,"ax",%progbits
 1364              		.align	2
 1365              		.global	AT91F_RTTSetAlarmValue
 1366              		.code 16
 1367              		.thumb_func
 1369              	AT91F_RTTSetAlarmValue:
 1370              		@ lr needed for prologue
 1371 0000 4160     		str	r1, [r0, #4]
 1372              		@ sp needed for prologue
 1373 0002 7047     		bx	lr
 1375              		.section	.text.AT91F_RTTGetAlarmValue,"ax",%progbits
 1376              		.align	2
 1377              		.global	AT91F_RTTGetAlarmValue
 1378              		.code 16
 1379              		.thumb_func
 1381              	AT91F_RTTGetAlarmValue:
 1382 0000 4068     		ldr	r0, [r0, #4]
 1383              		@ lr needed for prologue
 1384              		@ sp needed for prologue
 1385 0002 7047     		bx	lr
 1387              		.section	.text.AT91F_RTTGetStatus,"ax",%progbits
 1388              		.align	2
 1389              		.global	AT91F_RTTGetStatus
 1390              		.code 16
 1391              		.thumb_func
 1393              	AT91F_RTTGetStatus:
 1394 0000 C068     		ldr	r0, [r0, #12]
 1395              		@ lr needed for prologue
 1396              		@ sp needed for prologue
 1397 0002 7047     		bx	lr
 1399              		.section	.text.AT91F_RTTReadValue,"ax",%progbits
 1400              		.align	2
 1401              		.global	AT91F_RTTReadValue
 1402              		.code 16
 1403              		.thumb_func
 1405              	AT91F_RTTReadValue:
 1406 0000 82B0     		sub	sp, sp, #8
 1407              		@ lr needed for prologue
 1408              	.L221:
 1409 0002 8368     		ldr	r3, [r0, #8]
 1410 0004 0193     		str	r3, [sp, #4]
 1411 0006 8368     		ldr	r3, [r0, #8]
 1412 0008 0093     		str	r3, [sp]
 1413 000a 019A     		ldr	r2, [sp, #4]
 1414 000c 009B     		ldr	r3, [sp]
 1415 000e 9A42     		cmp	r2, r3
 1416 0010 F7D1     		bne	.L221
 1417 0012 0198     		ldr	r0, [sp, #4]
 1418 0014 02B0     		add	sp, sp, #8
 1419              		@ sp needed for prologue
 1420 0016 7047     		bx	lr
 1422              		.section	.text.AT91F_PITInit,"ax",%progbits
 1423              		.align	2
 1424              		.global	AT91F_PITInit
 1425              		.code 16
 1426              		.thumb_func
 1428              	AT91F_PITInit:
 1429              		@ lr needed for prologue
 1430 0000 0029     		cmp	r1, #0
 1431 0002 03D0     		beq	.L229
 1432 0004 131C     		mov	r3, r2
 1433 0006 4B43     		mul	r3, r3, r1
 1434 0008 0833     		add	r3, r3, #8
 1435 000a 1909     		lsr	r1, r3, #4
 1436              	.L229:
 1437 000c 0160     		str	r1, [r0]
 1438 000e 8023     		mov	r3, #128
 1439 0010 0268     		ldr	r2, [r0]
 1440 0012 5B04     		lsl	r3, r3, #17
 1441 0014 1A43     		orr	r2, r2, r3
 1442 0016 0260     		str	r2, [r0]
 1443              		@ sp needed for prologue
 1444 0018 7047     		bx	lr
 1446 001a C046     		.section	.text.AT91F_PITSetPIV,"ax",%progbits
 1447              		.align	2
 1448              		.global	AT91F_PITSetPIV
 1449              		.code 16
 1450              		.thumb_func
 1452              	AT91F_PITSetPIV:
 1453 0000 0268     		ldr	r2, [r0]
 1454 0002 C023     		mov	r3, #192
 1455 0004 9B04     		lsl	r3, r3, #18
 1456 0006 1A40     		and	r2, r2, r3
 1457 0008 1143     		orr	r1, r1, r2
 1458              		@ lr needed for prologue
 1459 000a 0160     		str	r1, [r0]
 1460              		@ sp needed for prologue
 1461 000c 7047     		bx	lr
 1463 000e C046     		.section	.text.AT91F_PITEnableInt,"ax",%progbits
 1464              		.align	2
 1465              		.global	AT91F_PITEnableInt
 1466              		.code 16
 1467              		.thumb_func
 1469              	AT91F_PITEnableInt:
 1470 0000 0268     		ldr	r2, [r0]
 1471 0002 8023     		mov	r3, #128
 1472 0004 9B04     		lsl	r3, r3, #18
 1473 0006 1A43     		orr	r2, r2, r3
 1474              		@ lr needed for prologue
 1475 0008 0260     		str	r2, [r0]
 1476              		@ sp needed for prologue
 1477 000a 7047     		bx	lr
 1479              		.section	.text.AT91F_PITDisableInt,"ax",%progbits
 1480              		.align	2
 1481              		.global	AT91F_PITDisableInt
 1482              		.code 16
 1483              		.thumb_func
 1485              	AT91F_PITDisableInt:
 1486 0000 0368     		ldr	r3, [r0]
 1487 0002 024A     		ldr	r2, .L237
 1488 0004 1340     		and	r3, r3, r2
 1489              		@ lr needed for prologue
 1490 0006 0360     		str	r3, [r0]
 1491              		@ sp needed for prologue
 1492 0008 7047     		bx	lr
 1493              	.L238:
 1494 000a 0000     		.align	2
 1495              	.L237:
 1496 000c FFFFFFFD 		.word	-33554433
 1498              		.section	.text.AT91F_PITGetMode,"ax",%progbits
 1499              		.align	2
 1500              		.global	AT91F_PITGetMode
 1501              		.code 16
 1502              		.thumb_func
 1504              	AT91F_PITGetMode:
 1505 0000 0068     		ldr	r0, [r0]
 1506              		@ lr needed for prologue
 1507              		@ sp needed for prologue
 1508 0002 7047     		bx	lr
 1510              		.section	.text.AT91F_PITGetStatus,"ax",%progbits
 1511              		.align	2
 1512              		.global	AT91F_PITGetStatus
 1513              		.code 16
 1514              		.thumb_func
 1516              	AT91F_PITGetStatus:
 1517 0000 4068     		ldr	r0, [r0, #4]
 1518              		@ lr needed for prologue
 1519              		@ sp needed for prologue
 1520 0002 7047     		bx	lr
 1522              		.section	.text.AT91F_PITGetPIIR,"ax",%progbits
 1523              		.align	2
 1524              		.global	AT91F_PITGetPIIR
 1525              		.code 16
 1526              		.thumb_func
 1528              	AT91F_PITGetPIIR:
 1529 0000 C068     		ldr	r0, [r0, #12]
 1530              		@ lr needed for prologue
 1531              		@ sp needed for prologue
 1532 0002 7047     		bx	lr
 1534              		.section	.text.AT91F_PITGetPIVR,"ax",%progbits
 1535              		.align	2
 1536              		.global	AT91F_PITGetPIVR
 1537              		.code 16
 1538              		.thumb_func
 1540              	AT91F_PITGetPIVR:
 1541 0000 8068     		ldr	r0, [r0, #8]
 1542              		@ lr needed for prologue
 1543              		@ sp needed for prologue
 1544 0002 7047     		bx	lr
 1546              		.section	.text.AT91F_WDTSetMode,"ax",%progbits
 1547              		.align	2
 1548              		.global	AT91F_WDTSetMode
 1549              		.code 16
 1550              		.thumb_func
 1552              	AT91F_WDTSetMode:
 1553              		@ lr needed for prologue
 1554 0000 4160     		str	r1, [r0, #4]
 1555              		@ sp needed for prologue
 1556 0002 7047     		bx	lr
 1558              		.section	.text.AT91F_WDTRestart,"ax",%progbits
 1559              		.align	2
 1560              		.global	AT91F_WDTRestart
 1561              		.code 16
 1562              		.thumb_func
 1564              	AT91F_WDTRestart:
 1565 0000 014B     		ldr	r3, .L251
 1566              		@ lr needed for prologue
 1567 0002 0360     		str	r3, [r0]
 1568              		@ sp needed for prologue
 1569 0004 7047     		bx	lr
 1570              	.L252:
 1571 0006 0000     		.align	2
 1572              	.L251:
 1573 0008 010000A5 		.word	-1526726655
 1575              		.section	.text.AT91F_WDTSGettatus,"ax",%progbits
 1576              		.align	2
 1577              		.global	AT91F_WDTSGettatus
 1578              		.code 16
 1579              		.thumb_func
 1581              	AT91F_WDTSGettatus:
 1582 0000 8068     		ldr	r0, [r0, #8]
 1583 0002 0323     		mov	r3, #3
 1584 0004 1840     		and	r0, r0, r3
 1585              		@ lr needed for prologue
 1586              		@ sp needed for prologue
 1587 0006 7047     		bx	lr
 1589              		.section	.text.AT91F_WDTGetPeriod,"ax",%progbits
 1590              		.align	2
 1591              		.global	AT91F_WDTGetPeriod
 1592              		.code 16
 1593              		.thumb_func
 1595              	AT91F_WDTGetPeriod:
 1596 0000 00B5     		push	{lr}
 1597 0002 064B     		ldr	r3, .L260
 1598 0004 021F     		sub	r2, r0, #4
 1599 0006 9A42     		cmp	r2, r3
 1600 0008 01D9     		bls	.L256
 1601 000a 0020     		mov	r0, #0
 1602 000c 04E0     		b	.L258
 1603              	.L256:
 1604 000e FA21     		mov	r1, #250
 1605 0010 0002     		lsl	r0, r0, #8
 1606 0012 8900     		lsl	r1, r1, #2
 1607 0014 FFF7FEFF 		bl	__udivsi3
 1608              	.L258:
 1609              		@ sp needed for prologue
 1610 0018 02BC     		pop	{r1}
 1611 001a 0847     		bx	r1
 1612              	.L261:
 1613              		.align	2
 1614              	.L260:
 1615 001c 7C3E0000 		.word	15996
 1617              		.section	.text.AT91F_VREG_Enable_LowPowerMode,"ax",%progbits
 1618              		.align	2
 1619              		.global	AT91F_VREG_Enable_LowPowerMode
 1620              		.code 16
 1621              		.thumb_func
 1623              	AT91F_VREG_Enable_LowPowerMode:
 1624 0000 0368     		ldr	r3, [r0]
 1625 0002 0122     		mov	r2, #1
 1626 0004 1343     		orr	r3, r3, r2
 1627              		@ lr needed for prologue
 1628 0006 0360     		str	r3, [r0]
 1629              		@ sp needed for prologue
 1630 0008 7047     		bx	lr
 1632 000a C046     		.section	.text.AT91F_VREG_Disable_LowPowerMode,"ax",%progbits
 1633              		.align	2
 1634              		.global	AT91F_VREG_Disable_LowPowerMode
 1635              		.code 16
 1636              		.thumb_func
 1638              	AT91F_VREG_Disable_LowPowerMode:
 1639 0000 0368     		ldr	r3, [r0]
 1640 0002 0122     		mov	r2, #1
 1641 0004 9343     		bic	r3, r3, r2
 1642              		@ lr needed for prologue
 1643 0006 0360     		str	r3, [r0]
 1644              		@ sp needed for prologue
 1645 0008 7047     		bx	lr
 1647 000a C046     		.section	.text.AT91F_MC_Remap,"ax",%progbits
 1648              		.align	2
 1649              		.global	AT91F_MC_Remap
 1650              		.code 16
 1651              		.thumb_func
 1653              	AT91F_MC_Remap:
 1654 0000 014B     		ldr	r3, .L268
 1655 0002 0122     		mov	r2, #1
 1656              		@ lr needed for prologue
 1657 0004 1A60     		str	r2, [r3]
 1658              		@ sp needed for prologue
 1659 0006 7047     		bx	lr
 1660              	.L269:
 1661              		.align	2
 1662              	.L268:
 1663 0008 00FFFFFF 		.word	-256
 1665              		.section	.text.AT91F_MC_EFC_CfgModeReg,"ax",%progbits
 1666              		.align	2
 1667              		.global	AT91F_MC_EFC_CfgModeReg
 1668              		.code 16
 1669              		.thumb_func
 1671              	AT91F_MC_EFC_CfgModeReg:
 1672              		@ lr needed for prologue
 1673 0000 0166     		str	r1, [r0, #96]
 1674              		@ sp needed for prologue
 1675 0002 7047     		bx	lr
 1677              		.section	.text.AT91F_MC_EFC_GetModeReg,"ax",%progbits
 1678              		.align	2
 1679              		.global	AT91F_MC_EFC_GetModeReg
 1680              		.code 16
 1681              		.thumb_func
 1683              	AT91F_MC_EFC_GetModeReg:
 1684 0000 006E     		ldr	r0, [r0, #96]
 1685              		@ lr needed for prologue
 1686              		@ sp needed for prologue
 1687 0002 7047     		bx	lr
 1689              		.global	__divsi3
 1690              		.section	.text.AT91F_MC_EFC_ComputeFMCN,"ax",%progbits
 1691              		.align	2
 1692              		.global	AT91F_MC_EFC_ComputeFMCN
 1693              		.code 16
 1694              		.thumb_func
 1696              	AT91F_MC_EFC_ComputeFMCN:
 1697 0000 00B5     		push	{lr}
 1698 0002 0349     		ldr	r1, .L276
 1699 0004 FFF7FEFF 		bl	__divsi3
 1700 0008 0230     		add	r0, r0, #2
 1701              		@ sp needed for prologue
 1702 000a 02BC     		pop	{r1}
 1703 000c 0847     		bx	r1
 1704              	.L277:
 1705 000e 0000     		.align	2
 1706              	.L276:
 1707 0010 40420F00 		.word	1000000
 1709              		.section	.text.AT91F_MC_EFC_PerformCmd,"ax",%progbits
 1710              		.align	2
 1711              		.global	AT91F_MC_EFC_PerformCmd
 1712              		.code 16
 1713              		.thumb_func
 1715              	AT91F_MC_EFC_PerformCmd:
 1716              		@ lr needed for prologue
 1717 0000 4166     		str	r1, [r0, #100]
 1718              		@ sp needed for prologue
 1719 0002 7047     		bx	lr
 1721              		.section	.text.AT91F_MC_EFC_GetStatus,"ax",%progbits
 1722              		.align	2
 1723              		.global	AT91F_MC_EFC_GetStatus
 1724              		.code 16
 1725              		.thumb_func
 1727              	AT91F_MC_EFC_GetStatus:
 1728 0000 806E     		ldr	r0, [r0, #104]
 1729              		@ lr needed for prologue
 1730              		@ sp needed for prologue
 1731 0002 7047     		bx	lr
 1733              		.section	.text.AT91F_SPI_CfgCs,"ax",%progbits
 1734              		.align	2
 1735              		.global	AT91F_SPI_CfgCs
 1736              		.code 16
 1737              		.thumb_func
 1739              	AT91F_SPI_CfgCs:
 1740 0000 8900     		lsl	r1, r1, #2
 1741 0002 3030     		add	r0, r0, #48
 1742 0004 4018     		add	r0, r0, r1
 1743              		@ lr needed for prologue
 1744 0006 0260     		str	r2, [r0]
 1745              		@ sp needed for prologue
 1746 0008 7047     		bx	lr
 1748 000a C046     		.section	.text.AT91F_SPI_EnableIt,"ax",%progbits
 1749              		.align	2
 1750              		.global	AT91F_SPI_EnableIt
 1751              		.code 16
 1752              		.thumb_func
 1754              	AT91F_SPI_EnableIt:
 1755              		@ lr needed for prologue
 1756 0000 4161     		str	r1, [r0, #20]
 1757              		@ sp needed for prologue
 1758 0002 7047     		bx	lr
 1760              		.section	.text.AT91F_SPI_DisableIt,"ax",%progbits
 1761              		.align	2
 1762              		.global	AT91F_SPI_DisableIt
 1763              		.code 16
 1764              		.thumb_func
 1766              	AT91F_SPI_DisableIt:
 1767              		@ lr needed for prologue
 1768 0000 8161     		str	r1, [r0, #24]
 1769              		@ sp needed for prologue
 1770 0002 7047     		bx	lr
 1772              		.section	.text.AT91F_SPI_Reset,"ax",%progbits
 1773              		.align	2
 1774              		.global	AT91F_SPI_Reset
 1775              		.code 16
 1776              		.thumb_func
 1778              	AT91F_SPI_Reset:
 1779 0000 8023     		mov	r3, #128
 1780              		@ lr needed for prologue
 1781 0002 0360     		str	r3, [r0]
 1782              		@ sp needed for prologue
 1783 0004 7047     		bx	lr
 1785 0006 C046     		.section	.text.AT91F_SPI_Enable,"ax",%progbits
 1786              		.align	2
 1787              		.global	AT91F_SPI_Enable
 1788              		.code 16
 1789              		.thumb_func
 1791              	AT91F_SPI_Enable:
 1792 0000 0123     		mov	r3, #1
 1793              		@ lr needed for prologue
 1794 0002 0360     		str	r3, [r0]
 1795              		@ sp needed for prologue
 1796 0004 7047     		bx	lr
 1798 0006 C046     		.section	.text.AT91F_SPI_Disable,"ax",%progbits
 1799              		.align	2
 1800              		.global	AT91F_SPI_Disable
 1801              		.code 16
 1802              		.thumb_func
 1804              	AT91F_SPI_Disable:
 1805 0000 0223     		mov	r3, #2
 1806              		@ lr needed for prologue
 1807 0002 0360     		str	r3, [r0]
 1808              		@ sp needed for prologue
 1809 0004 7047     		bx	lr
 1811 0006 C046     		.section	.text.AT91F_SPI_CfgMode,"ax",%progbits
 1812              		.align	2
 1813              		.global	AT91F_SPI_CfgMode
 1814              		.code 16
 1815              		.thumb_func
 1817              	AT91F_SPI_CfgMode:
 1818              		@ lr needed for prologue
 1819 0000 4160     		str	r1, [r0, #4]
 1820              		@ sp needed for prologue
 1821 0002 7047     		bx	lr
 1823              		.section	.text.AT91F_SPI_CfgPCS,"ax",%progbits
 1824              		.align	2
 1825              		.global	AT91F_SPI_CfgPCS
 1826              		.code 16
 1827              		.thumb_func
 1829              	AT91F_SPI_CfgPCS:
 1830 0000 4368     		ldr	r3, [r0, #4]
 1831 0002 054A     		ldr	r2, .L298
 1832 0004 1340     		and	r3, r3, r2
 1833 0006 4360     		str	r3, [r0, #4]
 1834 0008 F023     		mov	r3, #240
 1835 000a 4268     		ldr	r2, [r0, #4]
 1836 000c 1B03     		lsl	r3, r3, #12
 1837 000e 0904     		lsl	r1, r1, #16
 1838 0010 1940     		and	r1, r1, r3
 1839 0012 0A43     		orr	r2, r2, r1
 1840              		@ lr needed for prologue
 1841 0014 4260     		str	r2, [r0, #4]
 1842              		@ sp needed for prologue
 1843 0016 7047     		bx	lr
 1844              	.L299:
 1845              		.align	2
 1846              	.L298:
 1847 0018 FFFFF0FF 		.word	-983041
 1849              		.section	.text.AT91F_SPI_PutChar,"ax",%progbits
 1850              		.align	2
 1851              		.global	AT91F_SPI_PutChar
 1852              		.code 16
 1853              		.thumb_func
 1855              	AT91F_SPI_PutChar:
 1856 0000 10B5     		push	{r4, lr}
 1857 0002 064B     		ldr	r3, .L302
 1858 0004 0124     		mov	r4, #1
 1859 0006 1940     		and	r1, r1, r3
 1860 0008 9440     		lsl	r4, r4, r2
 1861 000a 0F23     		mov	r3, #15
 1862 000c A343     		bic	r3, r3, r4
 1863 000e 1B04     		lsl	r3, r3, #16
 1864 0010 1943     		orr	r1, r1, r3
 1865 0012 C160     		str	r1, [r0, #12]
 1866              		@ sp needed for prologue
 1867 0014 10BC     		pop	{r4}
 1868 0016 01BC     		pop	{r0}
 1869 0018 0047     		bx	r0
 1870              	.L303:
 1871 001a 0000     		.align	2
 1872              	.L302:
 1873 001c FFFF0000 		.word	65535
 1875              		.section	.text.AT91F_SPI_GetChar,"ax",%progbits
 1876              		.align	2
 1877              		.global	AT91F_SPI_GetChar
 1878              		.code 16
 1879              		.thumb_func
 1881              	AT91F_SPI_GetChar:
 1882 0000 8068     		ldr	r0, [r0, #8]
 1883 0002 014B     		ldr	r3, .L306
 1884 0004 1840     		and	r0, r0, r3
 1885              		@ lr needed for prologue
 1886              		@ sp needed for prologue
 1887 0006 7047     		bx	lr
 1888              	.L307:
 1889              		.align	2
 1890              	.L306:
 1891 0008 FFFF0000 		.word	65535
 1893              		.section	.text.AT91F_SPI_GetInterruptMaskStatus,"ax",%progbits
 1894              		.align	2
 1895              		.global	AT91F_SPI_GetInterruptMaskStatus
 1896              		.code 16
 1897              		.thumb_func
 1899              	AT91F_SPI_GetInterruptMaskStatus:
 1900 0000 C069     		ldr	r0, [r0, #28]
 1901              		@ lr needed for prologue
 1902              		@ sp needed for prologue
 1903 0002 7047     		bx	lr
 1905              		.section	.text.AT91F_ADC_EnableIt,"ax",%progbits
 1906              		.align	2
 1907              		.global	AT91F_ADC_EnableIt
 1908              		.code 16
 1909              		.thumb_func
 1911              	AT91F_ADC_EnableIt:
 1912              		@ lr needed for prologue
 1913 0000 4162     		str	r1, [r0, #36]
 1914              		@ sp needed for prologue
 1915 0002 7047     		bx	lr
 1917              		.section	.text.AT91F_ADC_DisableIt,"ax",%progbits
 1918              		.align	2
 1919              		.global	AT91F_ADC_DisableIt
 1920              		.code 16
 1921              		.thumb_func
 1923              	AT91F_ADC_DisableIt:
 1924              		@ lr needed for prologue
 1925 0000 8162     		str	r1, [r0, #40]
 1926              		@ sp needed for prologue
 1927 0002 7047     		bx	lr
 1929              		.section	.text.AT91F_ADC_GetStatus,"ax",%progbits
 1930              		.align	2
 1931              		.global	AT91F_ADC_GetStatus
 1932              		.code 16
 1933              		.thumb_func
 1935              	AT91F_ADC_GetStatus:
 1936 0000 C069     		ldr	r0, [r0, #28]
 1937              		@ lr needed for prologue
 1938              		@ sp needed for prologue
 1939 0002 7047     		bx	lr
 1941              		.section	.text.AT91F_ADC_GetInterruptMaskStatus,"ax",%progbits
 1942              		.align	2
 1943              		.global	AT91F_ADC_GetInterruptMaskStatus
 1944              		.code 16
 1945              		.thumb_func
 1947              	AT91F_ADC_GetInterruptMaskStatus:
 1948 0000 C06A     		ldr	r0, [r0, #44]
 1949              		@ lr needed for prologue
 1950              		@ sp needed for prologue
 1951 0002 7047     		bx	lr
 1953              		.section	.text.AT91F_ADC_CfgModeReg,"ax",%progbits
 1954              		.align	2
 1955              		.global	AT91F_ADC_CfgModeReg
 1956              		.code 16
 1957              		.thumb_func
 1959              	AT91F_ADC_CfgModeReg:
 1960              		@ lr needed for prologue
 1961 0000 4160     		str	r1, [r0, #4]
 1962              		@ sp needed for prologue
 1963 0002 7047     		bx	lr
 1965              		.section	.text.AT91F_ADC_GetModeReg,"ax",%progbits
 1966              		.align	2
 1967              		.global	AT91F_ADC_GetModeReg
 1968              		.code 16
 1969              		.thumb_func
 1971              	AT91F_ADC_GetModeReg:
 1972 0000 4068     		ldr	r0, [r0, #4]
 1973              		@ lr needed for prologue
 1974              		@ sp needed for prologue
 1975 0002 7047     		bx	lr
 1977              		.section	.text.AT91F_ADC_CfgTimings,"ax",%progbits
 1978              		.align	2
 1979              		.global	AT91F_ADC_CfgTimings
 1980              		.code 16
 1981              		.thumb_func
 1983              	AT91F_ADC_CfgTimings:
 1984 0000 F0B5     		push	{r4, r5, r6, r7, lr}
 1985 0002 81B0     		sub	sp, sp, #4
 1986 0004 0090     		str	r0, [sp]
 1987 0006 081C     		mov	r0, r1
 1988 0008 5100     		lsl	r1, r2, #1
 1989 000a 151C     		mov	r5, r2
 1990 000c 1E1C     		mov	r6, r3
 1991 000e FFF7FEFF 		bl	__udivsi3
 1992 0012 041C     		mov	r4, r0
 1993 0014 013C     		sub	r4, r4, #1
 1994 0016 FC23     		mov	r3, #252
 1995 0018 9B01     		lsl	r3, r3, #6
 1996 001a 2402     		lsl	r4, r4, #8
 1997 001c 1C40     		and	r4, r4, r3
 1998 001e 331C     		mov	r3, r6
 1999 0020 6B43     		mul	r3, r3, r5
 2000 0022 DB08     		lsr	r3, r3, #3
 2001 0024 069F     		ldr	r7, [sp, #24]
 2002 0026 013B     		sub	r3, r3, #1
 2003 0028 F822     		mov	r2, #248
 2004 002a 5203     		lsl	r2, r2, #13
 2005 002c 1B04     		lsl	r3, r3, #16
 2006 002e FA21     		mov	r1, #250
 2007 0030 1340     		and	r3, r3, r2
 2008 0032 381C     		mov	r0, r7
 2009 0034 6843     		mul	r0, r0, r5
 2010 0036 8900     		lsl	r1, r1, #2
 2011 0038 1C43     		orr	r4, r4, r3
 2012 003a FFF7FEFF 		bl	__udivsi3
 2013 003e F023     		mov	r3, #240
 2014 0040 0138     		sub	r0, r0, #1
 2015 0042 1B05     		lsl	r3, r3, #20
 2016 0044 0006     		lsl	r0, r0, #24
 2017 0046 1840     		and	r0, r0, r3
 2018 0048 009B     		ldr	r3, [sp]
 2019 004a 0443     		orr	r4, r4, r0
 2020 004c 01B0     		add	sp, sp, #4
 2021 004e 5C60     		str	r4, [r3, #4]
 2022              		@ sp needed for prologue
 2023 0050 F0BC     		pop	{r4, r5, r6, r7}
 2024 0052 01BC     		pop	{r0}
 2025 0054 0047     		bx	r0
 2027 0056 C046     		.section	.text.AT91F_ADC_EnableChannel,"ax",%progbits
 2028              		.align	2
 2029              		.global	AT91F_ADC_EnableChannel
 2030              		.code 16
 2031              		.thumb_func
 2033              	AT91F_ADC_EnableChannel:
 2034              		@ lr needed for prologue
 2035 0000 0161     		str	r1, [r0, #16]
 2036              		@ sp needed for prologue
 2037 0002 7047     		bx	lr
 2039              		.section	.text.AT91F_ADC_DisableChannel,"ax",%progbits
 2040              		.align	2
 2041              		.global	AT91F_ADC_DisableChannel
 2042              		.code 16
 2043              		.thumb_func
 2045              	AT91F_ADC_DisableChannel:
 2046              		@ lr needed for prologue
 2047 0000 4161     		str	r1, [r0, #20]
 2048              		@ sp needed for prologue
 2049 0002 7047     		bx	lr
 2051              		.section	.text.AT91F_ADC_GetChannelStatus,"ax",%progbits
 2052              		.align	2
 2053              		.global	AT91F_ADC_GetChannelStatus
 2054              		.code 16
 2055              		.thumb_func
 2057              	AT91F_ADC_GetChannelStatus:
 2058 0000 8069     		ldr	r0, [r0, #24]
 2059              		@ lr needed for prologue
 2060              		@ sp needed for prologue
 2061 0002 7047     		bx	lr
 2063              		.section	.text.AT91F_ADC_StartConversion,"ax",%progbits
 2064              		.align	2
 2065              		.global	AT91F_ADC_StartConversion
 2066              		.code 16
 2067              		.thumb_func
 2069              	AT91F_ADC_StartConversion:
 2070 0000 0223     		mov	r3, #2
 2071              		@ lr needed for prologue
 2072 0002 0360     		str	r3, [r0]
 2073              		@ sp needed for prologue
 2074 0004 7047     		bx	lr
 2076 0006 C046     		.section	.text.AT91F_ADC_SoftReset,"ax",%progbits
 2077              		.align	2
 2078              		.global	AT91F_ADC_SoftReset
 2079              		.code 16
 2080              		.thumb_func
 2082              	AT91F_ADC_SoftReset:
 2083 0000 0123     		mov	r3, #1
 2084              		@ lr needed for prologue
 2085 0002 0360     		str	r3, [r0]
 2086              		@ sp needed for prologue
 2087 0004 7047     		bx	lr
 2089 0006 C046     		.section	.text.AT91F_ADC_GetLastConvertedData,"ax",%progbits
 2090              		.align	2
 2091              		.global	AT91F_ADC_GetLastConvertedData
 2092              		.code 16
 2093              		.thumb_func
 2095              	AT91F_ADC_GetLastConvertedData:
 2096 0000 006A     		ldr	r0, [r0, #32]
 2097              		@ lr needed for prologue
 2098              		@ sp needed for prologue
 2099 0002 7047     		bx	lr
 2101              		.section	.text.AT91F_ADC_GetConvertedDataCH0,"ax",%progbits
 2102              		.align	2
 2103              		.global	AT91F_ADC_GetConvertedDataCH0
 2104              		.code 16
 2105              		.thumb_func
 2107              	AT91F_ADC_GetConvertedDataCH0:
 2108 0000 006B     		ldr	r0, [r0, #48]
 2109              		@ lr needed for prologue
 2110              		@ sp needed for prologue
 2111 0002 7047     		bx	lr
 2113              		.section	.text.AT91F_ADC_GetConvertedDataCH1,"ax",%progbits
 2114              		.align	2
 2115              		.global	AT91F_ADC_GetConvertedDataCH1
 2116              		.code 16
 2117              		.thumb_func
 2119              	AT91F_ADC_GetConvertedDataCH1:
 2120 0000 406B     		ldr	r0, [r0, #52]
 2121              		@ lr needed for prologue
 2122              		@ sp needed for prologue
 2123 0002 7047     		bx	lr
 2125              		.section	.text.AT91F_ADC_GetConvertedDataCH2,"ax",%progbits
 2126              		.align	2
 2127              		.global	AT91F_ADC_GetConvertedDataCH2
 2128              		.code 16
 2129              		.thumb_func
 2131              	AT91F_ADC_GetConvertedDataCH2:
 2132 0000 806B     		ldr	r0, [r0, #56]
 2133              		@ lr needed for prologue
 2134              		@ sp needed for prologue
 2135 0002 7047     		bx	lr
 2137              		.section	.text.AT91F_ADC_GetConvertedDataCH3,"ax",%progbits
 2138              		.align	2
 2139              		.global	AT91F_ADC_GetConvertedDataCH3
 2140              		.code 16
 2141              		.thumb_func
 2143              	AT91F_ADC_GetConvertedDataCH3:
 2144 0000 C06B     		ldr	r0, [r0, #60]
 2145              		@ lr needed for prologue
 2146              		@ sp needed for prologue
 2147 0002 7047     		bx	lr
 2149              		.section	.text.AT91F_ADC_GetConvertedDataCH4,"ax",%progbits
 2150              		.align	2
 2151              		.global	AT91F_ADC_GetConvertedDataCH4
 2152              		.code 16
 2153              		.thumb_func
 2155              	AT91F_ADC_GetConvertedDataCH4:
 2156 0000 006C     		ldr	r0, [r0, #64]
 2157              		@ lr needed for prologue
 2158              		@ sp needed for prologue
 2159 0002 7047     		bx	lr
 2161              		.section	.text.AT91F_ADC_GetConvertedDataCH5,"ax",%progbits
 2162              		.align	2
 2163              		.global	AT91F_ADC_GetConvertedDataCH5
 2164              		.code 16
 2165              		.thumb_func
 2167              	AT91F_ADC_GetConvertedDataCH5:
 2168 0000 406C     		ldr	r0, [r0, #68]
 2169              		@ lr needed for prologue
 2170              		@ sp needed for prologue
 2171 0002 7047     		bx	lr
 2173              		.section	.text.AT91F_ADC_GetConvertedDataCH6,"ax",%progbits
 2174              		.align	2
 2175              		.global	AT91F_ADC_GetConvertedDataCH6
 2176              		.code 16
 2177              		.thumb_func
 2179              	AT91F_ADC_GetConvertedDataCH6:
 2180 0000 806C     		ldr	r0, [r0, #72]
 2181              		@ lr needed for prologue
 2182              		@ sp needed for prologue
 2183 0002 7047     		bx	lr
 2185              		.section	.text.AT91F_ADC_GetConvertedDataCH7,"ax",%progbits
 2186              		.align	2
 2187              		.global	AT91F_ADC_GetConvertedDataCH7
 2188              		.code 16
 2189              		.thumb_func
 2191              	AT91F_ADC_GetConvertedDataCH7:
 2192 0000 C06C     		ldr	r0, [r0, #76]
 2193              		@ lr needed for prologue
 2194              		@ sp needed for prologue
 2195 0002 7047     		bx	lr
 2197              		.global	__umodsi3
 2198              		.section	.text.AT91F_SSC_SetBaudrate,"ax",%progbits
 2199              		.align	2
 2200              		.global	AT91F_SSC_SetBaudrate
 2201              		.code 16
 2202              		.thumb_func
 2204              	AT91F_SSC_SetBaudrate:
 2205 0000 30B5     		push	{r4, r5, lr}
 2206 0002 051C     		mov	r5, r0
 2207 0004 002A     		cmp	r2, #0
 2208 0006 01D1     		bne	.L353
 2209 0008 0020     		mov	r0, #0
 2210 000a 15E0     		b	.L355
 2211              	.L353:
 2212 000c 8800     		lsl	r0, r1, #2
 2213 000e 4018     		add	r0, r0, r1
 2214 0010 4000     		lsl	r0, r0, #1
 2215 0012 5100     		lsl	r1, r2, #1
 2216 0014 FFF7FEFF 		bl	__udivsi3
 2217 0018 0A21     		mov	r1, #10
 2218 001a 041C     		mov	r4, r0
 2219 001c FFF7FEFF 		bl	__umodsi3
 2220 0020 0428     		cmp	r0, #4
 2221 0022 05D9     		bls	.L356
 2222 0024 201C     		mov	r0, r4
 2223 0026 0A21     		mov	r1, #10
 2224 0028 FFF7FEFF 		bl	__udivsi3
 2225 002c 0130     		add	r0, r0, #1
 2226 002e 03E0     		b	.L355
 2227              	.L356:
 2228 0030 201C     		mov	r0, r4
 2229 0032 0A21     		mov	r1, #10
 2230 0034 FFF7FEFF 		bl	__udivsi3
 2231              	.L355:
 2232 0038 6860     		str	r0, [r5, #4]
 2233              		@ sp needed for prologue
 2234 003a 30BC     		pop	{r4, r5}
 2235 003c 01BC     		pop	{r0}
 2236 003e 0047     		bx	r0
 2238              		.section	.text.AT91F_SSC_EnableRx,"ax",%progbits
 2239              		.align	2
 2240              		.global	AT91F_SSC_EnableRx
 2241              		.code 16
 2242              		.thumb_func
 2244              	AT91F_SSC_EnableRx:
 2245 0000 0123     		mov	r3, #1
 2246              		@ lr needed for prologue
 2247 0002 0360     		str	r3, [r0]
 2248              		@ sp needed for prologue
 2249 0004 7047     		bx	lr
 2251 0006 C046     		.section	.text.AT91F_SSC_DisableRx,"ax",%progbits
 2252              		.align	2
 2253              		.global	AT91F_SSC_DisableRx
 2254              		.code 16
 2255              		.thumb_func
 2257              	AT91F_SSC_DisableRx:
 2258 0000 0223     		mov	r3, #2
 2259              		@ lr needed for prologue
 2260 0002 0360     		str	r3, [r0]
 2261              		@ sp needed for prologue
 2262 0004 7047     		bx	lr
 2264 0006 C046     		.section	.text.AT91F_SSC_EnableTx,"ax",%progbits
 2265              		.align	2
 2266              		.global	AT91F_SSC_EnableTx
 2267              		.code 16
 2268              		.thumb_func
 2270              	AT91F_SSC_EnableTx:
 2271 0000 8023     		mov	r3, #128
 2272 0002 5B00     		lsl	r3, r3, #1
 2273              		@ lr needed for prologue
 2274 0004 0360     		str	r3, [r0]
 2275              		@ sp needed for prologue
 2276 0006 7047     		bx	lr
 2278              		.section	.text.AT91F_SSC_DisableTx,"ax",%progbits
 2279              		.align	2
 2280              		.global	AT91F_SSC_DisableTx
 2281              		.code 16
 2282              		.thumb_func
 2284              	AT91F_SSC_DisableTx:
 2285 0000 8023     		mov	r3, #128
 2286 0002 9B00     		lsl	r3, r3, #2
 2287              		@ lr needed for prologue
 2288 0004 0360     		str	r3, [r0]
 2289              		@ sp needed for prologue
 2290 0006 7047     		bx	lr
 2292              		.section	.text.AT91F_SSC_EnableIt,"ax",%progbits
 2293              		.align	2
 2294              		.global	AT91F_SSC_EnableIt
 2295              		.code 16
 2296              		.thumb_func
 2298              	AT91F_SSC_EnableIt:
 2299              		@ lr needed for prologue
 2300 0000 4164     		str	r1, [r0, #68]
 2301              		@ sp needed for prologue
 2302 0002 7047     		bx	lr
 2304              		.section	.text.AT91F_SSC_DisableIt,"ax",%progbits
 2305              		.align	2
 2306              		.global	AT91F_SSC_DisableIt
 2307              		.code 16
 2308              		.thumb_func
 2310              	AT91F_SSC_DisableIt:
 2311              		@ lr needed for prologue
 2312 0000 8164     		str	r1, [r0, #72]
 2313              		@ sp needed for prologue
 2314 0002 7047     		bx	lr
 2316              		.section	.text.AT91F_SSC_GetInterruptMaskStatus,"ax",%progbits
 2317              		.align	2
 2318              		.global	AT91F_SSC_GetInterruptMaskStatus
 2319              		.code 16
 2320              		.thumb_func
 2322              	AT91F_SSC_GetInterruptMaskStatus:
 2323 0000 C06C     		ldr	r0, [r0, #76]
 2324              		@ lr needed for prologue
 2325              		@ sp needed for prologue
 2326 0002 7047     		bx	lr
 2328              		.section	.text.AT91F_US_Baudrate,"ax",%progbits
 2329              		.align	2
 2330              		.global	AT91F_US_Baudrate
 2331              		.code 16
 2332              		.thumb_func
 2334              	AT91F_US_Baudrate:
 2335 0000 10B5     		push	{r4, lr}
 2336 0002 031C     		mov	r3, r0
 2337 0004 8000     		lsl	r0, r0, #2
 2338 0006 C018     		add	r0, r0, r3
 2339 0008 0901     		lsl	r1, r1, #4
 2340 000a 4000     		lsl	r0, r0, #1
 2341 000c FFF7FEFF 		bl	__udivsi3
 2342 0010 0A21     		mov	r1, #10
 2343 0012 041C     		mov	r4, r0
 2344 0014 FFF7FEFF 		bl	__umodsi3
 2345 0018 0428     		cmp	r0, #4
 2346 001a 05D9     		bls	.L374
 2347 001c 201C     		mov	r0, r4
 2348 001e 0A21     		mov	r1, #10
 2349 0020 FFF7FEFF 		bl	__udivsi3
 2350 0024 0130     		add	r0, r0, #1
 2351 0026 03E0     		b	.L376
 2352              	.L374:
 2353 0028 201C     		mov	r0, r4
 2354 002a 0A21     		mov	r1, #10
 2355 002c FFF7FEFF 		bl	__udivsi3
 2356              	.L376:
 2357              		@ sp needed for prologue
 2358 0030 10BC     		pop	{r4}
 2359 0032 02BC     		pop	{r1}
 2360 0034 0847     		bx	r1
 2362 0036 C046     		.section	.text.AT91F_US_SetBaudrate,"ax",%progbits
 2363              		.align	2
 2364              		.global	AT91F_US_SetBaudrate
 2365              		.code 16
 2366              		.thumb_func
 2368              	AT91F_US_SetBaudrate:
 2369 0000 10B5     		push	{r4, lr}
 2370 0002 041C     		mov	r4, r0
 2371 0004 081C     		mov	r0, r1
 2372 0006 111C     		mov	r1, r2
 2373 0008 FFF7FEFF 		bl	AT91F_US_Baudrate
 2374              		@ sp needed for prologue
 2375 000c 2062     		str	r0, [r4, #32]
 2376 000e 10BC     		pop	{r4}
 2377 0010 01BC     		pop	{r0}
 2378 0012 0047     		bx	r0
 2380              		.section	.text.AT91F_US_SetTimeguard,"ax",%progbits
 2381              		.align	2
 2382              		.global	AT91F_US_SetTimeguard
 2383              		.code 16
 2384              		.thumb_func
 2386              	AT91F_US_SetTimeguard:
 2387              		@ lr needed for prologue
 2388 0000 8162     		str	r1, [r0, #40]
 2389              		@ sp needed for prologue
 2390 0002 7047     		bx	lr
 2392              		.section	.text.AT91F_US_EnableIt,"ax",%progbits
 2393              		.align	2
 2394              		.global	AT91F_US_EnableIt
 2395              		.code 16
 2396              		.thumb_func
 2398              	AT91F_US_EnableIt:
 2399              		@ lr needed for prologue
 2400 0000 8160     		str	r1, [r0, #8]
 2401              		@ sp needed for prologue
 2402 0002 7047     		bx	lr
 2404              		.section	.text.AT91F_US_DisableIt,"ax",%progbits
 2405              		.align	2
 2406              		.global	AT91F_US_DisableIt
 2407              		.code 16
 2408              		.thumb_func
 2410              	AT91F_US_DisableIt:
 2411              		@ lr needed for prologue
 2412 0000 C160     		str	r1, [r0, #12]
 2413              		@ sp needed for prologue
 2414 0002 7047     		bx	lr
 2416              		.section	.text.AT91F_US_EnableRx,"ax",%progbits
 2417              		.align	2
 2418              		.global	AT91F_US_EnableRx
 2419              		.code 16
 2420              		.thumb_func
 2422              	AT91F_US_EnableRx:
 2423 0000 1023     		mov	r3, #16
 2424              		@ lr needed for prologue
 2425 0002 0360     		str	r3, [r0]
 2426              		@ sp needed for prologue
 2427 0004 7047     		bx	lr
 2429 0006 C046     		.section	.text.AT91F_US_EnableTx,"ax",%progbits
 2430              		.align	2
 2431              		.global	AT91F_US_EnableTx
 2432              		.code 16
 2433              		.thumb_func
 2435              	AT91F_US_EnableTx:
 2436 0000 4023     		mov	r3, #64
 2437              		@ lr needed for prologue
 2438 0002 0360     		str	r3, [r0]
 2439              		@ sp needed for prologue
 2440 0004 7047     		bx	lr
 2442 0006 C046     		.section	.text.AT91F_US_ResetRx,"ax",%progbits
 2443              		.align	2
 2444              		.global	AT91F_US_ResetRx
 2445              		.code 16
 2446              		.thumb_func
 2448              	AT91F_US_ResetRx:
 2449 0000 0423     		mov	r3, #4
 2450 0002 0360     		str	r3, [r0]
 2451 0004 1023     		mov	r3, #16
 2452              		@ lr needed for prologue
 2453 0006 0360     		str	r3, [r0]
 2454              		@ sp needed for prologue
 2455 0008 7047     		bx	lr
 2457 000a C046     		.section	.text.AT91F_US_ResetTx,"ax",%progbits
 2458              		.align	2
 2459              		.global	AT91F_US_ResetTx
 2460              		.code 16
 2461              		.thumb_func
 2463              	AT91F_US_ResetTx:
 2464 0000 0823     		mov	r3, #8
 2465 0002 0360     		str	r3, [r0]
 2466 0004 4023     		mov	r3, #64
 2467              		@ lr needed for prologue
 2468 0006 0360     		str	r3, [r0]
 2469              		@ sp needed for prologue
 2470 0008 7047     		bx	lr
 2472 000a C046     		.section	.text.AT91F_US_DisableRx,"ax",%progbits
 2473              		.align	2
 2474              		.global	AT91F_US_DisableRx
 2475              		.code 16
 2476              		.thumb_func
 2478              	AT91F_US_DisableRx:
 2479 0000 2023     		mov	r3, #32
 2480              		@ lr needed for prologue
 2481 0002 0360     		str	r3, [r0]
 2482              		@ sp needed for prologue
 2483 0004 7047     		bx	lr
 2485 0006 C046     		.section	.text.AT91F_US_DisableTx,"ax",%progbits
 2486              		.align	2
 2487              		.global	AT91F_US_DisableTx
 2488              		.code 16
 2489              		.thumb_func
 2491              	AT91F_US_DisableTx:
 2492 0000 8023     		mov	r3, #128
 2493              		@ lr needed for prologue
 2494 0002 0360     		str	r3, [r0]
 2495              		@ sp needed for prologue
 2496 0004 7047     		bx	lr
 2498 0006 C046     		.section	.text.AT91F_US_TxReady,"ax",%progbits
 2499              		.align	2
 2500              		.global	AT91F_US_TxReady
 2501              		.code 16
 2502              		.thumb_func
 2504              	AT91F_US_TxReady:
 2505 0000 4069     		ldr	r0, [r0, #20]
 2506 0002 0223     		mov	r3, #2
 2507 0004 1840     		and	r0, r0, r3
 2508              		@ lr needed for prologue
 2509              		@ sp needed for prologue
 2510 0006 7047     		bx	lr
 2512              		.section	.text.AT91F_US_RxReady,"ax",%progbits
 2513              		.align	2
 2514              		.global	AT91F_US_RxReady
 2515              		.code 16
 2516              		.thumb_func
 2518              	AT91F_US_RxReady:
 2519 0000 4069     		ldr	r0, [r0, #20]
 2520 0002 0123     		mov	r3, #1
 2521 0004 1840     		and	r0, r0, r3
 2522              		@ lr needed for prologue
 2523              		@ sp needed for prologue
 2524 0006 7047     		bx	lr
 2526              		.section	.text.AT91F_US_Error,"ax",%progbits
 2527              		.align	2
 2528              		.global	AT91F_US_Error
 2529              		.code 16
 2530              		.thumb_func
 2532              	AT91F_US_Error:
 2533 0000 4069     		ldr	r0, [r0, #20]
 2534 0002 E023     		mov	r3, #224
 2535 0004 1840     		and	r0, r0, r3
 2536              		@ lr needed for prologue
 2537              		@ sp needed for prologue
 2538 0006 7047     		bx	lr
 2540              		.section	.text.AT91F_US_PutChar,"ax",%progbits
 2541              		.align	2
 2542              		.global	AT91F_US_PutChar
 2543              		.code 16
 2544              		.thumb_func
 2546              	AT91F_US_PutChar:
 2547 0000 014B     		ldr	r3, .L406
 2548 0002 1940     		and	r1, r1, r3
 2549              		@ lr needed for prologue
 2550 0004 C161     		str	r1, [r0, #28]
 2551              		@ sp needed for prologue
 2552 0006 7047     		bx	lr
 2553              	.L407:
 2554              		.align	2
 2555              	.L406:
 2556 0008 FF010000 		.word	511
 2558              		.section	.text.AT91F_US_GetChar,"ax",%progbits
 2559              		.align	2
 2560              		.global	AT91F_US_GetChar
 2561              		.code 16
 2562              		.thumb_func
 2564              	AT91F_US_GetChar:
 2565 0000 8069     		ldr	r0, [r0, #24]
 2566 0002 014B     		ldr	r3, .L410
 2567 0004 1840     		and	r0, r0, r3
 2568              		@ lr needed for prologue
 2569              		@ sp needed for prologue
 2570 0006 7047     		bx	lr
 2571              	.L411:
 2572              		.align	2
 2573              	.L410:
 2574 0008 FF010000 		.word	511
 2576              		.section	.text.AT91F_US_SetIrdaFilter,"ax",%progbits
 2577              		.align	2
 2578              		.global	AT91F_US_SetIrdaFilter
 2579              		.code 16
 2580              		.thumb_func
 2582              	AT91F_US_SetIrdaFilter:
 2583 0000 0906     		lsl	r1, r1, #24
 2584 0002 090E     		lsr	r1, r1, #24
 2585              		@ lr needed for prologue
 2586 0004 C164     		str	r1, [r0, #76]
 2587              		@ sp needed for prologue
 2588 0006 7047     		bx	lr
 2590              		.section	.text.AT91F_TWI_EnableIt,"ax",%progbits
 2591              		.align	2
 2592              		.global	AT91F_TWI_EnableIt
 2593              		.code 16
 2594              		.thumb_func
 2596              	AT91F_TWI_EnableIt:
 2597              		@ lr needed for prologue
 2598 0000 4162     		str	r1, [r0, #36]
 2599              		@ sp needed for prologue
 2600 0002 7047     		bx	lr
 2602              		.section	.text.AT91F_TWI_DisableIt,"ax",%progbits
 2603              		.align	2
 2604              		.global	AT91F_TWI_DisableIt
 2605              		.code 16
 2606              		.thumb_func
 2608              	AT91F_TWI_DisableIt:
 2609              		@ lr needed for prologue
 2610 0000 8162     		str	r1, [r0, #40]
 2611              		@ sp needed for prologue
 2612 0002 7047     		bx	lr
 2614              		.section	.text.AT91F_TWI_Configure,"ax",%progbits
 2615              		.align	2
 2616              		.global	AT91F_TWI_Configure
 2617              		.code 16
 2618              		.thumb_func
 2620              	AT91F_TWI_Configure:
 2621 0000 0123     		mov	r3, #1
 2622 0002 5B42     		neg	r3, r3
 2623 0004 8362     		str	r3, [r0, #40]
 2624 0006 8023     		mov	r3, #128
 2625 0008 0360     		str	r3, [r0]
 2626 000a 0423     		mov	r3, #4
 2627              		@ lr needed for prologue
 2628 000c 0360     		str	r3, [r0]
 2629              		@ sp needed for prologue
 2630 000e 7047     		bx	lr
 2632              		.section	.text.AT91F_TWI_GetInterruptMaskStatus,"ax",%progbits
 2633              		.align	2
 2634              		.global	AT91F_TWI_GetInterruptMaskStatus
 2635              		.code 16
 2636              		.thumb_func
 2638              	AT91F_TWI_GetInterruptMaskStatus:
 2639 0000 C06A     		ldr	r0, [r0, #44]
 2640              		@ lr needed for prologue
 2641              		@ sp needed for prologue
 2642 0002 7047     		bx	lr
 2644              		.section	.text.AT91F_TC_InterruptEnable,"ax",%progbits
 2645              		.align	2
 2646              		.global	AT91F_TC_InterruptEnable
 2647              		.code 16
 2648              		.thumb_func
 2650              	AT91F_TC_InterruptEnable:
 2651              		@ lr needed for prologue
 2652 0000 4162     		str	r1, [r0, #36]
 2653              		@ sp needed for prologue
 2654 0002 7047     		bx	lr
 2656              		.section	.text.AT91F_TC_InterruptDisable,"ax",%progbits
 2657              		.align	2
 2658              		.global	AT91F_TC_InterruptDisable
 2659              		.code 16
 2660              		.thumb_func
 2662              	AT91F_TC_InterruptDisable:
 2663              		@ lr needed for prologue
 2664 0000 8162     		str	r1, [r0, #40]
 2665              		@ sp needed for prologue
 2666 0002 7047     		bx	lr
 2668              		.section	.text.AT91F_TC_GetInterruptMaskStatus,"ax",%progbits
 2669              		.align	2
 2670              		.global	AT91F_TC_GetInterruptMaskStatus
 2671              		.code 16
 2672              		.thumb_func
 2674              	AT91F_TC_GetInterruptMaskStatus:
 2675 0000 C06A     		ldr	r0, [r0, #44]
 2676              		@ lr needed for prologue
 2677              		@ sp needed for prologue
 2678 0002 7047     		bx	lr
 2680              		.section	.text.AT91F_PWMC_GetStatus,"ax",%progbits
 2681              		.align	2
 2682              		.global	AT91F_PWMC_GetStatus
 2683              		.code 16
 2684              		.thumb_func
 2686              	AT91F_PWMC_GetStatus:
 2687 0000 C068     		ldr	r0, [r0, #12]
 2688              		@ lr needed for prologue
 2689              		@ sp needed for prologue
 2690 0002 7047     		bx	lr
 2692              		.section	.text.AT91F_PWMC_InterruptEnable,"ax",%progbits
 2693              		.align	2
 2694              		.global	AT91F_PWMC_InterruptEnable
 2695              		.code 16
 2696              		.thumb_func
 2698              	AT91F_PWMC_InterruptEnable:
 2699              		@ lr needed for prologue
 2700 0000 0161     		str	r1, [r0, #16]
 2701              		@ sp needed for prologue
 2702 0002 7047     		bx	lr
 2704              		.section	.text.AT91F_PWMC_InterruptDisable,"ax",%progbits
 2705              		.align	2
 2706              		.global	AT91F_PWMC_InterruptDisable
 2707              		.code 16
 2708              		.thumb_func
 2710              	AT91F_PWMC_InterruptDisable:
 2711              		@ lr needed for prologue
 2712 0000 4161     		str	r1, [r0, #20]
 2713              		@ sp needed for prologue
 2714 0002 7047     		bx	lr
 2716              		.section	.text.AT91F_PWMC_GetInterruptMaskStatus,"ax",%progbits
 2717              		.align	2
 2718              		.global	AT91F_PWMC_GetInterruptMaskStatus
 2719              		.code 16
 2720              		.thumb_func
 2722              	AT91F_PWMC_GetInterruptMaskStatus:
 2723 0000 8069     		ldr	r0, [r0, #24]
 2724              		@ lr needed for prologue
 2725              		@ sp needed for prologue
 2726 0002 7047     		bx	lr
 2728              		.section	.text.AT91F_PWMC_CfgChannel,"ax",%progbits
 2729              		.align	2
 2730              		.global	AT91F_PWMC_CfgChannel
 2731              		.code 16
 2732              		.thumb_func
 2734              	AT91F_PWMC_CfgChannel:
 2735 0000 30B5     		push	{r4, r5, lr}
 2736 0002 4901     		lsl	r1, r1, #5
 2737 0004 8025     		mov	r5, #128
 2738 0006 0918     		add	r1, r1, r0
 2739 0008 AD00     		lsl	r5, r5, #2
 2740 000a 4819     		add	r0, r1, r5
 2741 000c 039C     		ldr	r4, [sp, #12]
 2742 000e 0260     		str	r2, [r0]
 2743 0010 8120     		mov	r0, #129
 2744 0012 8000     		lsl	r0, r0, #2
 2745 0014 0A18     		add	r2, r1, r0
 2746 0016 1460     		str	r4, [r2]
 2747 0018 8222     		mov	r2, #130
 2748 001a 9200     		lsl	r2, r2, #2
 2749 001c 8918     		add	r1, r1, r2
 2750 001e 0B60     		str	r3, [r1]
 2751              		@ sp needed for prologue
 2752 0020 30BC     		pop	{r4, r5}
 2753 0022 01BC     		pop	{r0}
 2754 0024 0047     		bx	r0
 2756 0026 C046     		.section	.text.AT91F_PWMC_StartChannel,"ax",%progbits
 2757              		.align	2
 2758              		.global	AT91F_PWMC_StartChannel
 2759              		.code 16
 2760              		.thumb_func
 2762              	AT91F_PWMC_StartChannel:
 2763              		@ lr needed for prologue
 2764 0000 4160     		str	r1, [r0, #4]
 2765              		@ sp needed for prologue
 2766 0002 7047     		bx	lr
 2768              		.section	.text.AT91F_PWMC_StopChannel,"ax",%progbits
 2769              		.align	2
 2770              		.global	AT91F_PWMC_StopChannel
 2771              		.code 16
 2772              		.thumb_func
 2774              	AT91F_PWMC_StopChannel:
 2775              		@ lr needed for prologue
 2776 0000 8160     		str	r1, [r0, #8]
 2777              		@ sp needed for prologue
 2778 0002 7047     		bx	lr
 2780              		.section	.text.AT91F_PWMC_UpdateChannel,"ax",%progbits
 2781              		.align	2
 2782              		.global	AT91F_PWMC_UpdateChannel
 2783              		.code 16
 2784              		.thumb_func
 2786              	AT91F_PWMC_UpdateChannel:
 2787 0000 4901     		lsl	r1, r1, #5
 2788 0002 8423     		mov	r3, #132
 2789 0004 0918     		add	r1, r1, r0
 2790 0006 9B00     		lsl	r3, r3, #2
 2791 0008 C918     		add	r1, r1, r3
 2792              		@ lr needed for prologue
 2793 000a 0A60     		str	r2, [r1]
 2794              		@ sp needed for prologue
 2795 000c 7047     		bx	lr
 2797 000e C046     		.section	.text.AT91F_UDP_EnableIt,"ax",%progbits
 2798              		.align	2
 2799              		.global	AT91F_UDP_EnableIt
 2800              		.code 16
 2801              		.thumb_func
 2803              	AT91F_UDP_EnableIt:
 2804              		@ lr needed for prologue
 2805 0000 0161     		str	r1, [r0, #16]
 2806              		@ sp needed for prologue
 2807 0002 7047     		bx	lr
 2809              		.section	.text.AT91F_UDP_DisableIt,"ax",%progbits
 2810              		.align	2
 2811              		.global	AT91F_UDP_DisableIt
 2812              		.code 16
 2813              		.thumb_func
 2815              	AT91F_UDP_DisableIt:
 2816              		@ lr needed for prologue
 2817 0000 4161     		str	r1, [r0, #20]
 2818              		@ sp needed for prologue
 2819 0002 7047     		bx	lr
 2821              		.section	.text.AT91F_UDP_SetAddress,"ax",%progbits
 2822              		.align	2
 2823              		.global	AT91F_UDP_SetAddress
 2824              		.code 16
 2825              		.thumb_func
 2827              	AT91F_UDP_SetAddress:
 2828 0000 0906     		lsl	r1, r1, #24
 2829 0002 8023     		mov	r3, #128
 2830 0004 5B00     		lsl	r3, r3, #1
 2831 0006 090E     		lsr	r1, r1, #24
 2832 0008 1943     		orr	r1, r1, r3
 2833              		@ lr needed for prologue
 2834 000a 8160     		str	r1, [r0, #8]
 2835              		@ sp needed for prologue
 2836 000c 7047     		bx	lr
 2838 000e C046     		.section	.text.AT91F_UDP_EnableEp,"ax",%progbits
 2839              		.align	2
 2840              		.global	AT91F_UDP_EnableEp
 2841              		.code 16
 2842              		.thumb_func
 2844              	AT91F_UDP_EnableEp:
 2845 0000 0906     		lsl	r1, r1, #24
 2846 0002 890D     		lsr	r1, r1, #22
 2847 0004 0918     		add	r1, r1, r0
 2848 0006 0A6B     		ldr	r2, [r1, #48]
 2849 0008 8023     		mov	r3, #128
 2850 000a 1B02     		lsl	r3, r3, #8
 2851 000c 1A43     		orr	r2, r2, r3
 2852              		@ lr needed for prologue
 2853 000e 0A63     		str	r2, [r1, #48]
 2854              		@ sp needed for prologue
 2855 0010 7047     		bx	lr
 2857 0012 C046     		.section	.text.AT91F_UDP_DisableEp,"ax",%progbits
 2858              		.align	2
 2859              		.global	AT91F_UDP_DisableEp
 2860              		.code 16
 2861              		.thumb_func
 2863              	AT91F_UDP_DisableEp:
 2864 0000 0906     		lsl	r1, r1, #24
 2865 0002 890D     		lsr	r1, r1, #22
 2866 0004 0918     		add	r1, r1, r0
 2867 0006 0B6B     		ldr	r3, [r1, #48]
 2868 0008 014A     		ldr	r2, .L454
 2869 000a 1340     		and	r3, r3, r2
 2870              		@ lr needed for prologue
 2871 000c 0B63     		str	r3, [r1, #48]
 2872              		@ sp needed for prologue
 2873 000e 7047     		bx	lr
 2874              	.L455:
 2875              		.align	2
 2876              	.L454:
 2877 0010 FF7FFFFF 		.word	-32769
 2879              		.section	.text.AT91F_UDP_SetState,"ax",%progbits
 2880              		.align	2
 2881              		.global	AT91F_UDP_SetState
 2882              		.code 16
 2883              		.thumb_func
 2885              	AT91F_UDP_SetState:
 2886 0000 4368     		ldr	r3, [r0, #4]
 2887 0002 0322     		mov	r2, #3
 2888 0004 9343     		bic	r3, r3, r2
 2889 0006 4360     		str	r3, [r0, #4]
 2890 0008 4368     		ldr	r3, [r0, #4]
 2891 000a 0B43     		orr	r3, r3, r1
 2892              		@ lr needed for prologue
 2893 000c 4360     		str	r3, [r0, #4]
 2894              		@ sp needed for prologue
 2895 000e 7047     		bx	lr
 2897              		.section	.text.AT91F_UDP_GetState,"ax",%progbits
 2898              		.align	2
 2899              		.global	AT91F_UDP_GetState
 2900              		.code 16
 2901              		.thumb_func
 2903              	AT91F_UDP_GetState:
 2904 0000 4068     		ldr	r0, [r0, #4]
 2905 0002 0323     		mov	r3, #3
 2906 0004 1840     		and	r0, r0, r3
 2907              		@ lr needed for prologue
 2908              		@ sp needed for prologue
 2909 0006 7047     		bx	lr
 2911              		.section	.text.AT91F_UDP_ResetEp,"ax",%progbits
 2912              		.align	2
 2913              		.global	AT91F_UDP_ResetEp
 2914              		.code 16
 2915              		.thumb_func
 2917              	AT91F_UDP_ResetEp:
 2918 0000 0023     		mov	r3, #0
 2919 0002 8162     		str	r1, [r0, #40]
 2920              		@ lr needed for prologue
 2921 0004 8362     		str	r3, [r0, #40]
 2922              		@ sp needed for prologue
 2923 0006 7047     		bx	lr
 2925              		.section	.text.AT91F_UDP_EpStall,"ax",%progbits
 2926              		.align	2
 2927              		.global	AT91F_UDP_EpStall
 2928              		.code 16
 2929              		.thumb_func
 2931              	AT91F_UDP_EpStall:
 2932 0000 0906     		lsl	r1, r1, #24
 2933 0002 890D     		lsr	r1, r1, #22
 2934 0004 0918     		add	r1, r1, r0
 2935 0006 0B6B     		ldr	r3, [r1, #48]
 2936 0008 2022     		mov	r2, #32
 2937 000a 1343     		orr	r3, r3, r2
 2938              		@ lr needed for prologue
 2939 000c 0B63     		str	r3, [r1, #48]
 2940              		@ sp needed for prologue
 2941 000e 7047     		bx	lr
 2943              		.section	.text.AT91F_UDP_EpWrite,"ax",%progbits
 2944              		.align	2
 2945              		.global	AT91F_UDP_EpWrite
 2946              		.code 16
 2947              		.thumb_func
 2949              	AT91F_UDP_EpWrite:
 2950 0000 0906     		lsl	r1, r1, #24
 2951 0002 1206     		lsl	r2, r2, #24
 2952 0004 890D     		lsr	r1, r1, #22
 2953 0006 120E     		lsr	r2, r2, #24
 2954 0008 0918     		add	r1, r1, r0
 2955              		@ lr needed for prologue
 2956 000a 0A65     		str	r2, [r1, #80]
 2957              		@ sp needed for prologue
 2958 000c 7047     		bx	lr
 2960 000e C046     		.section	.text.AT91F_UDP_EpRead,"ax",%progbits
 2961              		.align	2
 2962              		.global	AT91F_UDP_EpRead
 2963              		.code 16
 2964              		.thumb_func
 2966              	AT91F_UDP_EpRead:
 2967 0000 0906     		lsl	r1, r1, #24
 2968 0002 890D     		lsr	r1, r1, #22
 2969 0004 0918     		add	r1, r1, r0
 2970 0006 086D     		ldr	r0, [r1, #80]
 2971              		@ lr needed for prologue
 2972              		@ sp needed for prologue
 2973 0008 7047     		bx	lr
 2975 000a C046     		.section	.text.AT91F_UDP_EpEndOfWr,"ax",%progbits
 2976              		.align	2
 2977              		.global	AT91F_UDP_EpEndOfWr
 2978              		.code 16
 2979              		.thumb_func
 2981              	AT91F_UDP_EpEndOfWr:
 2982 0000 0906     		lsl	r1, r1, #24
 2983 0002 890D     		lsr	r1, r1, #22
 2984 0004 0918     		add	r1, r1, r0
 2985 0006 0B6B     		ldr	r3, [r1, #48]
 2986 0008 1022     		mov	r2, #16
 2987 000a 1343     		orr	r3, r3, r2
 2988              		@ lr needed for prologue
 2989 000c 0B63     		str	r3, [r1, #48]
 2990              		@ sp needed for prologue
 2991 000e 7047     		bx	lr
 2993              		.section	.text.AT91F_UDP_EpClear,"ax",%progbits
 2994              		.align	2
 2995              		.global	AT91F_UDP_EpClear
 2996              		.code 16
 2997              		.thumb_func
 2999              	AT91F_UDP_EpClear:
 3000 0000 0906     		lsl	r1, r1, #24
 3001 0002 890D     		lsr	r1, r1, #22
 3002 0004 0918     		add	r1, r1, r0
 3003 0006 0B6B     		ldr	r3, [r1, #48]
 3004 0008 9343     		bic	r3, r3, r2
 3005              		@ lr needed for prologue
 3006 000a 0B63     		str	r3, [r1, #48]
 3007              		@ sp needed for prologue
 3008 000c 7047     		bx	lr
 3010 000e C046     		.section	.text.AT91F_UDP_EpSet,"ax",%progbits
 3011              		.align	2
 3012              		.global	AT91F_UDP_EpSet
 3013              		.code 16
 3014              		.thumb_func
 3016              	AT91F_UDP_EpSet:
 3017 0000 0906     		lsl	r1, r1, #24
 3018 0002 890D     		lsr	r1, r1, #22
 3019 0004 0918     		add	r1, r1, r0
 3020 0006 0B6B     		ldr	r3, [r1, #48]
 3021 0008 1343     		orr	r3, r3, r2
 3022              		@ lr needed for prologue
 3023 000a 0B63     		str	r3, [r1, #48]
 3024              		@ sp needed for prologue
 3025 000c 7047     		bx	lr
 3027 000e C046     		.section	.text.AT91F_UDP_EpStatus,"ax",%progbits
 3028              		.align	2
 3029              		.global	AT91F_UDP_EpStatus
 3030              		.code 16
 3031              		.thumb_func
 3033              	AT91F_UDP_EpStatus:
 3034 0000 0906     		lsl	r1, r1, #24
 3035 0002 890D     		lsr	r1, r1, #22
 3036 0004 0918     		add	r1, r1, r0
 3037 0006 086B     		ldr	r0, [r1, #48]
 3038              		@ lr needed for prologue
 3039              		@ sp needed for prologue
 3040 0008 7047     		bx	lr
 3042 000a C046     		.section	.text.AT91F_UDP_GetInterruptMaskStatus,"ax",%progbits
 3043              		.align	2
 3044              		.global	AT91F_UDP_GetInterruptMaskStatus
 3045              		.code 16
 3046              		.thumb_func
 3048              	AT91F_UDP_GetInterruptMaskStatus:
 3049 0000 8069     		ldr	r0, [r0, #24]
 3050              		@ lr needed for prologue
 3051              		@ sp needed for prologue
 3052 0002 7047     		bx	lr
 3054              		.section	.text.AT91F_UDP_InterruptStatusRegister,"ax",%progbits
 3055              		.align	2
 3056              		.global	AT91F_UDP_InterruptStatusRegister
 3057              		.code 16
 3058              		.thumb_func
 3060              	AT91F_UDP_InterruptStatusRegister:
 3061 0000 C069     		ldr	r0, [r0, #28]
 3062              		@ lr needed for prologue
 3063              		@ sp needed for prologue
 3064 0002 7047     		bx	lr
 3066              		.section	.text.AT91F_UDP_InterruptClearRegister,"ax",%progbits
 3067              		.align	2
 3068              		.global	AT91F_UDP_InterruptClearRegister
 3069              		.code 16
 3070              		.thumb_func
 3072              	AT91F_UDP_InterruptClearRegister:
 3073              		@ lr needed for prologue
 3074 0000 0162     		str	r1, [r0, #32]
 3075              		@ sp needed for prologue
 3076 0002 7047     		bx	lr
 3078              		.section	.text.AT91F_UDP_EnableTransceiver,"ax",%progbits
 3079              		.align	2
 3080              		.global	AT91F_UDP_EnableTransceiver
 3081              		.code 16
 3082              		.thumb_func
 3084              	AT91F_UDP_EnableTransceiver:
 3085 0000 436F     		ldr	r3, [r0, #116]
 3086 0002 024A     		ldr	r2, .L484
 3087 0004 1340     		and	r3, r3, r2
 3088              		@ lr needed for prologue
 3089 0006 4367     		str	r3, [r0, #116]
 3090              		@ sp needed for prologue
 3091 0008 7047     		bx	lr
 3092              	.L485:
 3093 000a 0000     		.align	2
 3094              	.L484:
 3095 000c FFFEFFFF 		.word	-257
 3097              		.section	.text.AT91F_UDP_DisableTransceiver,"ax",%progbits
 3098              		.align	2
 3099              		.global	AT91F_UDP_DisableTransceiver
 3100              		.code 16
 3101              		.thumb_func
 3103              	AT91F_UDP_DisableTransceiver:
 3104 0000 8023     		mov	r3, #128
 3105 0002 5B00     		lsl	r3, r3, #1
 3106              		@ lr needed for prologue
 3107 0004 4367     		str	r3, [r0, #116]
 3108              		@ sp needed for prologue
 3109 0006 7047     		bx	lr
 3111              		.section	.text.AT91F_TC_Open,"ax",%progbits
 3112              		.align	2
 3113              		.global	AT91F_TC_Open
 3114              		.code 16
 3115              		.thumb_func
 3117              	AT91F_TC_Open:
 3118 0000 10B5     		push	{r4, lr}
 3119 0002 0124     		mov	r4, #1
 3120 0004 231C     		mov	r3, r4
 3121 0006 9340     		lsl	r3, r3, r2
 3122 0008 1A1C     		mov	r2, r3
 3123 000a 064B     		ldr	r3, .L490
 3124 000c 1A61     		str	r2, [r3, #16]
 3125 000e 0223     		mov	r3, #2
 3126 0010 0360     		str	r3, [r0]
 3127 0012 0123     		mov	r3, #1
 3128 0014 5B42     		neg	r3, r3
 3129 0016 8362     		str	r3, [r0, #40]
 3130 0018 036A     		ldr	r3, [r0, #32]
 3131              		@ sp needed for prologue
 3132 001a 4160     		str	r1, [r0, #4]
 3133 001c 0460     		str	r4, [r0]
 3134 001e 10BC     		pop	{r4}
 3135 0020 01BC     		pop	{r0}
 3136 0022 0047     		bx	r0
 3137              	.L491:
 3138              		.align	2
 3139              	.L490:
 3140 0024 00FCFFFF 		.word	-1024
 3142              		.section	.text.AT91F_MC_CfgPMC,"ax",%progbits
 3143              		.align	2
 3144              		.global	AT91F_MC_CfgPMC
 3145              		.code 16
 3146              		.thumb_func
 3148              	AT91F_MC_CfgPMC:
 3149 0000 014B     		ldr	r3, .L494
 3150 0002 0222     		mov	r2, #2
 3151              		@ lr needed for prologue
 3152 0004 1A61     		str	r2, [r3, #16]
 3153              		@ sp needed for prologue
 3154 0006 7047     		bx	lr
 3155              	.L495:
 3156              		.align	2
 3157              	.L494:
 3158 0008 00FCFFFF 		.word	-1024
 3160              		.section	.text.AT91F_DBGU_CfgPMC,"ax",%progbits
 3161              		.align	2
 3162              		.global	AT91F_DBGU_CfgPMC
 3163              		.code 16
 3164              		.thumb_func
 3166              	AT91F_DBGU_CfgPMC:
 3167 0000 014B     		ldr	r3, .L498
 3168 0002 0222     		mov	r2, #2
 3169              		@ lr needed for prologue
 3170 0004 1A61     		str	r2, [r3, #16]
 3171              		@ sp needed for prologue
 3172 0006 7047     		bx	lr
 3173              	.L499:
 3174              		.align	2
 3175              	.L498:
 3176 0008 00FCFFFF 		.word	-1024
 3178              		.section	.text.AT91F_VREG_CfgPMC,"ax",%progbits
 3179              		.align	2
 3180              		.global	AT91F_VREG_CfgPMC
 3181              		.code 16
 3182              		.thumb_func
 3184              	AT91F_VREG_CfgPMC:
 3185 0000 014B     		ldr	r3, .L502
 3186 0002 0222     		mov	r2, #2
 3187              		@ lr needed for prologue
 3188 0004 1A61     		str	r2, [r3, #16]
 3189              		@ sp needed for prologue
 3190 0006 7047     		bx	lr
 3191              	.L503:
 3192              		.align	2
 3193              	.L502:
 3194 0008 00FCFFFF 		.word	-1024
 3196              		.section	.text.AT91F_SSC_CfgPMC,"ax",%progbits
 3197              		.align	2
 3198              		.global	AT91F_SSC_CfgPMC
 3199              		.code 16
 3200              		.thumb_func
 3202              	AT91F_SSC_CfgPMC:
 3203 0000 024A     		ldr	r2, .L506
 3204 0002 8023     		mov	r3, #128
 3205 0004 5B00     		lsl	r3, r3, #1
 3206              		@ lr needed for prologue
 3207 0006 1361     		str	r3, [r2, #16]
 3208              		@ sp needed for prologue
 3209 0008 7047     		bx	lr
 3210              	.L507:
 3211 000a 0000     		.align	2
 3212              	.L506:
 3213 000c 00FCFFFF 		.word	-1024
 3215              		.section	.text.AT91F_SPI_CfgPMC,"ax",%progbits
 3216              		.align	2
 3217              		.global	AT91F_SPI_CfgPMC
 3218              		.code 16
 3219              		.thumb_func
 3221              	AT91F_SPI_CfgPMC:
 3222 0000 014B     		ldr	r3, .L510
 3223 0002 2022     		mov	r2, #32
 3224              		@ lr needed for prologue
 3225 0004 1A61     		str	r2, [r3, #16]
 3226              		@ sp needed for prologue
 3227 0006 7047     		bx	lr
 3228              	.L511:
 3229              		.align	2
 3230              	.L510:
 3231 0008 00FCFFFF 		.word	-1024
 3233              		.section	.text.AT91F_PWMC_CfgPMC,"ax",%progbits
 3234              		.align	2
 3235              		.global	AT91F_PWMC_CfgPMC
 3236              		.code 16
 3237              		.thumb_func
 3239              	AT91F_PWMC_CfgPMC:
 3240 0000 024A     		ldr	r2, .L514
 3241 0002 8023     		mov	r3, #128
 3242 0004 DB00     		lsl	r3, r3, #3
 3243              		@ lr needed for prologue
 3244 0006 1361     		str	r3, [r2, #16]
 3245              		@ sp needed for prologue
 3246 0008 7047     		bx	lr
 3247              	.L515:
 3248 000a 0000     		.align	2
 3249              	.L514:
 3250 000c 00FCFFFF 		.word	-1024
 3252              		.section	.text.AT91F_TC0_CfgPMC,"ax",%progbits
 3253              		.align	2
 3254              		.global	AT91F_TC0_CfgPMC
 3255              		.code 16
 3256              		.thumb_func
 3258              	AT91F_TC0_CfgPMC:
 3259 0000 024A     		ldr	r2, .L518
 3260 0002 8023     		mov	r3, #128
 3261 0004 5B01     		lsl	r3, r3, #5
 3262              		@ lr needed for prologue
 3263 0006 1361     		str	r3, [r2, #16]
 3264              		@ sp needed for prologue
 3265 0008 7047     		bx	lr
 3266              	.L519:
 3267 000a 0000     		.align	2
 3268              	.L518:
 3269 000c 00FCFFFF 		.word	-1024
 3271              		.section	.text.AT91F_TC1_CfgPMC,"ax",%progbits
 3272              		.align	2
 3273              		.global	AT91F_TC1_CfgPMC
 3274              		.code 16
 3275              		.thumb_func
 3277              	AT91F_TC1_CfgPMC:
 3278 0000 024A     		ldr	r2, .L522
 3279 0002 8023     		mov	r3, #128
 3280 0004 9B01     		lsl	r3, r3, #6
 3281              		@ lr needed for prologue
 3282 0006 1361     		str	r3, [r2, #16]
 3283              		@ sp needed for prologue
 3284 0008 7047     		bx	lr
 3285              	.L523:
 3286 000a 0000     		.align	2
 3287              	.L522:
 3288 000c 00FCFFFF 		.word	-1024
 3290              		.section	.text.AT91F_TC2_CfgPMC,"ax",%progbits
 3291              		.align	2
 3292              		.global	AT91F_TC2_CfgPMC
 3293              		.code 16
 3294              		.thumb_func
 3296              	AT91F_TC2_CfgPMC:
 3297 0000 024A     		ldr	r2, .L526
 3298 0002 8023     		mov	r3, #128
 3299 0004 DB01     		lsl	r3, r3, #7
 3300              		@ lr needed for prologue
 3301 0006 1361     		str	r3, [r2, #16]
 3302              		@ sp needed for prologue
 3303 0008 7047     		bx	lr
 3304              	.L527:
 3305 000a 0000     		.align	2
 3306              	.L526:
 3307 000c 00FCFFFF 		.word	-1024
 3309              		.section	.text.AT91F_PITC_CfgPMC,"ax",%progbits
 3310              		.align	2
 3311              		.global	AT91F_PITC_CfgPMC
 3312              		.code 16
 3313              		.thumb_func
 3315              	AT91F_PITC_CfgPMC:
 3316 0000 014B     		ldr	r3, .L530
 3317 0002 0222     		mov	r2, #2
 3318              		@ lr needed for prologue
 3319 0004 1A61     		str	r2, [r3, #16]
 3320              		@ sp needed for prologue
 3321 0006 7047     		bx	lr
 3322              	.L531:
 3323              		.align	2
 3324              	.L530:
 3325 0008 00FCFFFF 		.word	-1024
 3327              		.section	.text.AT91F_PMC_CfgPMC,"ax",%progbits
 3328              		.align	2
 3329              		.global	AT91F_PMC_CfgPMC
 3330              		.code 16
 3331              		.thumb_func
 3333              	AT91F_PMC_CfgPMC:
 3334 0000 014B     		ldr	r3, .L534
 3335 0002 0222     		mov	r2, #2
 3336              		@ lr needed for prologue
 3337 0004 1A61     		str	r2, [r3, #16]
 3338              		@ sp needed for prologue
 3339 0006 7047     		bx	lr
 3340              	.L535:
 3341              		.align	2
 3342              	.L534:
 3343 0008 00FCFFFF 		.word	-1024
 3345              		.section	.text.AT91F_ADC_CfgPMC,"ax",%progbits
 3346              		.align	2
 3347              		.global	AT91F_ADC_CfgPMC
 3348              		.code 16
 3349              		.thumb_func
 3351              	AT91F_ADC_CfgPMC:
 3352 0000 014B     		ldr	r3, .L538
 3353 0002 1022     		mov	r2, #16
 3354              		@ lr needed for prologue
 3355 0004 1A61     		str	r2, [r3, #16]
 3356              		@ sp needed for prologue
 3357 0006 7047     		bx	lr
 3358              	.L539:
 3359              		.align	2
 3360              	.L538:
 3361 0008 00FCFFFF 		.word	-1024
 3363              		.section	.text.AT91F_RSTC_CfgPMC,"ax",%progbits
 3364              		.align	2
 3365              		.global	AT91F_RSTC_CfgPMC
 3366              		.code 16
 3367              		.thumb_func
 3369              	AT91F_RSTC_CfgPMC:
 3370 0000 014B     		ldr	r3, .L542
 3371 0002 0222     		mov	r2, #2
 3372              		@ lr needed for prologue
 3373 0004 1A61     		str	r2, [r3, #16]
 3374              		@ sp needed for prologue
 3375 0006 7047     		bx	lr
 3376              	.L543:
 3377              		.align	2
 3378              	.L542:
 3379 0008 00FCFFFF 		.word	-1024
 3381              		.section	.text.AT91F_RTTC_CfgPMC,"ax",%progbits
 3382              		.align	2
 3383              		.global	AT91F_RTTC_CfgPMC
 3384              		.code 16
 3385              		.thumb_func
 3387              	AT91F_RTTC_CfgPMC:
 3388 0000 014B     		ldr	r3, .L546
 3389 0002 0222     		mov	r2, #2
 3390              		@ lr needed for prologue
 3391 0004 1A61     		str	r2, [r3, #16]
 3392              		@ sp needed for prologue
 3393 0006 7047     		bx	lr
 3394              	.L547:
 3395              		.align	2
 3396              	.L546:
 3397 0008 00FCFFFF 		.word	-1024
 3399              		.section	.text.AT91F_PIOA_CfgPMC,"ax",%progbits
 3400              		.align	2
 3401              		.global	AT91F_PIOA_CfgPMC
 3402              		.code 16
 3403              		.thumb_func
 3405              	AT91F_PIOA_CfgPMC:
 3406 0000 014B     		ldr	r3, .L550
 3407 0002 0422     		mov	r2, #4
 3408              		@ lr needed for prologue
 3409 0004 1A61     		str	r2, [r3, #16]
 3410              		@ sp needed for prologue
 3411 0006 7047     		bx	lr
 3412              	.L551:
 3413              		.align	2
 3414              	.L550:
 3415 0008 00FCFFFF 		.word	-1024
 3417              		.section	.text.AT91F_TWI_CfgPMC,"ax",%progbits
 3418              		.align	2
 3419              		.global	AT91F_TWI_CfgPMC
 3420              		.code 16
 3421              		.thumb_func
 3423              	AT91F_TWI_CfgPMC:
 3424 0000 024A     		ldr	r2, .L554
 3425 0002 8023     		mov	r3, #128
 3426 0004 9B00     		lsl	r3, r3, #2
 3427              		@ lr needed for prologue
 3428 0006 1361     		str	r3, [r2, #16]
 3429              		@ sp needed for prologue
 3430 0008 7047     		bx	lr
 3431              	.L555:
 3432 000a 0000     		.align	2
 3433              	.L554:
 3434 000c 00FCFFFF 		.word	-1024
 3436              		.section	.text.AT91F_WDTC_CfgPMC,"ax",%progbits
 3437              		.align	2
 3438              		.global	AT91F_WDTC_CfgPMC
 3439              		.code 16
 3440              		.thumb_func
 3442              	AT91F_WDTC_CfgPMC:
 3443 0000 014B     		ldr	r3, .L558
 3444 0002 0222     		mov	r2, #2
 3445              		@ lr needed for prologue
 3446 0004 1A61     		str	r2, [r3, #16]
 3447              		@ sp needed for prologue
 3448 0006 7047     		bx	lr
 3449              	.L559:
 3450              		.align	2
 3451              	.L558:
 3452 0008 00FCFFFF 		.word	-1024
 3454              		.section	.text.AT91F_US1_CfgPMC,"ax",%progbits
 3455              		.align	2
 3456              		.global	AT91F_US1_CfgPMC
 3457              		.code 16
 3458              		.thumb_func
 3460              	AT91F_US1_CfgPMC:
 3461 0000 014B     		ldr	r3, .L562
 3462 0002 8022     		mov	r2, #128
 3463              		@ lr needed for prologue
 3464 0004 1A61     		str	r2, [r3, #16]
 3465              		@ sp needed for prologue
 3466 0006 7047     		bx	lr
 3467              	.L563:
 3468              		.align	2
 3469              	.L562:
 3470 0008 00FCFFFF 		.word	-1024
 3472              		.section	.text.AT91F_US0_CfgPMC,"ax",%progbits
 3473              		.align	2
 3474              		.global	AT91F_US0_CfgPMC
 3475              		.code 16
 3476              		.thumb_func
 3478              	AT91F_US0_CfgPMC:
 3479 0000 014B     		ldr	r3, .L566
 3480 0002 4022     		mov	r2, #64
 3481              		@ lr needed for prologue
 3482 0004 1A61     		str	r2, [r3, #16]
 3483              		@ sp needed for prologue
 3484 0006 7047     		bx	lr
 3485              	.L567:
 3486              		.align	2
 3487              	.L566:
 3488 0008 00FCFFFF 		.word	-1024
 3490              		.section	.text.AT91F_UDP_CfgPMC,"ax",%progbits
 3491              		.align	2
 3492              		.global	AT91F_UDP_CfgPMC
 3493              		.code 16
 3494              		.thumb_func
 3496              	AT91F_UDP_CfgPMC:
 3497 0000 024A     		ldr	r2, .L570
 3498 0002 8023     		mov	r3, #128
 3499 0004 1B01     		lsl	r3, r3, #4
 3500              		@ lr needed for prologue
 3501 0006 1361     		str	r3, [r2, #16]
 3502              		@ sp needed for prologue
 3503 0008 7047     		bx	lr
 3504              	.L571:
 3505 000a 0000     		.align	2
 3506              	.L570:
 3507 000c 00FCFFFF 		.word	-1024
 3509              		.section	.text.AT91F_AIC_CfgPMC,"ax",%progbits
 3510              		.align	2
 3511              		.global	AT91F_AIC_CfgPMC
 3512              		.code 16
 3513              		.thumb_func
 3515              	AT91F_AIC_CfgPMC:
 3516 0000 014A     		ldr	r2, .L574
 3517 0002 024B     		ldr	r3, .L574+4
 3518              		@ lr needed for prologue
 3519 0004 1A61     		str	r2, [r3, #16]
 3520              		@ sp needed for prologue
 3521 0006 7047     		bx	lr
 3522              	.L575:
 3523              		.align	2
 3524              	.L574:
 3525 0008 010000C0 		.word	-1073741823
 3526 000c 00FCFFFF 		.word	-1024
 3528              		.section	.text.AT91F_DBGU_CfgPIO,"ax",%progbits
 3529              		.align	2
 3530              		.global	AT91F_DBGU_CfgPIO
 3531              		.code 16
 3532              		.thumb_func
 3534              	AT91F_DBGU_CfgPIO:
 3535 0000 034B     		ldr	r3, .L578
 3536 0002 C022     		mov	r2, #192
 3537 0004 D200     		lsl	r2, r2, #3
 3538 0006 0021     		mov	r1, #0
 3539 0008 1A67     		str	r2, [r3, #112]
 3540              		@ lr needed for prologue
 3541 000a 5967     		str	r1, [r3, #116]
 3542              		@ sp needed for prologue
 3543 000c 5A60     		str	r2, [r3, #4]
 3544 000e 7047     		bx	lr
 3545              	.L579:
 3546              		.align	2
 3547              	.L578:
 3548 0010 00F4FFFF 		.word	-3072
 3550              		.section	.text.AT91F_PWMC_CH3_CfgPIO,"ax",%progbits
 3551              		.align	2
 3552              		.global	AT91F_PWMC_CH3_CfgPIO
 3553              		.code 16
 3554              		.thumb_func
 3556              	AT91F_PWMC_CH3_CfgPIO:
 3557 0000 034A     		ldr	r2, .L582
 3558 0002 0023     		mov	r3, #0
 3559 0004 1367     		str	r3, [r2, #112]
 3560 0006 8123     		mov	r3, #129
 3561 0008 DB01     		lsl	r3, r3, #7
 3562 000a 5367     		str	r3, [r2, #116]
 3563              		@ lr needed for prologue
 3564 000c 5360     		str	r3, [r2, #4]
 3565              		@ sp needed for prologue
 3566 000e 7047     		bx	lr
 3567              	.L583:
 3568              		.align	2
 3569              	.L582:
 3570 0010 00F4FFFF 		.word	-3072
 3572              		.section	.text.AT91F_PWMC_CH2_CfgPIO,"ax",%progbits
 3573              		.align	2
 3574              		.global	AT91F_PWMC_CH2_CfgPIO
 3575              		.code 16
 3576              		.thumb_func
 3578              	AT91F_PWMC_CH2_CfgPIO:
 3579 0000 034A     		ldr	r2, .L586
 3580 0002 0423     		mov	r3, #4
 3581 0004 1367     		str	r3, [r2, #112]
 3582 0006 034B     		ldr	r3, .L586+4
 3583 0008 5367     		str	r3, [r2, #116]
 3584 000a 0433     		add	r3, r3, #4
 3585              		@ lr needed for prologue
 3586 000c 5360     		str	r3, [r2, #4]
 3587              		@ sp needed for prologue
 3588 000e 7047     		bx	lr
 3589              	.L587:
 3590              		.align	2
 3591              	.L586:
 3592 0010 00F4FFFF 		.word	-3072
 3593 0014 00200002 		.word	33562624
 3595              		.section	.text.AT91F_PWMC_CH1_CfgPIO,"ax",%progbits
 3596              		.align	2
 3597              		.global	AT91F_PWMC_CH1_CfgPIO
 3598              		.code 16
 3599              		.thumb_func
 3601              	AT91F_PWMC_CH1_CfgPIO:
 3602 0000 034A     		ldr	r2, .L590
 3603 0002 0223     		mov	r3, #2
 3604 0004 1367     		str	r3, [r2, #112]
 3605 0006 034B     		ldr	r3, .L590+4
 3606 0008 5367     		str	r3, [r2, #116]
 3607 000a 0233     		add	r3, r3, #2
 3608              		@ lr needed for prologue
 3609 000c 5360     		str	r3, [r2, #4]
 3610              		@ sp needed for prologue
 3611 000e 7047     		bx	lr
 3612              	.L591:
 3613              		.align	2
 3614              	.L590:
 3615 0010 00F4FFFF 		.word	-3072
 3616 0014 00100001 		.word	16781312
 3618              		.section	.text.AT91F_PWMC_CH0_CfgPIO,"ax",%progbits
 3619              		.align	2
 3620              		.global	AT91F_PWMC_CH0_CfgPIO
 3621              		.code 16
 3622              		.thumb_func
 3624              	AT91F_PWMC_CH0_CfgPIO:
 3625 0000 034A     		ldr	r2, .L594
 3626 0002 0123     		mov	r3, #1
 3627 0004 1367     		str	r3, [r2, #112]
 3628 0006 034B     		ldr	r3, .L594+4
 3629 0008 5367     		str	r3, [r2, #116]
 3630 000a 0133     		add	r3, r3, #1
 3631              		@ lr needed for prologue
 3632 000c 5360     		str	r3, [r2, #4]
 3633              		@ sp needed for prologue
 3634 000e 7047     		bx	lr
 3635              	.L595:
 3636              		.align	2
 3637              	.L594:
 3638 0010 00F4FFFF 		.word	-3072
 3639 0014 00088000 		.word	8390656
 3641              		.section	.text.AT91F_SSC_CfgPIO,"ax",%progbits
 3642              		.align	2
 3643              		.global	AT91F_SSC_CfgPIO
 3644              		.code 16
 3645              		.thumb_func
 3647              	AT91F_SSC_CfgPIO:
 3648 0000 034B     		ldr	r3, .L598
 3649 0002 FC22     		mov	r2, #252
 3650 0004 5203     		lsl	r2, r2, #13
 3651 0006 0021     		mov	r1, #0
 3652 0008 1A67     		str	r2, [r3, #112]
 3653              		@ lr needed for prologue
 3654 000a 5967     		str	r1, [r3, #116]
 3655              		@ sp needed for prologue
 3656 000c 5A60     		str	r2, [r3, #4]
 3657 000e 7047     		bx	lr
 3658              	.L599:
 3659              		.align	2
 3660              	.L598:
 3661 0010 00F4FFFF 		.word	-3072
 3663              		.section	.text.AT91F_SPI_CfgPIO,"ax",%progbits
 3664              		.align	2
 3665              		.global	AT91F_SPI_CfgPIO
 3666              		.code 16
 3667              		.thumb_func
 3669              	AT91F_SPI_CfgPIO:
 3670 0000 034A     		ldr	r2, .L602
 3671 0002 044B     		ldr	r3, .L602+4
 3672 0004 1367     		str	r3, [r2, #112]
 3673 0006 044B     		ldr	r3, .L602+8
 3674 0008 5367     		str	r3, [r2, #116]
 3675 000a 044B     		ldr	r3, .L602+12
 3676              		@ lr needed for prologue
 3677 000c 5360     		str	r3, [r2, #4]
 3678              		@ sp needed for prologue
 3679 000e 7047     		bx	lr
 3680              	.L603:
 3681              		.align	2
 3682              	.L602:
 3683 0010 00F4FFFF 		.word	-3072
 3684 0014 00780080 		.word	-2147452928
 3685 0018 28064040 		.word	1077937704
 3686 001c 287E40C0 		.word	-1069515224
 3688              		.section	.text.AT91F_TC0_CfgPIO,"ax",%progbits
 3689              		.align	2
 3690              		.global	AT91F_TC0_CfgPIO
 3691              		.code 16
 3692              		.thumb_func
 3694              	AT91F_TC0_CfgPIO:
 3695 0000 034B     		ldr	r3, .L606
 3696 0002 0022     		mov	r2, #0
 3697 0004 1A67     		str	r2, [r3, #112]
 3698 0006 1322     		mov	r2, #19
 3699 0008 5A67     		str	r2, [r3, #116]
 3700              		@ lr needed for prologue
 3701 000a 5A60     		str	r2, [r3, #4]
 3702              		@ sp needed for prologue
 3703 000c 7047     		bx	lr
 3704              	.L607:
 3705 000e 0000     		.align	2
 3706              	.L606:
 3707 0010 00F4FFFF 		.word	-3072
 3709              		.section	.text.AT91F_TC1_CfgPIO,"ax",%progbits
 3710              		.align	2
 3711              		.global	AT91F_TC1_CfgPIO
 3712              		.code 16
 3713              		.thumb_func
 3715              	AT91F_TC1_CfgPIO:
 3716 0000 034B     		ldr	r3, .L610
 3717 0002 0022     		mov	r2, #0
 3718 0004 1A67     		str	r2, [r3, #112]
 3719 0006 034A     		ldr	r2, .L610+4
 3720              		@ lr needed for prologue
 3721 0008 5A67     		str	r2, [r3, #116]
 3722              		@ sp needed for prologue
 3723 000a 5A60     		str	r2, [r3, #4]
 3724 000c 7047     		bx	lr
 3725              	.L611:
 3726 000e 0000     		.align	2
 3727              	.L610:
 3728 0010 00F4FFFF 		.word	-3072
 3729 0014 00800110 		.word	268533760
 3731              		.section	.text.AT91F_TC2_CfgPIO,"ax",%progbits
 3732              		.align	2
 3733              		.global	AT91F_TC2_CfgPIO
 3734              		.code 16
 3735              		.thumb_func
 3737              	AT91F_TC2_CfgPIO:
 3738 0000 034A     		ldr	r2, .L614
 3739 0002 0023     		mov	r3, #0
 3740 0004 1367     		str	r3, [r2, #112]
 3741 0006 B023     		mov	r3, #176
 3742 0008 9B05     		lsl	r3, r3, #22
 3743 000a 5367     		str	r3, [r2, #116]
 3744              		@ lr needed for prologue
 3745 000c 5360     		str	r3, [r2, #4]
 3746              		@ sp needed for prologue
 3747 000e 7047     		bx	lr
 3748              	.L615:
 3749              		.align	2
 3750              	.L614:
 3751 0010 00F4FFFF 		.word	-3072
 3753              		.section	.text.AT91F_PMC_CfgPIO,"ax",%progbits
 3754              		.align	2
 3755              		.global	AT91F_PMC_CfgPIO
 3756              		.code 16
 3757              		.thumb_func
 3759              	AT91F_PMC_CfgPIO:
 3760 0000 034B     		ldr	r3, .L618
 3761 0002 0022     		mov	r2, #0
 3762 0004 1A67     		str	r2, [r3, #112]
 3763 0006 034A     		ldr	r2, .L618+4
 3764              		@ lr needed for prologue
 3765 0008 5A67     		str	r2, [r3, #116]
 3766              		@ sp needed for prologue
 3767 000a 5A60     		str	r2, [r3, #4]
 3768 000c 7047     		bx	lr
 3769              	.L619:
 3770 000e 0000     		.align	2
 3771              	.L618:
 3772 0010 00F4FFFF 		.word	-3072
 3773 0014 40002680 		.word	-2144993216
 3775              		.section	.text.AT91F_ADC_CfgPIO,"ax",%progbits
 3776              		.align	2
 3777              		.global	AT91F_ADC_CfgPIO
 3778              		.code 16
 3779              		.thumb_func
 3781              	AT91F_ADC_CfgPIO:
 3782 0000 034A     		ldr	r2, .L622
 3783 0002 0023     		mov	r3, #0
 3784 0004 1367     		str	r3, [r2, #112]
 3785 0006 8023     		mov	r3, #128
 3786 0008 5B00     		lsl	r3, r3, #1
 3787 000a 5367     		str	r3, [r2, #116]
 3788              		@ lr needed for prologue
 3789 000c 5360     		str	r3, [r2, #4]
 3790              		@ sp needed for prologue
 3791 000e 7047     		bx	lr
 3792              	.L623:
 3793              		.align	2
 3794              	.L622:
 3795 0010 00F4FFFF 		.word	-3072
 3797              		.section	.text.AT91F_TWI_CfgPIO,"ax",%progbits
 3798              		.align	2
 3799              		.global	AT91F_TWI_CfgPIO
 3800              		.code 16
 3801              		.thumb_func
 3803              	AT91F_TWI_CfgPIO:
 3804 0000 034B     		ldr	r3, .L626
 3805 0002 1821     		mov	r1, #24
 3806 0004 0022     		mov	r2, #0
 3807 0006 1967     		str	r1, [r3, #112]
 3808              		@ lr needed for prologue
 3809 0008 5A67     		str	r2, [r3, #116]
 3810              		@ sp needed for prologue
 3811 000a 5960     		str	r1, [r3, #4]
 3812 000c 7047     		bx	lr
 3813              	.L627:
 3814 000e 0000     		.align	2
 3815              	.L626:
 3816 0010 00F4FFFF 		.word	-3072
 3818              		.section	.text.AT91F_US1_CfgPIO,"ax",%progbits
 3819              		.align	2
 3820              		.global	AT91F_US1_CfgPIO
 3821              		.code 16
 3822              		.thumb_func
 3824              	AT91F_US1_CfgPIO:
 3825 0000 034B     		ldr	r3, .L630
 3826 0002 0449     		ldr	r1, .L630+4
 3827 0004 0022     		mov	r2, #0
 3828 0006 1967     		str	r1, [r3, #112]
 3829              		@ lr needed for prologue
 3830 0008 5A67     		str	r2, [r3, #116]
 3831              		@ sp needed for prologue
 3832 000a 5960     		str	r1, [r3, #4]
 3833 000c 7047     		bx	lr
 3834              	.L631:
 3835 000e 0000     		.align	2
 3836              	.L630:
 3837 0010 00F4FFFF 		.word	-3072
 3838 0014 0000E03F 		.word	1071644672
 3840              		.section	.text.AT91F_US0_CfgPIO,"ax",%progbits
 3841              		.align	2
 3842              		.global	AT91F_US0_CfgPIO
 3843              		.code 16
 3844              		.thumb_func
 3846              	AT91F_US0_CfgPIO:
 3847 0000 044A     		ldr	r2, .L634
 3848 0002 F023     		mov	r3, #240
 3849 0004 5B00     		lsl	r3, r3, #1
 3850 0006 1367     		str	r3, [r2, #112]
 3851 0008 0423     		mov	r3, #4
 3852 000a 5367     		str	r3, [r2, #116]
 3853 000c F223     		mov	r3, #242
 3854 000e 5B00     		lsl	r3, r3, #1
 3855              		@ lr needed for prologue
 3856 0010 5360     		str	r3, [r2, #4]
 3857              		@ sp needed for prologue
 3858 0012 7047     		bx	lr
 3859              	.L635:
 3860              		.align	2
 3861              	.L634:
 3862 0014 00F4FFFF 		.word	-3072
 3864              		.section	.text.AT91F_AIC_CfgPIO,"ax",%progbits
 3865              		.align	2
 3866              		.global	AT91F_AIC_CfgPIO
 3867              		.code 16
 3868              		.thumb_func
 3870              	AT91F_AIC_CfgPIO:
 3871 0000 044A     		ldr	r2, .L638
 3872 0002 8023     		mov	r3, #128
 3873 0004 DB05     		lsl	r3, r3, #23
 3874 0006 1367     		str	r3, [r2, #112]
 3875 0008 C023     		mov	r3, #192
 3876 000a 5B03     		lsl	r3, r3, #13
 3877 000c 5367     		str	r3, [r2, #116]
 3878 000e 024B     		ldr	r3, .L638+4
 3879              		@ lr needed for prologue
 3880 0010 5360     		str	r3, [r2, #4]
 3881              		@ sp needed for prologue
 3882 0012 7047     		bx	lr
 3883              	.L639:
 3884              		.align	2
 3885              	.L638:
 3886 0014 00F4FFFF 		.word	-3072
 3887 0018 00001840 		.word	1075314688
 3889              		.section	.text.AT91F_PDC_Close,"ax",%progbits
 3890              		.align	2
 3891              		.global	AT91F_PDC_Close
 3892              		.code 16
 3893              		.thumb_func
 3895              	AT91F_PDC_Close:
 3896 0000 0223     		mov	r3, #2
 3897 0002 0362     		str	r3, [r0, #32]
 3898 0004 8023     		mov	r3, #128
 3899 0006 9B00     		lsl	r3, r3, #2
 3900 0008 0362     		str	r3, [r0, #32]
 3901 000a 0023     		mov	r3, #0
 3902 000c 8361     		str	r3, [r0, #24]
 3903              		@ lr needed for prologue
 3904 000e C361     		str	r3, [r0, #28]
 3905              		@ sp needed for prologue
 3906 0010 0361     		str	r3, [r0, #16]
 3907 0012 4361     		str	r3, [r0, #20]
 3908 0014 8360     		str	r3, [r0, #8]
 3909 0016 C360     		str	r3, [r0, #12]
 3910 0018 0360     		str	r3, [r0]
 3911 001a 4360     		str	r3, [r0, #4]
 3912 001c 7047     		bx	lr
 3914 001e C046     		.section	.text.AT91F_US_Close,"ax",%progbits
 3915              		.align	2
 3916              		.global	AT91F_US_Close
 3917              		.code 16
 3918              		.thumb_func
 3920              	AT91F_US_Close:
 3921 0000 10B5     		push	{r4, lr}
 3922 0002 0023     		mov	r3, #0
 3923 0004 0362     		str	r3, [r0, #32]
 3924 0006 4360     		str	r3, [r0, #4]
 3925 0008 8362     		str	r3, [r0, #40]
 3926 000a 0123     		mov	r3, #1
 3927 000c 5B42     		neg	r3, r3
 3928 000e C360     		str	r3, [r0, #12]
 3929 0010 8023     		mov	r3, #128
 3930 0012 5B00     		lsl	r3, r3, #1
 3931 0014 041C     		mov	r4, r0
 3932 0016 C018     		add	r0, r0, r3
 3933 0018 FFF7FEFF 		bl	AT91F_PDC_Close
 3934 001c AC23     		mov	r3, #172
 3935 001e 2360     		str	r3, [r4]
 3936              		@ sp needed for prologue
 3937 0020 10BC     		pop	{r4}
 3938 0022 01BC     		pop	{r0}
 3939 0024 0047     		bx	r0
 3941 0026 C046     		.section	.text.AT91F_SPI_Close,"ax",%progbits
 3942              		.align	2
 3943              		.global	AT91F_SPI_Close
 3944              		.code 16
 3945              		.thumb_func
 3947              	AT91F_SPI_Close:
 3948 0000 10B5     		push	{r4, lr}
 3949 0002 0023     		mov	r3, #0
 3950 0004 0363     		str	r3, [r0, #48]
 3951 0006 4363     		str	r3, [r0, #52]
 3952 0008 8363     		str	r3, [r0, #56]
 3953 000a C363     		str	r3, [r0, #60]
 3954 000c 4360     		str	r3, [r0, #4]
 3955 000e 0123     		mov	r3, #1
 3956 0010 5B42     		neg	r3, r3
 3957 0012 8361     		str	r3, [r0, #24]
 3958 0014 8023     		mov	r3, #128
 3959 0016 5B00     		lsl	r3, r3, #1
 3960 0018 041C     		mov	r4, r0
 3961 001a C018     		add	r0, r0, r3
 3962 001c FFF7FEFF 		bl	AT91F_PDC_Close
 3963 0020 0223     		mov	r3, #2
 3964 0022 2360     		str	r3, [r4]
 3965              		@ sp needed for prologue
 3966 0024 10BC     		pop	{r4}
 3967 0026 01BC     		pop	{r0}
 3968 0028 0047     		bx	r0
 3970 002a C046     		.section	.text.AT91F_PMC_GetMasterClock,"ax",%progbits
 3971              		.align	2
 3972              		.global	AT91F_PMC_GetMasterClock
 3973              		.code 16
 3974              		.thumb_func
 3976              	AT91F_PMC_GetMasterClock:
 3977 0000 F0B5     		push	{r4, r5, r6, r7, lr}
 3978 0002 0D1C     		mov	r5, r1
 3979 0004 016B     		ldr	r1, [r0, #48]
 3980 0006 161C     		mov	r6, r2
 3981 0008 CB06     		lsl	r3, r1, #27
 3982 000a 0122     		mov	r2, #1
 3983 000c 5B0F     		lsr	r3, r3, #29
 3984 000e 171C     		mov	r7, r2
 3985 0010 9F40     		lsl	r7, r7, r3
 3986 0012 0323     		mov	r3, #3
 3987 0014 1940     		and	r1, r1, r3
 3988 0016 0129     		cmp	r1, #1
 3989 0018 07D0     		beq	.L649
 3990 001a 0129     		cmp	r1, #1
 3991 001c 03D3     		bcc	.L648
 3992 001e 0329     		cmp	r1, #3
 3993 0020 0AD0     		beq	.L650
 3994 0022 0020     		mov	r0, #0
 3995 0024 1BE0     		b	.L651
 3996              	.L648:
 3997 0026 301C     		mov	r0, r6
 3998 0028 16E0     		b	.L653
 3999              	.L649:
 4000 002a 6B68     		ldr	r3, [r5, #4]
 4001 002c 0D4A     		ldr	r2, .L654
 4002 002e 1340     		and	r3, r3, r2
 4003 0030 301C     		mov	r0, r6
 4004 0032 5843     		mul	r0, r0, r3
 4005 0034 0009     		lsr	r0, r0, #4
 4006 0036 0FE0     		b	.L653
 4007              	.L650:
 4008 0038 EC68     		ldr	r4, [r5, #12]
 4009 003a 0A4A     		ldr	r2, .L654
 4010 003c 6B68     		ldr	r3, [r5, #4]
 4011 003e 1340     		and	r3, r3, r2
 4012 0040 301C     		mov	r0, r6
 4013 0042 5843     		mul	r0, r0, r3
 4014 0044 211C     		mov	r1, r4
 4015 0046 FF23     		mov	r3, #255
 4016 0048 0009     		lsr	r0, r0, #4
 4017 004a 1940     		and	r1, r1, r3
 4018 004c FFF7FEFF 		bl	__udivsi3
 4019 0050 6401     		lsl	r4, r4, #5
 4020 0052 640D     		lsr	r4, r4, #21
 4021 0054 0134     		add	r4, r4, #1
 4022 0056 6043     		mul	r0, r0, r4
 4023              	.L653:
 4024 0058 391C     		mov	r1, r7
 4025 005a FFF7FEFF 		bl	__udivsi3
 4026              	.L651:
 4027              		@ sp needed for prologue
 4028 005e F0BC     		pop	{r4, r5, r6, r7}
 4029 0060 02BC     		pop	{r1}
 4030 0062 0847     		bx	r1
 4031              	.L655:
 4032              		.align	2
 4033              	.L654:
 4034 0064 FFFF0000 		.word	65535
 4036              		.section	.text.AT91F_PIO_IsInputSet,"ax",%progbits
 4037              		.align	2
 4038              		.global	AT91F_PIO_IsInputSet
 4039              		.code 16
 4040              		.thumb_func
 4042              	AT91F_PIO_IsInputSet:
 4043 0000 C06B     		ldr	r0, [r0, #60]
 4044 0002 0840     		and	r0, r0, r1
 4045              		@ lr needed for prologue
 4046              		@ sp needed for prologue
 4047 0004 7047     		bx	lr
 4049 0006 C046     		.section	.text.AT91F_PIO_IsSet,"ax",%progbits
 4050              		.align	2
 4051              		.global	AT91F_PIO_IsSet
 4052              		.code 16
 4053              		.thumb_func
 4055              	AT91F_PIO_IsSet:
 4056 0000 8068     		ldr	r0, [r0, #8]
 4057 0002 0840     		and	r0, r0, r1
 4058              		@ lr needed for prologue
 4059              		@ sp needed for prologue
 4060 0004 7047     		bx	lr
 4062 0006 C046     		.section	.text.AT91F_PIO_IsOutputSet,"ax",%progbits
 4063              		.align	2
 4064              		.global	AT91F_PIO_IsOutputSet
 4065              		.code 16
 4066              		.thumb_func
 4068              	AT91F_PIO_IsOutputSet:
 4069 0000 8069     		ldr	r0, [r0, #24]
 4070 0002 0840     		and	r0, r0, r1
 4071              		@ lr needed for prologue
 4072              		@ sp needed for prologue
 4073 0004 7047     		bx	lr
 4075 0006 C046     		.section	.text.AT91F_DBGU_IsInterruptMasked,"ax",%progbits
 4076              		.align	2
 4077              		.global	AT91F_DBGU_IsInterruptMasked
 4078              		.code 16
 4079              		.thumb_func
 4081              	AT91F_DBGU_IsInterruptMasked:
 4082 0000 0069     		ldr	r0, [r0, #16]
 4083 0002 0840     		and	r0, r0, r1
 4084              		@ lr needed for prologue
 4085              		@ sp needed for prologue
 4086 0004 7047     		bx	lr
 4088 0006 C046     		.section	.text.AT91F_PIO_IsInputFilterSet,"ax",%progbits
 4089              		.align	2
 4090              		.global	AT91F_PIO_IsInputFilterSet
 4091              		.code 16
 4092              		.thumb_func
 4094              	AT91F_PIO_IsInputFilterSet:
 4095 0000 806A     		ldr	r0, [r0, #40]
 4096 0002 0840     		and	r0, r0, r1
 4097              		@ lr needed for prologue
 4098              		@ sp needed for prologue
 4099 0004 7047     		bx	lr
 4101 0006 C046     		.section	.text.AT91F_PIO_IsOutputDataStatusSet,"ax",%progbits
 4102              		.align	2
 4103              		.global	AT91F_PIO_IsOutputDataStatusSet
 4104              		.code 16
 4105              		.thumb_func
 4107              	AT91F_PIO_IsOutputDataStatusSet:
 4108 0000 806B     		ldr	r0, [r0, #56]
 4109 0002 0840     		and	r0, r0, r1
 4110              		@ lr needed for prologue
 4111              		@ sp needed for prologue
 4112 0004 7047     		bx	lr
 4114 0006 C046     		.section	.text.AT91F_PIO_IsInterruptMasked,"ax",%progbits
 4115              		.align	2
 4116              		.global	AT91F_PIO_IsInterruptMasked
 4117              		.code 16
 4118              		.thumb_func
 4120              	AT91F_PIO_IsInterruptMasked:
 4121 0000 806C     		ldr	r0, [r0, #72]
 4122 0002 0840     		and	r0, r0, r1
 4123              		@ lr needed for prologue
 4124              		@ sp needed for prologue
 4125 0004 7047     		bx	lr
 4127 0006 C046     		.section	.text.AT91F_PIO_IsInterruptSet,"ax",%progbits
 4128              		.align	2
 4129              		.global	AT91F_PIO_IsInterruptSet
 4130              		.code 16
 4131              		.thumb_func
 4133              	AT91F_PIO_IsInterruptSet:
 4134 0000 C06C     		ldr	r0, [r0, #76]
 4135 0002 0840     		and	r0, r0, r1
 4136              		@ lr needed for prologue
 4137              		@ sp needed for prologue
 4138 0004 7047     		bx	lr
 4140 0006 C046     		.section	.text.AT91F_PIO_IsMultiDriverSet,"ax",%progbits
 4141              		.align	2
 4142              		.global	AT91F_PIO_IsMultiDriverSet
 4143              		.code 16
 4144              		.thumb_func
 4146              	AT91F_PIO_IsMultiDriverSet:
 4147 0000 806D     		ldr	r0, [r0, #88]
 4148 0002 0840     		and	r0, r0, r1
 4149              		@ lr needed for prologue
 4150              		@ sp needed for prologue
 4151 0004 7047     		bx	lr
 4153 0006 C046     		.section	.text.AT91F_PIO_IsAB_RegisterSet,"ax",%progbits
 4154              		.align	2
 4155              		.global	AT91F_PIO_IsAB_RegisterSet
 4156              		.code 16
 4157              		.thumb_func
 4159              	AT91F_PIO_IsAB_RegisterSet:
 4160 0000 806F     		ldr	r0, [r0, #120]
 4161 0002 0840     		and	r0, r0, r1
 4162              		@ lr needed for prologue
 4163              		@ sp needed for prologue
 4164 0004 7047     		bx	lr
 4166 0006 C046     		.section	.text.AT91F_PIO_IsOutputWriteSet,"ax",%progbits
 4167              		.align	2
 4168              		.global	AT91F_PIO_IsOutputWriteSet
 4169              		.code 16
 4170              		.thumb_func
 4172              	AT91F_PIO_IsOutputWriteSet:
 4173 0000 A830     		add	r0, r0, #168
 4174 0002 0068     		ldr	r0, [r0]
 4175 0004 0840     		and	r0, r0, r1
 4176              		@ lr needed for prologue
 4177              		@ sp needed for prologue
 4178 0006 7047     		bx	lr
 4180              		.section	.text.AT91F_PIO_IsCfgPullupStatusSet,"ax",%progbits
 4181              		.align	2
 4182              		.global	AT91F_PIO_IsCfgPullupStatusSet
 4183              		.code 16
 4184              		.thumb_func
 4186              	AT91F_PIO_IsCfgPullupStatusSet:
 4187 0000 836E     		ldr	r3, [r0, #104]
 4188 0002 9943     		bic	r1, r1, r3
 4189 0004 081C     		mov	r0, r1
 4190              		@ lr needed for prologue
 4191              		@ sp needed for prologue
 4192 0006 7047     		bx	lr
 4194              		.section	.text.AT91F_TWI_IsInterruptMasked,"ax",%progbits
 4195              		.align	2
 4196              		.global	AT91F_TWI_IsInterruptMasked
 4197              		.code 16
 4198              		.thumb_func
 4200              	AT91F_TWI_IsInterruptMasked:
 4201 0000 C06A     		ldr	r0, [r0, #44]
 4202 0002 0840     		and	r0, r0, r1
 4203              		@ lr needed for prologue
 4204              		@ sp needed for prologue
 4205 0004 7047     		bx	lr
 4207 0006 C046     		.section	.text.AT91F_TC_IsInterruptMasked,"ax",%progbits
 4208              		.align	2
 4209              		.global	AT91F_TC_IsInterruptMasked
 4210              		.code 16
 4211              		.thumb_func
 4213              	AT91F_TC_IsInterruptMasked:
 4214 0000 C06A     		ldr	r0, [r0, #44]
 4215 0002 0840     		and	r0, r0, r1
 4216              		@ lr needed for prologue
 4217              		@ sp needed for prologue
 4218 0004 7047     		bx	lr
 4220 0006 C046     		.section	.text.AT91F_PWMC_IsStatusSet,"ax",%progbits
 4221              		.align	2
 4222              		.global	AT91F_PWMC_IsStatusSet
 4223              		.code 16
 4224              		.thumb_func
 4226              	AT91F_PWMC_IsStatusSet:
 4227 0000 C068     		ldr	r0, [r0, #12]
 4228 0002 0840     		and	r0, r0, r1
 4229              		@ lr needed for prologue
 4230              		@ sp needed for prologue
 4231 0004 7047     		bx	lr
 4233 0006 C046     		.section	.text.AT91F_PWMC_IsInterruptMasked,"ax",%progbits
 4234              		.align	2
 4235              		.global	AT91F_PWMC_IsInterruptMasked
 4236              		.code 16
 4237              		.thumb_func
 4239              	AT91F_PWMC_IsInterruptMasked:
 4240 0000 8069     		ldr	r0, [r0, #24]
 4241 0002 0840     		and	r0, r0, r1
 4242              		@ lr needed for prologue
 4243              		@ sp needed for prologue
 4244 0004 7047     		bx	lr
 4246 0006 C046     		.section	.text.AT91F_UDP_IsInterruptMasked,"ax",%progbits
 4247              		.align	2
 4248              		.global	AT91F_UDP_IsInterruptMasked
 4249              		.code 16
 4250              		.thumb_func
 4252              	AT91F_UDP_IsInterruptMasked:
 4253 0000 8069     		ldr	r0, [r0, #24]
 4254 0002 0840     		and	r0, r0, r1
 4255              		@ lr needed for prologue
 4256              		@ sp needed for prologue
 4257 0004 7047     		bx	lr
 4259 0006 C046     		.section	.text.AT91F_PMC_IsStatusSet,"ax",%progbits
 4260              		.align	2
 4261              		.global	AT91F_PMC_IsStatusSet
 4262              		.code 16
 4263              		.thumb_func
 4265              	AT91F_PMC_IsStatusSet:
 4266 0000 806E     		ldr	r0, [r0, #104]
 4267 0002 0840     		and	r0, r0, r1
 4268              		@ lr needed for prologue
 4269              		@ sp needed for prologue
 4270 0004 7047     		bx	lr
 4272 0006 C046     		.section	.text.AT91F_PMC_IsInterruptMasked,"ax",%progbits
 4273              		.align	2
 4274              		.global	AT91F_PMC_IsInterruptMasked
 4275              		.code 16
 4276              		.thumb_func
 4278              	AT91F_PMC_IsInterruptMasked:
 4279 0000 C06E     		ldr	r0, [r0, #108]
 4280 0002 0840     		and	r0, r0, r1
 4281              		@ lr needed for prologue
 4282              		@ sp needed for prologue
 4283 0004 7047     		bx	lr
 4285 0006 C046     		.section	.text.AT91F_MC_EFC_IsInterruptMasked,"ax",%progbits
 4286              		.align	2
 4287              		.global	AT91F_MC_EFC_IsInterruptMasked
 4288              		.code 16
 4289              		.thumb_func
 4291              	AT91F_MC_EFC_IsInterruptMasked:
 4292 0000 006E     		ldr	r0, [r0, #96]
 4293 0002 0840     		and	r0, r0, r1
 4294              		@ lr needed for prologue
 4295              		@ sp needed for prologue
 4296 0004 7047     		bx	lr
 4298 0006 C046     		.section	.text.AT91F_MC_EFC_IsInterruptSet,"ax",%progbits
 4299              		.align	2
 4300              		.global	AT91F_MC_EFC_IsInterruptSet
 4301              		.code 16
 4302              		.thumb_func
 4304              	AT91F_MC_EFC_IsInterruptSet:
 4305 0000 806E     		ldr	r0, [r0, #104]
 4306 0002 0840     		and	r0, r0, r1
 4307              		@ lr needed for prologue
 4308              		@ sp needed for prologue
 4309 0004 7047     		bx	lr
 4311 0006 C046     		.section	.text.AT91F_SPI_IsInterruptMasked,"ax",%progbits
 4312              		.align	2
 4313              		.global	AT91F_SPI_IsInterruptMasked
 4314              		.code 16
 4315              		.thumb_func
 4317              	AT91F_SPI_IsInterruptMasked:
 4318 0000 C069     		ldr	r0, [r0, #28]
 4319 0002 0840     		and	r0, r0, r1
 4320              		@ lr needed for prologue
 4321              		@ sp needed for prologue
 4322 0004 7047     		bx	lr
 4324 0006 C046     		.section	.text.AT91F_ADC_IsStatusSet,"ax",%progbits
 4325              		.align	2
 4326              		.global	AT91F_ADC_IsStatusSet
 4327              		.code 16
 4328              		.thumb_func
 4330              	AT91F_ADC_IsStatusSet:
 4331 0000 C069     		ldr	r0, [r0, #28]
 4332 0002 0840     		and	r0, r0, r1
 4333              		@ lr needed for prologue
 4334              		@ sp needed for prologue
 4335 0004 7047     		bx	lr
 4337 0006 C046     		.section	.text.AT91F_ADC_IsInterruptMasked,"ax",%progbits
 4338              		.align	2
 4339              		.global	AT91F_ADC_IsInterruptMasked
 4340              		.code 16
 4341              		.thumb_func
 4343              	AT91F_ADC_IsInterruptMasked:
 4344 0000 C06A     		ldr	r0, [r0, #44]
 4345 0002 0840     		and	r0, r0, r1
 4346              		@ lr needed for prologue
 4347              		@ sp needed for prologue
 4348 0004 7047     		bx	lr
 4350 0006 C046     		.section	.text.AT91F_SSC_IsInterruptMasked,"ax",%progbits
 4351              		.align	2
 4352              		.global	AT91F_SSC_IsInterruptMasked
 4353              		.code 16
 4354              		.thumb_func
 4356              	AT91F_SSC_IsInterruptMasked:
 4357 0000 C06C     		ldr	r0, [r0, #76]
 4358 0002 0840     		and	r0, r0, r1
 4359              		@ lr needed for prologue
 4360              		@ sp needed for prologue
 4361 0004 7047     		bx	lr
 4363 0006 C046     		.section	.text.AT91F_PDC_Open,"ax",%progbits
 4364              		.align	2
 4365              		.global	AT91F_PDC_Open
 4366              		.code 16
 4367              		.thumb_func
 4369              	AT91F_PDC_Open:
 4370 0000 0223     		mov	r3, #2
 4371 0002 0362     		str	r3, [r0, #32]
 4372 0004 8023     		mov	r3, #128
 4373 0006 9B00     		lsl	r3, r3, #2
 4374 0008 0362     		str	r3, [r0, #32]
 4375 000a 0023     		mov	r3, #0
 4376 000c 8361     		str	r3, [r0, #24]
 4377 000e C361     		str	r3, [r0, #28]
 4378 0010 0361     		str	r3, [r0, #16]
 4379 0012 4361     		str	r3, [r0, #20]
 4380 0014 8360     		str	r3, [r0, #8]
 4381 0016 C360     		str	r3, [r0, #12]
 4382 0018 0360     		str	r3, [r0]
 4383 001a 4360     		str	r3, [r0, #4]
 4384 001c 0123     		mov	r3, #1
 4385 001e 0362     		str	r3, [r0, #32]
 4386 0020 8023     		mov	r3, #128
 4387 0022 5B00     		lsl	r3, r3, #1
 4388              		@ lr needed for prologue
 4389 0024 0362     		str	r3, [r0, #32]
 4390              		@ sp needed for prologue
 4391 0026 7047     		bx	lr
 4393              		.section	.text.AT91F_US_Configure,"ax",%progbits
 4394              		.align	2
 4395              		.global	AT91F_US_Configure
 4396              		.code 16
 4397              		.thumb_func
 4399              	AT91F_US_Configure:
 4400 0000 70B5     		push	{r4, r5, r6, lr}
 4401 0002 161C     		mov	r6, r2
 4402 0004 0122     		mov	r2, #1
 4403 0006 5242     		neg	r2, r2
 4404 0008 049D     		ldr	r5, [sp, #16]
 4405 000a C260     		str	r2, [r0, #12]
 4406 000c AC22     		mov	r2, #172
 4407 000e 0260     		str	r2, [r0]
 4408 0010 1A1C     		mov	r2, r3
 4409 0012 041C     		mov	r4, r0
 4410 0014 FFF7FEFF 		bl	AT91F_US_SetBaudrate
 4411 0018 8023     		mov	r3, #128
 4412 001a 5B00     		lsl	r3, r3, #1
 4413 001c A562     		str	r5, [r4, #40]
 4414 001e E018     		add	r0, r4, r3
 4415 0020 FFF7FEFF 		bl	AT91F_PDC_Open
 4416              		@ sp needed for prologue
 4417 0024 6660     		str	r6, [r4, #4]
 4418 0026 70BC     		pop	{r4, r5, r6}
 4419 0028 01BC     		pop	{r0}
 4420 002a 0047     		bx	r0
 4422              		.section	.text.AT91F_SSC_Configure,"ax",%progbits
 4423              		.align	2
 4424              		.global	AT91F_SSC_Configure
 4425              		.code 16
 4426              		.thumb_func
 4428              	AT91F_SSC_Configure:
 4429 0000 F0B5     		push	{r4, r5, r6, r7, lr}
 4430 0002 1E1C     		mov	r6, r3
 4431 0004 0123     		mov	r3, #1
 4432 0006 5B42     		neg	r3, r3
 4433 0008 069D     		ldr	r5, [sp, #24]
 4434 000a 079F     		ldr	r7, [sp, #28]
 4435 000c 8364     		str	r3, [r0, #72]
 4436 000e 094B     		ldr	r3, .L712
 4437 0010 041C     		mov	r4, r0
 4438 0012 0360     		str	r3, [r0]
 4439 0014 FFF7FEFF 		bl	AT91F_SSC_SetBaudrate
 4440 0018 2661     		str	r6, [r4, #16]
 4441 001a A561     		str	r5, [r4, #24]
 4442 001c 059B     		ldr	r3, [sp, #20]
 4443 001e 6361     		str	r3, [r4, #20]
 4444 0020 8023     		mov	r3, #128
 4445 0022 5B00     		lsl	r3, r3, #1
 4446 0024 E761     		str	r7, [r4, #28]
 4447 0026 E418     		add	r4, r4, r3
 4448 0028 201C     		mov	r0, r4
 4449 002a FFF7FEFF 		bl	AT91F_PDC_Open
 4450              		@ sp needed for prologue
 4451 002e F0BC     		pop	{r4, r5, r6, r7}
 4452 0030 01BC     		pop	{r0}
 4453 0032 0047     		bx	r0
 4454              	.L713:
 4455              		.align	2
 4456              	.L712:
 4457 0034 02820000 		.word	33282
 4459              		.section	.text.AT91F_PDC_SendFrame,"ax",%progbits
 4460              		.align	2
 4461              		.global	AT91F_PDC_SendFrame
 4462              		.code 16
 4463              		.thumb_func
 4465              	AT91F_PDC_SendFrame:
 4466 0000 30B5     		push	{r4, r5, lr}
 4467 0002 151C     		mov	r5, r2
 4468 0004 1A1C     		mov	r2, r3
 4469 0006 C368     		ldr	r3, [r0, #12]
 4470 0008 039C     		ldr	r4, [sp, #12]
 4471 000a 002B     		cmp	r3, #0
 4472 000c 05D1     		bne	.L715
 4473 000e 8160     		str	r1, [r0, #8]
 4474 0010 C560     		str	r5, [r0, #12]
 4475 0012 8261     		str	r2, [r0, #24]
 4476 0014 C461     		str	r4, [r0, #28]
 4477 0016 0220     		mov	r0, #2
 4478 0018 07E0     		b	.L717
 4479              	.L715:
 4480 001a C369     		ldr	r3, [r0, #28]
 4481 001c 002B     		cmp	r3, #0
 4482 001e 01D0     		beq	.L718
 4483 0020 0020     		mov	r0, #0
 4484 0022 02E0     		b	.L717
 4485              	.L718:
 4486 0024 8161     		str	r1, [r0, #24]
 4487 0026 C561     		str	r5, [r0, #28]
 4488 0028 0120     		mov	r0, #1
 4489              	.L717:
 4490              		@ sp needed for prologue
 4491 002a 30BC     		pop	{r4, r5}
 4492 002c 02BC     		pop	{r1}
 4493 002e 0847     		bx	r1
 4495              		.section	.text.AT91F_US_SendFrame,"ax",%progbits
 4496              		.align	2
 4497              		.global	AT91F_US_SendFrame
 4498              		.code 16
 4499              		.thumb_func
 4501              	AT91F_US_SendFrame:
 4502 0000 30B5     		push	{r4, r5, lr}
 4503 0002 81B0     		sub	sp, sp, #4
 4504 0004 8025     		mov	r5, #128
 4505 0006 049C     		ldr	r4, [sp, #16]
 4506 0008 6D00     		lsl	r5, r5, #1
 4507 000a 4019     		add	r0, r0, r5
 4508 000c 0094     		str	r4, [sp]
 4509 000e FFF7FEFF 		bl	AT91F_PDC_SendFrame
 4510 0012 01B0     		add	sp, sp, #4
 4511              		@ sp needed for prologue
 4512 0014 30BC     		pop	{r4, r5}
 4513 0016 02BC     		pop	{r1}
 4514 0018 0847     		bx	r1
 4516 001a C046     		.section	.text.AT91F_SSC_SendFrame,"ax",%progbits
 4517              		.align	2
 4518              		.global	AT91F_SSC_SendFrame
 4519              		.code 16
 4520              		.thumb_func
 4522              	AT91F_SSC_SendFrame:
 4523 0000 30B5     		push	{r4, r5, lr}
 4524 0002 81B0     		sub	sp, sp, #4
 4525 0004 8025     		mov	r5, #128
 4526 0006 049C     		ldr	r4, [sp, #16]
 4527 0008 6D00     		lsl	r5, r5, #1
 4528 000a 4019     		add	r0, r0, r5
 4529 000c 0094     		str	r4, [sp]
 4530 000e FFF7FEFF 		bl	AT91F_PDC_SendFrame
 4531 0012 01B0     		add	sp, sp, #4
 4532              		@ sp needed for prologue
 4533 0014 30BC     		pop	{r4, r5}
 4534 0016 02BC     		pop	{r1}
 4535 0018 0847     		bx	r1
 4537 001a C046     		.section	.text.AT91F_SPI_SendFrame,"ax",%progbits
 4538              		.align	2
 4539              		.global	AT91F_SPI_SendFrame
 4540              		.code 16
 4541              		.thumb_func
 4543              	AT91F_SPI_SendFrame:
 4544 0000 30B5     		push	{r4, r5, lr}
 4545 0002 81B0     		sub	sp, sp, #4
 4546 0004 8025     		mov	r5, #128
 4547 0006 049C     		ldr	r4, [sp, #16]
 4548 0008 6D00     		lsl	r5, r5, #1
 4549 000a 4019     		add	r0, r0, r5
 4550 000c 0094     		str	r4, [sp]
 4551 000e FFF7FEFF 		bl	AT91F_PDC_SendFrame
 4552 0012 01B0     		add	sp, sp, #4
 4553              		@ sp needed for prologue
 4554 0014 30BC     		pop	{r4, r5}
 4555 0016 02BC     		pop	{r1}
 4556 0018 0847     		bx	r1
 4558 001a C046     		.section	.text.AT91F_PDC_ReceiveFrame,"ax",%progbits
 4559              		.align	2
 4560              		.global	AT91F_PDC_ReceiveFrame
 4561              		.code 16
 4562              		.thumb_func
 4564              	AT91F_PDC_ReceiveFrame:
 4565 0000 30B5     		push	{r4, r5, lr}
 4566 0002 151C     		mov	r5, r2
 4567 0004 1A1C     		mov	r2, r3
 4568 0006 4368     		ldr	r3, [r0, #4]
 4569 0008 039C     		ldr	r4, [sp, #12]
 4570 000a 002B     		cmp	r3, #0
 4571 000c 05D1     		bne	.L728
 4572 000e 0160     		str	r1, [r0]
 4573 0010 4560     		str	r5, [r0, #4]
 4574 0012 0261     		str	r2, [r0, #16]
 4575 0014 4461     		str	r4, [r0, #20]
 4576 0016 0220     		mov	r0, #2
 4577 0018 07E0     		b	.L730
 4578              	.L728:
 4579 001a 4369     		ldr	r3, [r0, #20]
 4580 001c 002B     		cmp	r3, #0
 4581 001e 01D0     		beq	.L731
 4582 0020 0020     		mov	r0, #0
 4583 0022 02E0     		b	.L730
 4584              	.L731:
 4585 0024 0161     		str	r1, [r0, #16]
 4586 0026 4561     		str	r5, [r0, #20]
 4587 0028 0120     		mov	r0, #1
 4588              	.L730:
 4589              		@ sp needed for prologue
 4590 002a 30BC     		pop	{r4, r5}
 4591 002c 02BC     		pop	{r1}
 4592 002e 0847     		bx	r1
 4594              		.section	.text.AT91F_US_ReceiveFrame,"ax",%progbits
 4595              		.align	2
 4596              		.global	AT91F_US_ReceiveFrame
 4597              		.code 16
 4598              		.thumb_func
 4600              	AT91F_US_ReceiveFrame:
 4601 0000 30B5     		push	{r4, r5, lr}
 4602 0002 81B0     		sub	sp, sp, #4
 4603 0004 8025     		mov	r5, #128
 4604 0006 049C     		ldr	r4, [sp, #16]
 4605 0008 6D00     		lsl	r5, r5, #1
 4606 000a 4019     		add	r0, r0, r5
 4607 000c 0094     		str	r4, [sp]
 4608 000e FFF7FEFF 		bl	AT91F_PDC_ReceiveFrame
 4609 0012 01B0     		add	sp, sp, #4
 4610              		@ sp needed for prologue
 4611 0014 30BC     		pop	{r4, r5}
 4612 0016 02BC     		pop	{r1}
 4613 0018 0847     		bx	r1
 4615 001a C046     		.section	.text.AT91F_SSC_ReceiveFrame,"ax",%progbits
 4616              		.align	2
 4617              		.global	AT91F_SSC_ReceiveFrame
 4618              		.code 16
 4619              		.thumb_func
 4621              	AT91F_SSC_ReceiveFrame:
 4622 0000 30B5     		push	{r4, r5, lr}
 4623 0002 81B0     		sub	sp, sp, #4
 4624 0004 8025     		mov	r5, #128
 4625 0006 049C     		ldr	r4, [sp, #16]
 4626 0008 6D00     		lsl	r5, r5, #1
 4627 000a 4019     		add	r0, r0, r5
 4628 000c 0094     		str	r4, [sp]
 4629 000e FFF7FEFF 		bl	AT91F_PDC_ReceiveFrame
 4630 0012 01B0     		add	sp, sp, #4
 4631              		@ sp needed for prologue
 4632 0014 30BC     		pop	{r4, r5}
 4633 0016 02BC     		pop	{r1}
 4634 0018 0847     		bx	r1
 4636 001a C046     		.section	.text.AT91F_SPI_ReceiveFrame,"ax",%progbits
 4637              		.align	2
 4638              		.global	AT91F_SPI_ReceiveFrame
 4639              		.code 16
 4640              		.thumb_func
 4642              	AT91F_SPI_ReceiveFrame:
 4643 0000 30B5     		push	{r4, r5, lr}
 4644 0002 81B0     		sub	sp, sp, #4
 4645 0004 8025     		mov	r5, #128
 4646 0006 049C     		ldr	r4, [sp, #16]
 4647 0008 6D00     		lsl	r5, r5, #1
 4648 000a 4019     		add	r0, r0, r5
 4649 000c 0094     		str	r4, [sp]
 4650 000e FFF7FEFF 		bl	AT91F_PDC_ReceiveFrame
 4651 0012 01B0     		add	sp, sp, #4
 4652              		@ sp needed for prologue
 4653 0014 30BC     		pop	{r4, r5}
 4654 0016 02BC     		pop	{r1}
 4655 0018 0847     		bx	r1
 4657 001a C046     		.section	.text.AT91F_AIC_Open,"ax",%progbits
 4658              		.align	2
 4659              		.global	AT91F_AIC_Open
 4660              		.code 16
 4661              		.thumb_func
 4663              	AT91F_AIC_Open:
 4664 0000 F0B5     		push	{r4, r5, r6, r7, lr}
 4665 0002 83B0     		sub	sp, sp, #12
 4666 0004 0291     		str	r1, [sp, #8]
 4667 0006 0192     		str	r2, [sp, #4]
 4668 0008 061C     		mov	r6, r0
 4669 000a 1F1C     		mov	r7, r3
 4670 000c 0025     		mov	r5, #0
 4671              	.L741:
 4672 000e 0123     		mov	r3, #1
 4673 0010 341C     		mov	r4, r6
 4674 0012 AB40     		lsl	r3, r3, r5
 4675 0014 FC34     		add	r4, r4, #252
 4676 0016 A362     		str	r3, [r4, #40]
 4677 0018 291C     		mov	r1, r5
 4678 001a E362     		str	r3, [r4, #44]
 4679 001c 301C     		mov	r0, r6
 4680 001e 0022     		mov	r2, #0
 4681 0020 4023     		mov	r3, #64
 4682 0022 0135     		add	r5, r5, #1
 4683 0024 0097     		str	r7, [sp]
 4684 0026 FFF7FEFF 		bl	AT91F_AIC_ConfigureIt
 4685 002a 202D     		cmp	r5, #32
 4686 002c EFD1     		bne	.L741
 4687 002e 0299     		ldr	r1, [sp, #8]
 4688 0030 1820     		mov	r0, #24
 4689 0032 FFF7FEFF 		bl	AT91F_AIC_SetExceptionVector
 4690 0036 0199     		ldr	r1, [sp, #4]
 4691 0038 1C20     		mov	r0, #28
 4692 003a FFF7FEFF 		bl	AT91F_AIC_SetExceptionVector
 4693 003e 089B     		ldr	r3, [sp, #32]
 4694 0040 A363     		str	r3, [r4, #56]
 4695 0042 099B     		ldr	r3, [sp, #36]
 4696 0044 03B0     		add	sp, sp, #12
 4697 0046 E363     		str	r3, [r4, #60]
 4698              		@ sp needed for prologue
 4699 0048 F0BC     		pop	{r4, r5, r6, r7}
 4700 004a 01BC     		pop	{r0}
 4701 004c 0047     		bx	r0
 4703 004e C046     		.ident	"GCC: (GNU) 4.0.2"
DEFINED SYMBOLS
                            *ABS*:00000000 lib_AT91SAM7S256.c
/cygdrive/c/Users/brent/AppData/Local/Temp/ccEh5roO.s:1      .text:00000000 $t
/cygdrive/c/Users/brent/AppData/Local/Temp/ccEh5roO.s:9      .text.AT91F_AIC_ConfigureIt:00000000 AT91F_AIC_ConfigureIt
/cygdrive/c/Users/brent/AppData/Local/Temp/ccEh5roO.s:6      .text.AT91F_AIC_ConfigureIt:00000000 $t
/cygdrive/c/Users/brent/AppData/Local/Temp/ccEh5roO.s:37     .text.AT91F_AIC_EnableIt:00000000 AT91F_AIC_EnableIt
/cygdrive/c/Users/brent/AppData/Local/Temp/ccEh5roO.s:34     .text.AT91F_AIC_EnableIt:00000000 $t
/cygdrive/c/Users/brent/AppData/Local/Temp/ccEh5roO.s:52     .text.AT91F_AIC_DisableIt:00000000 AT91F_AIC_DisableIt
/cygdrive/c/Users/brent/AppData/Local/Temp/ccEh5roO.s:49     .text.AT91F_AIC_DisableIt:00000000 $t
/cygdrive/c/Users/brent/AppData/Local/Temp/ccEh5roO.s:68     .text.AT91F_AIC_ClearIt:00000000 AT91F_AIC_ClearIt
/cygdrive/c/Users/brent/AppData/Local/Temp/ccEh5roO.s:65     .text.AT91F_AIC_ClearIt:00000000 $t
/cygdrive/c/Users/brent/AppData/Local/Temp/ccEh5roO.s:83     .text.AT91F_AIC_AcknowledgeIt:00000000 AT91F_AIC_AcknowledgeIt
/cygdrive/c/Users/brent/AppData/Local/Temp/ccEh5roO.s:80     .text.AT91F_AIC_AcknowledgeIt:00000000 $t
/cygdrive/c/Users/brent/AppData/Local/Temp/ccEh5roO.s:97     .text.AT91F_AIC_SetExceptionVector:00000000 AT91F_AIC_SetExceptionVector
/cygdrive/c/Users/brent/AppData/Local/Temp/ccEh5roO.s:94     .text.AT91F_AIC_SetExceptionVector:00000000 $t
/cygdrive/c/Users/brent/AppData/Local/Temp/ccEh5roO.s:123    .text.AT91F_AIC_SetExceptionVector:00000028 $d
/cygdrive/c/Users/brent/AppData/Local/Temp/ccEh5roO.s:131    .text.AT91F_AIC_Trig:00000000 AT91F_AIC_Trig
/cygdrive/c/Users/brent/AppData/Local/Temp/ccEh5roO.s:128    .text.AT91F_AIC_Trig:00000000 $t
/cygdrive/c/Users/brent/AppData/Local/Temp/ccEh5roO.s:146    .text.AT91F_AIC_IsActive:00000000 AT91F_AIC_IsActive
/cygdrive/c/Users/brent/AppData/Local/Temp/ccEh5roO.s:143    .text.AT91F_AIC_IsActive:00000000 $t
/cygdrive/c/Users/brent/AppData/Local/Temp/ccEh5roO.s:162    .text.AT91F_AIC_IsPending:00000000 AT91F_AIC_IsPending
/cygdrive/c/Users/brent/AppData/Local/Temp/ccEh5roO.s:159    .text.AT91F_AIC_IsPending:00000000 $t
/cygdrive/c/Users/brent/AppData/Local/Temp/ccEh5roO.s:178    .text.AT91F_PDC_SetNextRx:00000000 AT91F_PDC_SetNextRx
/cygdrive/c/Users/brent/AppData/Local/Temp/ccEh5roO.s:175    .text.AT91F_PDC_SetNextRx:00000000 $t
/cygdrive/c/Users/brent/AppData/Local/Temp/ccEh5roO.s:191    .text.AT91F_PDC_SetNextTx:00000000 AT91F_PDC_SetNextTx
/cygdrive/c/Users/brent/AppData/Local/Temp/ccEh5roO.s:188    .text.AT91F_PDC_SetNextTx:00000000 $t
/cygdrive/c/Users/brent/AppData/Local/Temp/ccEh5roO.s:204    .text.AT91F_PDC_SetRx:00000000 AT91F_PDC_SetRx
/cygdrive/c/Users/brent/AppData/Local/Temp/ccEh5roO.s:201    .text.AT91F_PDC_SetRx:00000000 $t
/cygdrive/c/Users/brent/AppData/Local/Temp/ccEh5roO.s:217    .text.AT91F_PDC_SetTx:00000000 AT91F_PDC_SetTx
/cygdrive/c/Users/brent/AppData/Local/Temp/ccEh5roO.s:214    .text.AT91F_PDC_SetTx:00000000 $t
/cygdrive/c/Users/brent/AppData/Local/Temp/ccEh5roO.s:230    .text.AT91F_PDC_EnableTx:00000000 AT91F_PDC_EnableTx
/cygdrive/c/Users/brent/AppData/Local/Temp/ccEh5roO.s:227    .text.AT91F_PDC_EnableTx:00000000 $t
/cygdrive/c/Users/brent/AppData/Local/Temp/ccEh5roO.s:244    .text.AT91F_PDC_EnableRx:00000000 AT91F_PDC_EnableRx
/cygdrive/c/Users/brent/AppData/Local/Temp/ccEh5roO.s:241    .text.AT91F_PDC_EnableRx:00000000 $t
/cygdrive/c/Users/brent/AppData/Local/Temp/ccEh5roO.s:257    .text.AT91F_PDC_DisableTx:00000000 AT91F_PDC_DisableTx
/cygdrive/c/Users/brent/AppData/Local/Temp/ccEh5roO.s:254    .text.AT91F_PDC_DisableTx:00000000 $t
/cygdrive/c/Users/brent/AppData/Local/Temp/ccEh5roO.s:271    .text.AT91F_PDC_DisableRx:00000000 AT91F_PDC_DisableRx
/cygdrive/c/Users/brent/AppData/Local/Temp/ccEh5roO.s:268    .text.AT91F_PDC_DisableRx:00000000 $t
/cygdrive/c/Users/brent/AppData/Local/Temp/ccEh5roO.s:284    .text.AT91F_PDC_IsTxEmpty:00000000 AT91F_PDC_IsTxEmpty
/cygdrive/c/Users/brent/AppData/Local/Temp/ccEh5roO.s:281    .text.AT91F_PDC_IsTxEmpty:00000000 $t
/cygdrive/c/Users/brent/AppData/Local/Temp/ccEh5roO.s:301    .text.AT91F_PDC_IsNextTxEmpty:00000000 AT91F_PDC_IsNextTxEmpty
/cygdrive/c/Users/brent/AppData/Local/Temp/ccEh5roO.s:298    .text.AT91F_PDC_IsNextTxEmpty:00000000 $t
/cygdrive/c/Users/brent/AppData/Local/Temp/ccEh5roO.s:318    .text.AT91F_PDC_IsRxEmpty:00000000 AT91F_PDC_IsRxEmpty
/cygdrive/c/Users/brent/AppData/Local/Temp/ccEh5roO.s:315    .text.AT91F_PDC_IsRxEmpty:00000000 $t
/cygdrive/c/Users/brent/AppData/Local/Temp/ccEh5roO.s:335    .text.AT91F_PDC_IsNextRxEmpty:00000000 AT91F_PDC_IsNextRxEmpty
/cygdrive/c/Users/brent/AppData/Local/Temp/ccEh5roO.s:332    .text.AT91F_PDC_IsNextRxEmpty:00000000 $t
/cygdrive/c/Users/brent/AppData/Local/Temp/ccEh5roO.s:352    .text.AT91F_DBGU_InterruptEnable:00000000 AT91F_DBGU_InterruptEnable
/cygdrive/c/Users/brent/AppData/Local/Temp/ccEh5roO.s:349    .text.AT91F_DBGU_InterruptEnable:00000000 $t
/cygdrive/c/Users/brent/AppData/Local/Temp/ccEh5roO.s:364    .text.AT91F_DBGU_InterruptDisable:00000000 AT91F_DBGU_InterruptDisable
/cygdrive/c/Users/brent/AppData/Local/Temp/ccEh5roO.s:361    .text.AT91F_DBGU_InterruptDisable:00000000 $t
/cygdrive/c/Users/brent/AppData/Local/Temp/ccEh5roO.s:376    .text.AT91F_DBGU_GetInterruptMaskStatus:00000000 AT91F_DBGU_GetInterruptMaskStatus
/cygdrive/c/Users/brent/AppData/Local/Temp/ccEh5roO.s:373    .text.AT91F_DBGU_GetInterruptMaskStatus:00000000 $t
/cygdrive/c/Users/brent/AppData/Local/Temp/ccEh5roO.s:388    .text.AT91F_PIO_CfgPeriph:00000000 AT91F_PIO_CfgPeriph
/cygdrive/c/Users/brent/AppData/Local/Temp/ccEh5roO.s:385    .text.AT91F_PIO_CfgPeriph:00000000 $t
/cygdrive/c/Users/brent/AppData/Local/Temp/ccEh5roO.s:403    .text.AT91F_PIO_CfgOutput:00000000 AT91F_PIO_CfgOutput
/cygdrive/c/Users/brent/AppData/Local/Temp/ccEh5roO.s:400    .text.AT91F_PIO_CfgOutput:00000000 $t
/cygdrive/c/Users/brent/AppData/Local/Temp/ccEh5roO.s:416    .text.AT91F_PIO_CfgInput:00000000 AT91F_PIO_CfgInput
/cygdrive/c/Users/brent/AppData/Local/Temp/ccEh5roO.s:413    .text.AT91F_PIO_CfgInput:00000000 $t
/cygdrive/c/Users/brent/AppData/Local/Temp/ccEh5roO.s:429    .text.AT91F_PIO_CfgOpendrain:00000000 AT91F_PIO_CfgOpendrain
/cygdrive/c/Users/brent/AppData/Local/Temp/ccEh5roO.s:426    .text.AT91F_PIO_CfgOpendrain:00000000 $t
/cygdrive/c/Users/brent/AppData/Local/Temp/ccEh5roO.s:443    .text.AT91F_PIO_CfgPullup:00000000 AT91F_PIO_CfgPullup
/cygdrive/c/Users/brent/AppData/Local/Temp/ccEh5roO.s:440    .text.AT91F_PIO_CfgPullup:00000000 $t
/cygdrive/c/Users/brent/AppData/Local/Temp/ccEh5roO.s:457    .text.AT91F_PIO_CfgDirectDrive:00000000 AT91F_PIO_CfgDirectDrive
/cygdrive/c/Users/brent/AppData/Local/Temp/ccEh5roO.s:454    .text.AT91F_PIO_CfgDirectDrive:00000000 $t
/cygdrive/c/Users/brent/AppData/Local/Temp/ccEh5roO.s:474    .text.AT91F_PIO_CfgInputFilter:00000000 AT91F_PIO_CfgInputFilter
/cygdrive/c/Users/brent/AppData/Local/Temp/ccEh5roO.s:471    .text.AT91F_PIO_CfgInputFilter:00000000 $t
/cygdrive/c/Users/brent/AppData/Local/Temp/ccEh5roO.s:488    .text.AT91F_PIO_GetInput:00000000 AT91F_PIO_GetInput
/cygdrive/c/Users/brent/AppData/Local/Temp/ccEh5roO.s:485    .text.AT91F_PIO_GetInput:00000000 $t
/cygdrive/c/Users/brent/AppData/Local/Temp/ccEh5roO.s:500    .text.AT91F_PIO_SetOutput:00000000 AT91F_PIO_SetOutput
/cygdrive/c/Users/brent/AppData/Local/Temp/ccEh5roO.s:497    .text.AT91F_PIO_SetOutput:00000000 $t
/cygdrive/c/Users/brent/AppData/Local/Temp/ccEh5roO.s:512    .text.AT91F_PIO_ClearOutput:00000000 AT91F_PIO_ClearOutput
/cygdrive/c/Users/brent/AppData/Local/Temp/ccEh5roO.s:509    .text.AT91F_PIO_ClearOutput:00000000 $t
/cygdrive/c/Users/brent/AppData/Local/Temp/ccEh5roO.s:524    .text.AT91F_PIO_ForceOutput:00000000 AT91F_PIO_ForceOutput
/cygdrive/c/Users/brent/AppData/Local/Temp/ccEh5roO.s:521    .text.AT91F_PIO_ForceOutput:00000000 $t
/cygdrive/c/Users/brent/AppData/Local/Temp/ccEh5roO.s:536    .text.AT91F_PIO_Enable:00000000 AT91F_PIO_Enable
/cygdrive/c/Users/brent/AppData/Local/Temp/ccEh5roO.s:533    .text.AT91F_PIO_Enable:00000000 $t
/cygdrive/c/Users/brent/AppData/Local/Temp/ccEh5roO.s:548    .text.AT91F_PIO_Disable:00000000 AT91F_PIO_Disable
/cygdrive/c/Users/brent/AppData/Local/Temp/ccEh5roO.s:545    .text.AT91F_PIO_Disable:00000000 $t
/cygdrive/c/Users/brent/AppData/Local/Temp/ccEh5roO.s:560    .text.AT91F_PIO_GetStatus:00000000 AT91F_PIO_GetStatus
/cygdrive/c/Users/brent/AppData/Local/Temp/ccEh5roO.s:557    .text.AT91F_PIO_GetStatus:00000000 $t
/cygdrive/c/Users/brent/AppData/Local/Temp/ccEh5roO.s:572    .text.AT91F_PIO_OutputEnable:00000000 AT91F_PIO_OutputEnable
/cygdrive/c/Users/brent/AppData/Local/Temp/ccEh5roO.s:569    .text.AT91F_PIO_OutputEnable:00000000 $t
/cygdrive/c/Users/brent/AppData/Local/Temp/ccEh5roO.s:584    .text.AT91F_PIO_OutputDisable:00000000 AT91F_PIO_OutputDisable
/cygdrive/c/Users/brent/AppData/Local/Temp/ccEh5roO.s:581    .text.AT91F_PIO_OutputDisable:00000000 $t
/cygdrive/c/Users/brent/AppData/Local/Temp/ccEh5roO.s:596    .text.AT91F_PIO_GetOutputStatus:00000000 AT91F_PIO_GetOutputStatus
/cygdrive/c/Users/brent/AppData/Local/Temp/ccEh5roO.s:593    .text.AT91F_PIO_GetOutputStatus:00000000 $t
/cygdrive/c/Users/brent/AppData/Local/Temp/ccEh5roO.s:608    .text.AT91F_PIO_InputFilterEnable:00000000 AT91F_PIO_InputFilterEnable
/cygdrive/c/Users/brent/AppData/Local/Temp/ccEh5roO.s:605    .text.AT91F_PIO_InputFilterEnable:00000000 $t
/cygdrive/c/Users/brent/AppData/Local/Temp/ccEh5roO.s:620    .text.AT91F_PIO_InputFilterDisable:00000000 AT91F_PIO_InputFilterDisable
/cygdrive/c/Users/brent/AppData/Local/Temp/ccEh5roO.s:617    .text.AT91F_PIO_InputFilterDisable:00000000 $t
/cygdrive/c/Users/brent/AppData/Local/Temp/ccEh5roO.s:632    .text.AT91F_PIO_GetInputFilterStatus:00000000 AT91F_PIO_GetInputFilterStatus
/cygdrive/c/Users/brent/AppData/Local/Temp/ccEh5roO.s:629    .text.AT91F_PIO_GetInputFilterStatus:00000000 $t
/cygdrive/c/Users/brent/AppData/Local/Temp/ccEh5roO.s:644    .text.AT91F_PIO_GetOutputDataStatus:00000000 AT91F_PIO_GetOutputDataStatus
/cygdrive/c/Users/brent/AppData/Local/Temp/ccEh5roO.s:641    .text.AT91F_PIO_GetOutputDataStatus:00000000 $t
/cygdrive/c/Users/brent/AppData/Local/Temp/ccEh5roO.s:656    .text.AT91F_PIO_InterruptEnable:00000000 AT91F_PIO_InterruptEnable
/cygdrive/c/Users/brent/AppData/Local/Temp/ccEh5roO.s:653    .text.AT91F_PIO_InterruptEnable:00000000 $t
/cygdrive/c/Users/brent/AppData/Local/Temp/ccEh5roO.s:668    .text.AT91F_PIO_InterruptDisable:00000000 AT91F_PIO_InterruptDisable
/cygdrive/c/Users/brent/AppData/Local/Temp/ccEh5roO.s:665    .text.AT91F_PIO_InterruptDisable:00000000 $t
/cygdrive/c/Users/brent/AppData/Local/Temp/ccEh5roO.s:680    .text.AT91F_PIO_GetInterruptMaskStatus:00000000 AT91F_PIO_GetInterruptMaskStatus
/cygdrive/c/Users/brent/AppData/Local/Temp/ccEh5roO.s:677    .text.AT91F_PIO_GetInterruptMaskStatus:00000000 $t
/cygdrive/c/Users/brent/AppData/Local/Temp/ccEh5roO.s:692    .text.AT91F_PIO_GetInterruptStatus:00000000 AT91F_PIO_GetInterruptStatus
/cygdrive/c/Users/brent/AppData/Local/Temp/ccEh5roO.s:689    .text.AT91F_PIO_GetInterruptStatus:00000000 $t
/cygdrive/c/Users/brent/AppData/Local/Temp/ccEh5roO.s:704    .text.AT91F_PIO_MultiDriverEnable:00000000 AT91F_PIO_MultiDriverEnable
/cygdrive/c/Users/brent/AppData/Local/Temp/ccEh5roO.s:701    .text.AT91F_PIO_MultiDriverEnable:00000000 $t
/cygdrive/c/Users/brent/AppData/Local/Temp/ccEh5roO.s:716    .text.AT91F_PIO_MultiDriverDisable:00000000 AT91F_PIO_MultiDriverDisable
/cygdrive/c/Users/brent/AppData/Local/Temp/ccEh5roO.s:713    .text.AT91F_PIO_MultiDriverDisable:00000000 $t
/cygdrive/c/Users/brent/AppData/Local/Temp/ccEh5roO.s:728    .text.AT91F_PIO_GetMultiDriverStatus:00000000 AT91F_PIO_GetMultiDriverStatus
/cygdrive/c/Users/brent/AppData/Local/Temp/ccEh5roO.s:725    .text.AT91F_PIO_GetMultiDriverStatus:00000000 $t
/cygdrive/c/Users/brent/AppData/Local/Temp/ccEh5roO.s:740    .text.AT91F_PIO_A_RegisterSelection:00000000 AT91F_PIO_A_RegisterSelection
/cygdrive/c/Users/brent/AppData/Local/Temp/ccEh5roO.s:737    .text.AT91F_PIO_A_RegisterSelection:00000000 $t
/cygdrive/c/Users/brent/AppData/Local/Temp/ccEh5roO.s:752    .text.AT91F_PIO_B_RegisterSelection:00000000 AT91F_PIO_B_RegisterSelection
/cygdrive/c/Users/brent/AppData/Local/Temp/ccEh5roO.s:749    .text.AT91F_PIO_B_RegisterSelection:00000000 $t
/cygdrive/c/Users/brent/AppData/Local/Temp/ccEh5roO.s:764    .text.AT91F_PIO_Get_AB_RegisterStatus:00000000 AT91F_PIO_Get_AB_RegisterStatus
/cygdrive/c/Users/brent/AppData/Local/Temp/ccEh5roO.s:761    .text.AT91F_PIO_Get_AB_RegisterStatus:00000000 $t
/cygdrive/c/Users/brent/AppData/Local/Temp/ccEh5roO.s:776    .text.AT91F_PIO_OutputWriteEnable:00000000 AT91F_PIO_OutputWriteEnable
/cygdrive/c/Users/brent/AppData/Local/Temp/ccEh5roO.s:773    .text.AT91F_PIO_OutputWriteEnable:00000000 $t
/cygdrive/c/Users/brent/AppData/Local/Temp/ccEh5roO.s:789    .text.AT91F_PIO_OutputWriteDisable:00000000 AT91F_PIO_OutputWriteDisable
/cygdrive/c/Users/brent/AppData/Local/Temp/ccEh5roO.s:786    .text.AT91F_PIO_OutputWriteDisable:00000000 $t
/cygdrive/c/Users/brent/AppData/Local/Temp/ccEh5roO.s:802    .text.AT91F_PIO_GetOutputWriteStatus:00000000 AT91F_PIO_GetOutputWriteStatus
/cygdrive/c/Users/brent/AppData/Local/Temp/ccEh5roO.s:799    .text.AT91F_PIO_GetOutputWriteStatus:00000000 $t
/cygdrive/c/Users/brent/AppData/Local/Temp/ccEh5roO.s:815    .text.AT91F_PIO_GetCfgPullup:00000000 AT91F_PIO_GetCfgPullup
/cygdrive/c/Users/brent/AppData/Local/Temp/ccEh5roO.s:812    .text.AT91F_PIO_GetCfgPullup:00000000 $t
/cygdrive/c/Users/brent/AppData/Local/Temp/ccEh5roO.s:827    .text.AT91F_PMC_CfgSysClkEnableReg:00000000 AT91F_PMC_CfgSysClkEnableReg
/cygdrive/c/Users/brent/AppData/Local/Temp/ccEh5roO.s:824    .text.AT91F_PMC_CfgSysClkEnableReg:00000000 $t
/cygdrive/c/Users/brent/AppData/Local/Temp/ccEh5roO.s:839    .text.AT91F_PMC_CfgSysClkDisableReg:00000000 AT91F_PMC_CfgSysClkDisableReg
/cygdrive/c/Users/brent/AppData/Local/Temp/ccEh5roO.s:836    .text.AT91F_PMC_CfgSysClkDisableReg:00000000 $t
/cygdrive/c/Users/brent/AppData/Local/Temp/ccEh5roO.s:851    .text.AT91F_PMC_GetSysClkStatusReg:00000000 AT91F_PMC_GetSysClkStatusReg
/cygdrive/c/Users/brent/AppData/Local/Temp/ccEh5roO.s:848    .text.AT91F_PMC_GetSysClkStatusReg:00000000 $t
/cygdrive/c/Users/brent/AppData/Local/Temp/ccEh5roO.s:863    .text.AT91F_PMC_EnablePeriphClock:00000000 AT91F_PMC_EnablePeriphClock
/cygdrive/c/Users/brent/AppData/Local/Temp/ccEh5roO.s:860    .text.AT91F_PMC_EnablePeriphClock:00000000 $t
/cygdrive/c/Users/brent/AppData/Local/Temp/ccEh5roO.s:875    .text.AT91F_PMC_DisablePeriphClock:00000000 AT91F_PMC_DisablePeriphClock
/cygdrive/c/Users/brent/AppData/Local/Temp/ccEh5roO.s:872    .text.AT91F_PMC_DisablePeriphClock:00000000 $t
/cygdrive/c/Users/brent/AppData/Local/Temp/ccEh5roO.s:887    .text.AT91F_PMC_GetPeriphClock:00000000 AT91F_PMC_GetPeriphClock
/cygdrive/c/Users/brent/AppData/Local/Temp/ccEh5roO.s:884    .text.AT91F_PMC_GetPeriphClock:00000000 $t
/cygdrive/c/Users/brent/AppData/Local/Temp/ccEh5roO.s:899    .text.AT91F_CKGR_CfgMainOscillatorReg:00000000 AT91F_CKGR_CfgMainOscillatorReg
/cygdrive/c/Users/brent/AppData/Local/Temp/ccEh5roO.s:896    .text.AT91F_CKGR_CfgMainOscillatorReg:00000000 $t
/cygdrive/c/Users/brent/AppData/Local/Temp/ccEh5roO.s:911    .text.AT91F_CKGR_GetMainOscillatorReg:00000000 AT91F_CKGR_GetMainOscillatorReg
/cygdrive/c/Users/brent/AppData/Local/Temp/ccEh5roO.s:908    .text.AT91F_CKGR_GetMainOscillatorReg:00000000 $t
/cygdrive/c/Users/brent/AppData/Local/Temp/ccEh5roO.s:923    .text.AT91F_CKGR_EnableMainOscillator:00000000 AT91F_CKGR_EnableMainOscillator
/cygdrive/c/Users/brent/AppData/Local/Temp/ccEh5roO.s:920    .text.AT91F_CKGR_EnableMainOscillator:00000000 $t
/cygdrive/c/Users/brent/AppData/Local/Temp/ccEh5roO.s:938    .text.AT91F_CKGR_DisableMainOscillator:00000000 AT91F_CKGR_DisableMainOscillator
/cygdrive/c/Users/brent/AppData/Local/Temp/ccEh5roO.s:935    .text.AT91F_CKGR_DisableMainOscillator:00000000 $t
/cygdrive/c/Users/brent/AppData/Local/Temp/ccEh5roO.s:954    .text.AT91F_CKGR_CfgMainOscStartUpTime:00000000 AT91F_CKGR_CfgMainOscStartUpTime
/cygdrive/c/Users/brent/AppData/Local/Temp/ccEh5roO.s:951    .text.AT91F_CKGR_CfgMainOscStartUpTime:00000000 $t
/cygdrive/c/Users/brent/AppData/Local/Temp/ccEh5roO.s:976    .text.AT91F_CKGR_CfgMainOscStartUpTime:00000024 $d
/cygdrive/c/Users/brent/AppData/Local/Temp/ccEh5roO.s:985    .text.AT91F_CKGR_GetMainClockFreqReg:00000000 AT91F_CKGR_GetMainClockFreqReg
/cygdrive/c/Users/brent/AppData/Local/Temp/ccEh5roO.s:982    .text.AT91F_CKGR_GetMainClockFreqReg:00000000 $t
/cygdrive/c/Users/brent/AppData/Local/Temp/ccEh5roO.s:997    .text.AT91F_CKGR_GetMainClock:00000000 AT91F_CKGR_GetMainClock
/cygdrive/c/Users/brent/AppData/Local/Temp/ccEh5roO.s:994    .text.AT91F_CKGR_GetMainClock:00000000 $t
/cygdrive/c/Users/brent/AppData/Local/Temp/ccEh5roO.s:1010   .text.AT91F_CKGR_GetMainClock:00000010 $d
/cygdrive/c/Users/brent/AppData/Local/Temp/ccEh5roO.s:1018   .text.AT91F_PMC_CfgMCKReg:00000000 AT91F_PMC_CfgMCKReg
/cygdrive/c/Users/brent/AppData/Local/Temp/ccEh5roO.s:1015   .text.AT91F_PMC_CfgMCKReg:00000000 $t
/cygdrive/c/Users/brent/AppData/Local/Temp/ccEh5roO.s:1030   .text.AT91F_PMC_GetMCKReg:00000000 AT91F_PMC_GetMCKReg
/cygdrive/c/Users/brent/AppData/Local/Temp/ccEh5roO.s:1027   .text.AT91F_PMC_GetMCKReg:00000000 $t
/cygdrive/c/Users/brent/AppData/Local/Temp/ccEh5roO.s:1042   .text.AT91F_PMC_EnablePCK:00000000 AT91F_PMC_EnablePCK
/cygdrive/c/Users/brent/AppData/Local/Temp/ccEh5roO.s:1039   .text.AT91F_PMC_EnablePCK:00000000 $t
/cygdrive/c/Users/brent/AppData/Local/Temp/ccEh5roO.s:1060   .text.AT91F_PMC_DisablePCK:00000000 AT91F_PMC_DisablePCK
/cygdrive/c/Users/brent/AppData/Local/Temp/ccEh5roO.s:1057   .text.AT91F_PMC_DisablePCK:00000000 $t
/cygdrive/c/Users/brent/AppData/Local/Temp/ccEh5roO.s:1075   .text.AT91F_PMC_EnableIt:00000000 AT91F_PMC_EnableIt
/cygdrive/c/Users/brent/AppData/Local/Temp/ccEh5roO.s:1072   .text.AT91F_PMC_EnableIt:00000000 $t
/cygdrive/c/Users/brent/AppData/Local/Temp/ccEh5roO.s:1087   .text.AT91F_PMC_DisableIt:00000000 AT91F_PMC_DisableIt
/cygdrive/c/Users/brent/AppData/Local/Temp/ccEh5roO.s:1084   .text.AT91F_PMC_DisableIt:00000000 $t
/cygdrive/c/Users/brent/AppData/Local/Temp/ccEh5roO.s:1099   .text.AT91F_PMC_GetStatus:00000000 AT91F_PMC_GetStatus
/cygdrive/c/Users/brent/AppData/Local/Temp/ccEh5roO.s:1096   .text.AT91F_PMC_GetStatus:00000000 $t
/cygdrive/c/Users/brent/AppData/Local/Temp/ccEh5roO.s:1111   .text.AT91F_PMC_GetInterruptMaskStatus:00000000 AT91F_PMC_GetInterruptMaskStatus
/cygdrive/c/Users/brent/AppData/Local/Temp/ccEh5roO.s:1108   .text.AT91F_PMC_GetInterruptMaskStatus:00000000 $t
/cygdrive/c/Users/brent/AppData/Local/Temp/ccEh5roO.s:1123   .text.AT91F_CKGR_CfgPLLReg:00000000 AT91F_CKGR_CfgPLLReg
/cygdrive/c/Users/brent/AppData/Local/Temp/ccEh5roO.s:1120   .text.AT91F_CKGR_CfgPLLReg:00000000 $t
/cygdrive/c/Users/brent/AppData/Local/Temp/ccEh5roO.s:1135   .text.AT91F_CKGR_GetPLLReg:00000000 AT91F_CKGR_GetPLLReg
/cygdrive/c/Users/brent/AppData/Local/Temp/ccEh5roO.s:1132   .text.AT91F_CKGR_GetPLLReg:00000000 $t
/cygdrive/c/Users/brent/AppData/Local/Temp/ccEh5roO.s:1147   .text.AT91F_RSTSoftReset:00000000 AT91F_RSTSoftReset
/cygdrive/c/Users/brent/AppData/Local/Temp/ccEh5roO.s:1144   .text.AT91F_RSTSoftReset:00000000 $t
/cygdrive/c/Users/brent/AppData/Local/Temp/ccEh5roO.s:1162   .text.AT91F_RSTSetMode:00000000 AT91F_RSTSetMode
/cygdrive/c/Users/brent/AppData/Local/Temp/ccEh5roO.s:1159   .text.AT91F_RSTSetMode:00000000 $t
/cygdrive/c/Users/brent/AppData/Local/Temp/ccEh5roO.s:1177   .text.AT91F_RSTGetMode:00000000 AT91F_RSTGetMode
/cygdrive/c/Users/brent/AppData/Local/Temp/ccEh5roO.s:1174   .text.AT91F_RSTGetMode:00000000 $t
/cygdrive/c/Users/brent/AppData/Local/Temp/ccEh5roO.s:1189   .text.AT91F_RSTGetStatus:00000000 AT91F_RSTGetStatus
/cygdrive/c/Users/brent/AppData/Local/Temp/ccEh5roO.s:1186   .text.AT91F_RSTGetStatus:00000000 $t
/cygdrive/c/Users/brent/AppData/Local/Temp/ccEh5roO.s:1201   .text.AT91F_RSTIsSoftRstActive:00000000 AT91F_RSTIsSoftRstActive
/cygdrive/c/Users/brent/AppData/Local/Temp/ccEh5roO.s:1198   .text.AT91F_RSTIsSoftRstActive:00000000 $t
/cygdrive/c/Users/brent/AppData/Local/Temp/ccEh5roO.s:1216   .text.AT91F_RTTSetTimeBase:00000000 AT91F_RTTSetTimeBase
/cygdrive/c/Users/brent/AppData/Local/Temp/ccEh5roO.s:1213   .text.AT91F_RTTSetTimeBase:00000000 $t
/cygdrive/c/Users/brent/AppData/Local/Temp/ccEh5roO.s:1248   .text.AT91F_RTTSetTimeBase:00000034 $d
/cygdrive/c/Users/brent/AppData/Local/Temp/ccEh5roO.s:1257   .text.AT91F_RTTSetPrescaler:00000000 AT91F_RTTSetPrescaler
/cygdrive/c/Users/brent/AppData/Local/Temp/ccEh5roO.s:1254   .text.AT91F_RTTSetPrescaler:00000000 $t
/cygdrive/c/Users/brent/AppData/Local/Temp/ccEh5roO.s:1274   .text.AT91F_RTTSetPrescaler:00000018 $d
/cygdrive/c/Users/brent/AppData/Local/Temp/ccEh5roO.s:1283   .text.AT91F_RTTRestart:00000000 AT91F_RTTRestart
/cygdrive/c/Users/brent/AppData/Local/Temp/ccEh5roO.s:1280   .text.AT91F_RTTRestart:00000000 $t
/cygdrive/c/Users/brent/AppData/Local/Temp/ccEh5roO.s:1299   .text.AT91F_RTTSetAlarmINT:00000000 AT91F_RTTSetAlarmINT
/cygdrive/c/Users/brent/AppData/Local/Temp/ccEh5roO.s:1296   .text.AT91F_RTTSetAlarmINT:00000000 $t
/cygdrive/c/Users/brent/AppData/Local/Temp/ccEh5roO.s:1315   .text.AT91F_RTTClearAlarmINT:00000000 AT91F_RTTClearAlarmINT
/cygdrive/c/Users/brent/AppData/Local/Temp/ccEh5roO.s:1312   .text.AT91F_RTTClearAlarmINT:00000000 $t
/cygdrive/c/Users/brent/AppData/Local/Temp/ccEh5roO.s:1326   .text.AT91F_RTTClearAlarmINT:0000000c $d
/cygdrive/c/Users/brent/AppData/Local/Temp/ccEh5roO.s:1334   .text.AT91F_RTTSetRttIncINT:00000000 AT91F_RTTSetRttIncINT
/cygdrive/c/Users/brent/AppData/Local/Temp/ccEh5roO.s:1331   .text.AT91F_RTTSetRttIncINT:00000000 $t
/cygdrive/c/Users/brent/AppData/Local/Temp/ccEh5roO.s:1350   .text.AT91F_RTTClearRttIncINT:00000000 AT91F_RTTClearRttIncINT
/cygdrive/c/Users/brent/AppData/Local/Temp/ccEh5roO.s:1347   .text.AT91F_RTTClearRttIncINT:00000000 $t
/cygdrive/c/Users/brent/AppData/Local/Temp/ccEh5roO.s:1361   .text.AT91F_RTTClearRttIncINT:0000000c $d
/cygdrive/c/Users/brent/AppData/Local/Temp/ccEh5roO.s:1369   .text.AT91F_RTTSetAlarmValue:00000000 AT91F_RTTSetAlarmValue
/cygdrive/c/Users/brent/AppData/Local/Temp/ccEh5roO.s:1366   .text.AT91F_RTTSetAlarmValue:00000000 $t
/cygdrive/c/Users/brent/AppData/Local/Temp/ccEh5roO.s:1381   .text.AT91F_RTTGetAlarmValue:00000000 AT91F_RTTGetAlarmValue
/cygdrive/c/Users/brent/AppData/Local/Temp/ccEh5roO.s:1378   .text.AT91F_RTTGetAlarmValue:00000000 $t
/cygdrive/c/Users/brent/AppData/Local/Temp/ccEh5roO.s:1393   .text.AT91F_RTTGetStatus:00000000 AT91F_RTTGetStatus
/cygdrive/c/Users/brent/AppData/Local/Temp/ccEh5roO.s:1390   .text.AT91F_RTTGetStatus:00000000 $t
/cygdrive/c/Users/brent/AppData/Local/Temp/ccEh5roO.s:1405   .text.AT91F_RTTReadValue:00000000 AT91F_RTTReadValue
/cygdrive/c/Users/brent/AppData/Local/Temp/ccEh5roO.s:1402   .text.AT91F_RTTReadValue:00000000 $t
/cygdrive/c/Users/brent/AppData/Local/Temp/ccEh5roO.s:1428   .text.AT91F_PITInit:00000000 AT91F_PITInit
/cygdrive/c/Users/brent/AppData/Local/Temp/ccEh5roO.s:1425   .text.AT91F_PITInit:00000000 $t
/cygdrive/c/Users/brent/AppData/Local/Temp/ccEh5roO.s:1452   .text.AT91F_PITSetPIV:00000000 AT91F_PITSetPIV
/cygdrive/c/Users/brent/AppData/Local/Temp/ccEh5roO.s:1449   .text.AT91F_PITSetPIV:00000000 $t
/cygdrive/c/Users/brent/AppData/Local/Temp/ccEh5roO.s:1469   .text.AT91F_PITEnableInt:00000000 AT91F_PITEnableInt
/cygdrive/c/Users/brent/AppData/Local/Temp/ccEh5roO.s:1466   .text.AT91F_PITEnableInt:00000000 $t
/cygdrive/c/Users/brent/AppData/Local/Temp/ccEh5roO.s:1485   .text.AT91F_PITDisableInt:00000000 AT91F_PITDisableInt
/cygdrive/c/Users/brent/AppData/Local/Temp/ccEh5roO.s:1482   .text.AT91F_PITDisableInt:00000000 $t
/cygdrive/c/Users/brent/AppData/Local/Temp/ccEh5roO.s:1496   .text.AT91F_PITDisableInt:0000000c $d
/cygdrive/c/Users/brent/AppData/Local/Temp/ccEh5roO.s:1504   .text.AT91F_PITGetMode:00000000 AT91F_PITGetMode
/cygdrive/c/Users/brent/AppData/Local/Temp/ccEh5roO.s:1501   .text.AT91F_PITGetMode:00000000 $t
/cygdrive/c/Users/brent/AppData/Local/Temp/ccEh5roO.s:1516   .text.AT91F_PITGetStatus:00000000 AT91F_PITGetStatus
/cygdrive/c/Users/brent/AppData/Local/Temp/ccEh5roO.s:1513   .text.AT91F_PITGetStatus:00000000 $t
/cygdrive/c/Users/brent/AppData/Local/Temp/ccEh5roO.s:1528   .text.AT91F_PITGetPIIR:00000000 AT91F_PITGetPIIR
/cygdrive/c/Users/brent/AppData/Local/Temp/ccEh5roO.s:1525   .text.AT91F_PITGetPIIR:00000000 $t
/cygdrive/c/Users/brent/AppData/Local/Temp/ccEh5roO.s:1540   .text.AT91F_PITGetPIVR:00000000 AT91F_PITGetPIVR
/cygdrive/c/Users/brent/AppData/Local/Temp/ccEh5roO.s:1537   .text.AT91F_PITGetPIVR:00000000 $t
/cygdrive/c/Users/brent/AppData/Local/Temp/ccEh5roO.s:1552   .text.AT91F_WDTSetMode:00000000 AT91F_WDTSetMode
/cygdrive/c/Users/brent/AppData/Local/Temp/ccEh5roO.s:1549   .text.AT91F_WDTSetMode:00000000 $t
/cygdrive/c/Users/brent/AppData/Local/Temp/ccEh5roO.s:1564   .text.AT91F_WDTRestart:00000000 AT91F_WDTRestart
/cygdrive/c/Users/brent/AppData/Local/Temp/ccEh5roO.s:1561   .text.AT91F_WDTRestart:00000000 $t
/cygdrive/c/Users/brent/AppData/Local/Temp/ccEh5roO.s:1573   .text.AT91F_WDTRestart:00000008 $d
/cygdrive/c/Users/brent/AppData/Local/Temp/ccEh5roO.s:1581   .text.AT91F_WDTSGettatus:00000000 AT91F_WDTSGettatus
/cygdrive/c/Users/brent/AppData/Local/Temp/ccEh5roO.s:1578   .text.AT91F_WDTSGettatus:00000000 $t
/cygdrive/c/Users/brent/AppData/Local/Temp/ccEh5roO.s:1595   .text.AT91F_WDTGetPeriod:00000000 AT91F_WDTGetPeriod
/cygdrive/c/Users/brent/AppData/Local/Temp/ccEh5roO.s:1592   .text.AT91F_WDTGetPeriod:00000000 $t
/cygdrive/c/Users/brent/AppData/Local/Temp/ccEh5roO.s:1615   .text.AT91F_WDTGetPeriod:0000001c $d
/cygdrive/c/Users/brent/AppData/Local/Temp/ccEh5roO.s:1623   .text.AT91F_VREG_Enable_LowPowerMode:00000000 AT91F_VREG_Enable_LowPowerMode
/cygdrive/c/Users/brent/AppData/Local/Temp/ccEh5roO.s:1620   .text.AT91F_VREG_Enable_LowPowerMode:00000000 $t
/cygdrive/c/Users/brent/AppData/Local/Temp/ccEh5roO.s:1638   .text.AT91F_VREG_Disable_LowPowerMode:00000000 AT91F_VREG_Disable_LowPowerMode
/cygdrive/c/Users/brent/AppData/Local/Temp/ccEh5roO.s:1635   .text.AT91F_VREG_Disable_LowPowerMode:00000000 $t
/cygdrive/c/Users/brent/AppData/Local/Temp/ccEh5roO.s:1653   .text.AT91F_MC_Remap:00000000 AT91F_MC_Remap
/cygdrive/c/Users/brent/AppData/Local/Temp/ccEh5roO.s:1650   .text.AT91F_MC_Remap:00000000 $t
/cygdrive/c/Users/brent/AppData/Local/Temp/ccEh5roO.s:1663   .text.AT91F_MC_Remap:00000008 $d
/cygdrive/c/Users/brent/AppData/Local/Temp/ccEh5roO.s:1671   .text.AT91F_MC_EFC_CfgModeReg:00000000 AT91F_MC_EFC_CfgModeReg
/cygdrive/c/Users/brent/AppData/Local/Temp/ccEh5roO.s:1668   .text.AT91F_MC_EFC_CfgModeReg:00000000 $t
/cygdrive/c/Users/brent/AppData/Local/Temp/ccEh5roO.s:1683   .text.AT91F_MC_EFC_GetModeReg:00000000 AT91F_MC_EFC_GetModeReg
/cygdrive/c/Users/brent/AppData/Local/Temp/ccEh5roO.s:1680   .text.AT91F_MC_EFC_GetModeReg:00000000 $t
/cygdrive/c/Users/brent/AppData/Local/Temp/ccEh5roO.s:1696   .text.AT91F_MC_EFC_ComputeFMCN:00000000 AT91F_MC_EFC_ComputeFMCN
/cygdrive/c/Users/brent/AppData/Local/Temp/ccEh5roO.s:1693   .text.AT91F_MC_EFC_ComputeFMCN:00000000 $t
/cygdrive/c/Users/brent/AppData/Local/Temp/ccEh5roO.s:1707   .text.AT91F_MC_EFC_ComputeFMCN:00000010 $d
/cygdrive/c/Users/brent/AppData/Local/Temp/ccEh5roO.s:1715   .text.AT91F_MC_EFC_PerformCmd:00000000 AT91F_MC_EFC_PerformCmd
/cygdrive/c/Users/brent/AppData/Local/Temp/ccEh5roO.s:1712   .text.AT91F_MC_EFC_PerformCmd:00000000 $t
/cygdrive/c/Users/brent/AppData/Local/Temp/ccEh5roO.s:1727   .text.AT91F_MC_EFC_GetStatus:00000000 AT91F_MC_EFC_GetStatus
/cygdrive/c/Users/brent/AppData/Local/Temp/ccEh5roO.s:1724   .text.AT91F_MC_EFC_GetStatus:00000000 $t
/cygdrive/c/Users/brent/AppData/Local/Temp/ccEh5roO.s:1739   .text.AT91F_SPI_CfgCs:00000000 AT91F_SPI_CfgCs
/cygdrive/c/Users/brent/AppData/Local/Temp/ccEh5roO.s:1736   .text.AT91F_SPI_CfgCs:00000000 $t
/cygdrive/c/Users/brent/AppData/Local/Temp/ccEh5roO.s:1754   .text.AT91F_SPI_EnableIt:00000000 AT91F_SPI_EnableIt
/cygdrive/c/Users/brent/AppData/Local/Temp/ccEh5roO.s:1751   .text.AT91F_SPI_EnableIt:00000000 $t
/cygdrive/c/Users/brent/AppData/Local/Temp/ccEh5roO.s:1766   .text.AT91F_SPI_DisableIt:00000000 AT91F_SPI_DisableIt
/cygdrive/c/Users/brent/AppData/Local/Temp/ccEh5roO.s:1763   .text.AT91F_SPI_DisableIt:00000000 $t
/cygdrive/c/Users/brent/AppData/Local/Temp/ccEh5roO.s:1778   .text.AT91F_SPI_Reset:00000000 AT91F_SPI_Reset
/cygdrive/c/Users/brent/AppData/Local/Temp/ccEh5roO.s:1775   .text.AT91F_SPI_Reset:00000000 $t
/cygdrive/c/Users/brent/AppData/Local/Temp/ccEh5roO.s:1791   .text.AT91F_SPI_Enable:00000000 AT91F_SPI_Enable
/cygdrive/c/Users/brent/AppData/Local/Temp/ccEh5roO.s:1788   .text.AT91F_SPI_Enable:00000000 $t
/cygdrive/c/Users/brent/AppData/Local/Temp/ccEh5roO.s:1804   .text.AT91F_SPI_Disable:00000000 AT91F_SPI_Disable
/cygdrive/c/Users/brent/AppData/Local/Temp/ccEh5roO.s:1801   .text.AT91F_SPI_Disable:00000000 $t
/cygdrive/c/Users/brent/AppData/Local/Temp/ccEh5roO.s:1817   .text.AT91F_SPI_CfgMode:00000000 AT91F_SPI_CfgMode
/cygdrive/c/Users/brent/AppData/Local/Temp/ccEh5roO.s:1814   .text.AT91F_SPI_CfgMode:00000000 $t
/cygdrive/c/Users/brent/AppData/Local/Temp/ccEh5roO.s:1829   .text.AT91F_SPI_CfgPCS:00000000 AT91F_SPI_CfgPCS
/cygdrive/c/Users/brent/AppData/Local/Temp/ccEh5roO.s:1826   .text.AT91F_SPI_CfgPCS:00000000 $t
/cygdrive/c/Users/brent/AppData/Local/Temp/ccEh5roO.s:1847   .text.AT91F_SPI_CfgPCS:00000018 $d
/cygdrive/c/Users/brent/AppData/Local/Temp/ccEh5roO.s:1855   .text.AT91F_SPI_PutChar:00000000 AT91F_SPI_PutChar
/cygdrive/c/Users/brent/AppData/Local/Temp/ccEh5roO.s:1852   .text.AT91F_SPI_PutChar:00000000 $t
/cygdrive/c/Users/brent/AppData/Local/Temp/ccEh5roO.s:1873   .text.AT91F_SPI_PutChar:0000001c $d
/cygdrive/c/Users/brent/AppData/Local/Temp/ccEh5roO.s:1881   .text.AT91F_SPI_GetChar:00000000 AT91F_SPI_GetChar
/cygdrive/c/Users/brent/AppData/Local/Temp/ccEh5roO.s:1878   .text.AT91F_SPI_GetChar:00000000 $t
/cygdrive/c/Users/brent/AppData/Local/Temp/ccEh5roO.s:1891   .text.AT91F_SPI_GetChar:00000008 $d
/cygdrive/c/Users/brent/AppData/Local/Temp/ccEh5roO.s:1899   .text.AT91F_SPI_GetInterruptMaskStatus:00000000 AT91F_SPI_GetInterruptMaskStatus
/cygdrive/c/Users/brent/AppData/Local/Temp/ccEh5roO.s:1896   .text.AT91F_SPI_GetInterruptMaskStatus:00000000 $t
/cygdrive/c/Users/brent/AppData/Local/Temp/ccEh5roO.s:1911   .text.AT91F_ADC_EnableIt:00000000 AT91F_ADC_EnableIt
/cygdrive/c/Users/brent/AppData/Local/Temp/ccEh5roO.s:1908   .text.AT91F_ADC_EnableIt:00000000 $t
/cygdrive/c/Users/brent/AppData/Local/Temp/ccEh5roO.s:1923   .text.AT91F_ADC_DisableIt:00000000 AT91F_ADC_DisableIt
/cygdrive/c/Users/brent/AppData/Local/Temp/ccEh5roO.s:1920   .text.AT91F_ADC_DisableIt:00000000 $t
/cygdrive/c/Users/brent/AppData/Local/Temp/ccEh5roO.s:1935   .text.AT91F_ADC_GetStatus:00000000 AT91F_ADC_GetStatus
/cygdrive/c/Users/brent/AppData/Local/Temp/ccEh5roO.s:1932   .text.AT91F_ADC_GetStatus:00000000 $t
/cygdrive/c/Users/brent/AppData/Local/Temp/ccEh5roO.s:1947   .text.AT91F_ADC_GetInterruptMaskStatus:00000000 AT91F_ADC_GetInterruptMaskStatus
/cygdrive/c/Users/brent/AppData/Local/Temp/ccEh5roO.s:1944   .text.AT91F_ADC_GetInterruptMaskStatus:00000000 $t
/cygdrive/c/Users/brent/AppData/Local/Temp/ccEh5roO.s:1959   .text.AT91F_ADC_CfgModeReg:00000000 AT91F_ADC_CfgModeReg
/cygdrive/c/Users/brent/AppData/Local/Temp/ccEh5roO.s:1956   .text.AT91F_ADC_CfgModeReg:00000000 $t
/cygdrive/c/Users/brent/AppData/Local/Temp/ccEh5roO.s:1971   .text.AT91F_ADC_GetModeReg:00000000 AT91F_ADC_GetModeReg
/cygdrive/c/Users/brent/AppData/Local/Temp/ccEh5roO.s:1968   .text.AT91F_ADC_GetModeReg:00000000 $t
/cygdrive/c/Users/brent/AppData/Local/Temp/ccEh5roO.s:1983   .text.AT91F_ADC_CfgTimings:00000000 AT91F_ADC_CfgTimings
/cygdrive/c/Users/brent/AppData/Local/Temp/ccEh5roO.s:1980   .text.AT91F_ADC_CfgTimings:00000000 $t
/cygdrive/c/Users/brent/AppData/Local/Temp/ccEh5roO.s:2033   .text.AT91F_ADC_EnableChannel:00000000 AT91F_ADC_EnableChannel
/cygdrive/c/Users/brent/AppData/Local/Temp/ccEh5roO.s:2030   .text.AT91F_ADC_EnableChannel:00000000 $t
/cygdrive/c/Users/brent/AppData/Local/Temp/ccEh5roO.s:2045   .text.AT91F_ADC_DisableChannel:00000000 AT91F_ADC_DisableChannel
/cygdrive/c/Users/brent/AppData/Local/Temp/ccEh5roO.s:2042   .text.AT91F_ADC_DisableChannel:00000000 $t
/cygdrive/c/Users/brent/AppData/Local/Temp/ccEh5roO.s:2057   .text.AT91F_ADC_GetChannelStatus:00000000 AT91F_ADC_GetChannelStatus
/cygdrive/c/Users/brent/AppData/Local/Temp/ccEh5roO.s:2054   .text.AT91F_ADC_GetChannelStatus:00000000 $t
/cygdrive/c/Users/brent/AppData/Local/Temp/ccEh5roO.s:2069   .text.AT91F_ADC_StartConversion:00000000 AT91F_ADC_StartConversion
/cygdrive/c/Users/brent/AppData/Local/Temp/ccEh5roO.s:2066   .text.AT91F_ADC_StartConversion:00000000 $t
/cygdrive/c/Users/brent/AppData/Local/Temp/ccEh5roO.s:2082   .text.AT91F_ADC_SoftReset:00000000 AT91F_ADC_SoftReset
/cygdrive/c/Users/brent/AppData/Local/Temp/ccEh5roO.s:2079   .text.AT91F_ADC_SoftReset:00000000 $t
/cygdrive/c/Users/brent/AppData/Local/Temp/ccEh5roO.s:2095   .text.AT91F_ADC_GetLastConvertedData:00000000 AT91F_ADC_GetLastConvertedData
/cygdrive/c/Users/brent/AppData/Local/Temp/ccEh5roO.s:2092   .text.AT91F_ADC_GetLastConvertedData:00000000 $t
/cygdrive/c/Users/brent/AppData/Local/Temp/ccEh5roO.s:2107   .text.AT91F_ADC_GetConvertedDataCH0:00000000 AT91F_ADC_GetConvertedDataCH0
/cygdrive/c/Users/brent/AppData/Local/Temp/ccEh5roO.s:2104   .text.AT91F_ADC_GetConvertedDataCH0:00000000 $t
/cygdrive/c/Users/brent/AppData/Local/Temp/ccEh5roO.s:2119   .text.AT91F_ADC_GetConvertedDataCH1:00000000 AT91F_ADC_GetConvertedDataCH1
/cygdrive/c/Users/brent/AppData/Local/Temp/ccEh5roO.s:2116   .text.AT91F_ADC_GetConvertedDataCH1:00000000 $t
/cygdrive/c/Users/brent/AppData/Local/Temp/ccEh5roO.s:2131   .text.AT91F_ADC_GetConvertedDataCH2:00000000 AT91F_ADC_GetConvertedDataCH2
/cygdrive/c/Users/brent/AppData/Local/Temp/ccEh5roO.s:2128   .text.AT91F_ADC_GetConvertedDataCH2:00000000 $t
/cygdrive/c/Users/brent/AppData/Local/Temp/ccEh5roO.s:2143   .text.AT91F_ADC_GetConvertedDataCH3:00000000 AT91F_ADC_GetConvertedDataCH3
/cygdrive/c/Users/brent/AppData/Local/Temp/ccEh5roO.s:2140   .text.AT91F_ADC_GetConvertedDataCH3:00000000 $t
/cygdrive/c/Users/brent/AppData/Local/Temp/ccEh5roO.s:2155   .text.AT91F_ADC_GetConvertedDataCH4:00000000 AT91F_ADC_GetConvertedDataCH4
/cygdrive/c/Users/brent/AppData/Local/Temp/ccEh5roO.s:2152   .text.AT91F_ADC_GetConvertedDataCH4:00000000 $t
/cygdrive/c/Users/brent/AppData/Local/Temp/ccEh5roO.s:2167   .text.AT91F_ADC_GetConvertedDataCH5:00000000 AT91F_ADC_GetConvertedDataCH5
/cygdrive/c/Users/brent/AppData/Local/Temp/ccEh5roO.s:2164   .text.AT91F_ADC_GetConvertedDataCH5:00000000 $t
/cygdrive/c/Users/brent/AppData/Local/Temp/ccEh5roO.s:2179   .text.AT91F_ADC_GetConvertedDataCH6:00000000 AT91F_ADC_GetConvertedDataCH6
/cygdrive/c/Users/brent/AppData/Local/Temp/ccEh5roO.s:2176   .text.AT91F_ADC_GetConvertedDataCH6:00000000 $t
/cygdrive/c/Users/brent/AppData/Local/Temp/ccEh5roO.s:2191   .text.AT91F_ADC_GetConvertedDataCH7:00000000 AT91F_ADC_GetConvertedDataCH7
/cygdrive/c/Users/brent/AppData/Local/Temp/ccEh5roO.s:2188   .text.AT91F_ADC_GetConvertedDataCH7:00000000 $t
/cygdrive/c/Users/brent/AppData/Local/Temp/ccEh5roO.s:2204   .text.AT91F_SSC_SetBaudrate:00000000 AT91F_SSC_SetBaudrate
/cygdrive/c/Users/brent/AppData/Local/Temp/ccEh5roO.s:2201   .text.AT91F_SSC_SetBaudrate:00000000 $t
/cygdrive/c/Users/brent/AppData/Local/Temp/ccEh5roO.s:2244   .text.AT91F_SSC_EnableRx:00000000 AT91F_SSC_EnableRx
/cygdrive/c/Users/brent/AppData/Local/Temp/ccEh5roO.s:2241   .text.AT91F_SSC_EnableRx:00000000 $t
/cygdrive/c/Users/brent/AppData/Local/Temp/ccEh5roO.s:2257   .text.AT91F_SSC_DisableRx:00000000 AT91F_SSC_DisableRx
/cygdrive/c/Users/brent/AppData/Local/Temp/ccEh5roO.s:2254   .text.AT91F_SSC_DisableRx:00000000 $t
/cygdrive/c/Users/brent/AppData/Local/Temp/ccEh5roO.s:2270   .text.AT91F_SSC_EnableTx:00000000 AT91F_SSC_EnableTx
/cygdrive/c/Users/brent/AppData/Local/Temp/ccEh5roO.s:2267   .text.AT91F_SSC_EnableTx:00000000 $t
/cygdrive/c/Users/brent/AppData/Local/Temp/ccEh5roO.s:2284   .text.AT91F_SSC_DisableTx:00000000 AT91F_SSC_DisableTx
/cygdrive/c/Users/brent/AppData/Local/Temp/ccEh5roO.s:2281   .text.AT91F_SSC_DisableTx:00000000 $t
/cygdrive/c/Users/brent/AppData/Local/Temp/ccEh5roO.s:2298   .text.AT91F_SSC_EnableIt:00000000 AT91F_SSC_EnableIt
/cygdrive/c/Users/brent/AppData/Local/Temp/ccEh5roO.s:2295   .text.AT91F_SSC_EnableIt:00000000 $t
/cygdrive/c/Users/brent/AppData/Local/Temp/ccEh5roO.s:2310   .text.AT91F_SSC_DisableIt:00000000 AT91F_SSC_DisableIt
/cygdrive/c/Users/brent/AppData/Local/Temp/ccEh5roO.s:2307   .text.AT91F_SSC_DisableIt:00000000 $t
/cygdrive/c/Users/brent/AppData/Local/Temp/ccEh5roO.s:2322   .text.AT91F_SSC_GetInterruptMaskStatus:00000000 AT91F_SSC_GetInterruptMaskStatus
/cygdrive/c/Users/brent/AppData/Local/Temp/ccEh5roO.s:2319   .text.AT91F_SSC_GetInterruptMaskStatus:00000000 $t
/cygdrive/c/Users/brent/AppData/Local/Temp/ccEh5roO.s:2334   .text.AT91F_US_Baudrate:00000000 AT91F_US_Baudrate
/cygdrive/c/Users/brent/AppData/Local/Temp/ccEh5roO.s:2331   .text.AT91F_US_Baudrate:00000000 $t
/cygdrive/c/Users/brent/AppData/Local/Temp/ccEh5roO.s:2368   .text.AT91F_US_SetBaudrate:00000000 AT91F_US_SetBaudrate
/cygdrive/c/Users/brent/AppData/Local/Temp/ccEh5roO.s:2365   .text.AT91F_US_SetBaudrate:00000000 $t
/cygdrive/c/Users/brent/AppData/Local/Temp/ccEh5roO.s:2386   .text.AT91F_US_SetTimeguard:00000000 AT91F_US_SetTimeguard
/cygdrive/c/Users/brent/AppData/Local/Temp/ccEh5roO.s:2383   .text.AT91F_US_SetTimeguard:00000000 $t
/cygdrive/c/Users/brent/AppData/Local/Temp/ccEh5roO.s:2398   .text.AT91F_US_EnableIt:00000000 AT91F_US_EnableIt
/cygdrive/c/Users/brent/AppData/Local/Temp/ccEh5roO.s:2395   .text.AT91F_US_EnableIt:00000000 $t
/cygdrive/c/Users/brent/AppData/Local/Temp/ccEh5roO.s:2410   .text.AT91F_US_DisableIt:00000000 AT91F_US_DisableIt
/cygdrive/c/Users/brent/AppData/Local/Temp/ccEh5roO.s:2407   .text.AT91F_US_DisableIt:00000000 $t
/cygdrive/c/Users/brent/AppData/Local/Temp/ccEh5roO.s:2422   .text.AT91F_US_EnableRx:00000000 AT91F_US_EnableRx
/cygdrive/c/Users/brent/AppData/Local/Temp/ccEh5roO.s:2419   .text.AT91F_US_EnableRx:00000000 $t
/cygdrive/c/Users/brent/AppData/Local/Temp/ccEh5roO.s:2435   .text.AT91F_US_EnableTx:00000000 AT91F_US_EnableTx
/cygdrive/c/Users/brent/AppData/Local/Temp/ccEh5roO.s:2432   .text.AT91F_US_EnableTx:00000000 $t
/cygdrive/c/Users/brent/AppData/Local/Temp/ccEh5roO.s:2448   .text.AT91F_US_ResetRx:00000000 AT91F_US_ResetRx
/cygdrive/c/Users/brent/AppData/Local/Temp/ccEh5roO.s:2445   .text.AT91F_US_ResetRx:00000000 $t
/cygdrive/c/Users/brent/AppData/Local/Temp/ccEh5roO.s:2463   .text.AT91F_US_ResetTx:00000000 AT91F_US_ResetTx
/cygdrive/c/Users/brent/AppData/Local/Temp/ccEh5roO.s:2460   .text.AT91F_US_ResetTx:00000000 $t
/cygdrive/c/Users/brent/AppData/Local/Temp/ccEh5roO.s:2478   .text.AT91F_US_DisableRx:00000000 AT91F_US_DisableRx
/cygdrive/c/Users/brent/AppData/Local/Temp/ccEh5roO.s:2475   .text.AT91F_US_DisableRx:00000000 $t
/cygdrive/c/Users/brent/AppData/Local/Temp/ccEh5roO.s:2491   .text.AT91F_US_DisableTx:00000000 AT91F_US_DisableTx
/cygdrive/c/Users/brent/AppData/Local/Temp/ccEh5roO.s:2488   .text.AT91F_US_DisableTx:00000000 $t
/cygdrive/c/Users/brent/AppData/Local/Temp/ccEh5roO.s:2504   .text.AT91F_US_TxReady:00000000 AT91F_US_TxReady
/cygdrive/c/Users/brent/AppData/Local/Temp/ccEh5roO.s:2501   .text.AT91F_US_TxReady:00000000 $t
/cygdrive/c/Users/brent/AppData/Local/Temp/ccEh5roO.s:2518   .text.AT91F_US_RxReady:00000000 AT91F_US_RxReady
/cygdrive/c/Users/brent/AppData/Local/Temp/ccEh5roO.s:2515   .text.AT91F_US_RxReady:00000000 $t
/cygdrive/c/Users/brent/AppData/Local/Temp/ccEh5roO.s:2532   .text.AT91F_US_Error:00000000 AT91F_US_Error
/cygdrive/c/Users/brent/AppData/Local/Temp/ccEh5roO.s:2529   .text.AT91F_US_Error:00000000 $t
/cygdrive/c/Users/brent/AppData/Local/Temp/ccEh5roO.s:2546   .text.AT91F_US_PutChar:00000000 AT91F_US_PutChar
/cygdrive/c/Users/brent/AppData/Local/Temp/ccEh5roO.s:2543   .text.AT91F_US_PutChar:00000000 $t
/cygdrive/c/Users/brent/AppData/Local/Temp/ccEh5roO.s:2556   .text.AT91F_US_PutChar:00000008 $d
/cygdrive/c/Users/brent/AppData/Local/Temp/ccEh5roO.s:2564   .text.AT91F_US_GetChar:00000000 AT91F_US_GetChar
/cygdrive/c/Users/brent/AppData/Local/Temp/ccEh5roO.s:2561   .text.AT91F_US_GetChar:00000000 $t
/cygdrive/c/Users/brent/AppData/Local/Temp/ccEh5roO.s:2574   .text.AT91F_US_GetChar:00000008 $d
/cygdrive/c/Users/brent/AppData/Local/Temp/ccEh5roO.s:2582   .text.AT91F_US_SetIrdaFilter:00000000 AT91F_US_SetIrdaFilter
/cygdrive/c/Users/brent/AppData/Local/Temp/ccEh5roO.s:2579   .text.AT91F_US_SetIrdaFilter:00000000 $t
/cygdrive/c/Users/brent/AppData/Local/Temp/ccEh5roO.s:2596   .text.AT91F_TWI_EnableIt:00000000 AT91F_TWI_EnableIt
/cygdrive/c/Users/brent/AppData/Local/Temp/ccEh5roO.s:2593   .text.AT91F_TWI_EnableIt:00000000 $t
/cygdrive/c/Users/brent/AppData/Local/Temp/ccEh5roO.s:2608   .text.AT91F_TWI_DisableIt:00000000 AT91F_TWI_DisableIt
/cygdrive/c/Users/brent/AppData/Local/Temp/ccEh5roO.s:2605   .text.AT91F_TWI_DisableIt:00000000 $t
/cygdrive/c/Users/brent/AppData/Local/Temp/ccEh5roO.s:2620   .text.AT91F_TWI_Configure:00000000 AT91F_TWI_Configure
/cygdrive/c/Users/brent/AppData/Local/Temp/ccEh5roO.s:2617   .text.AT91F_TWI_Configure:00000000 $t
/cygdrive/c/Users/brent/AppData/Local/Temp/ccEh5roO.s:2638   .text.AT91F_TWI_GetInterruptMaskStatus:00000000 AT91F_TWI_GetInterruptMaskStatus
/cygdrive/c/Users/brent/AppData/Local/Temp/ccEh5roO.s:2635   .text.AT91F_TWI_GetInterruptMaskStatus:00000000 $t
/cygdrive/c/Users/brent/AppData/Local/Temp/ccEh5roO.s:2650   .text.AT91F_TC_InterruptEnable:00000000 AT91F_TC_InterruptEnable
/cygdrive/c/Users/brent/AppData/Local/Temp/ccEh5roO.s:2647   .text.AT91F_TC_InterruptEnable:00000000 $t
/cygdrive/c/Users/brent/AppData/Local/Temp/ccEh5roO.s:2662   .text.AT91F_TC_InterruptDisable:00000000 AT91F_TC_InterruptDisable
/cygdrive/c/Users/brent/AppData/Local/Temp/ccEh5roO.s:2659   .text.AT91F_TC_InterruptDisable:00000000 $t
/cygdrive/c/Users/brent/AppData/Local/Temp/ccEh5roO.s:2674   .text.AT91F_TC_GetInterruptMaskStatus:00000000 AT91F_TC_GetInterruptMaskStatus
/cygdrive/c/Users/brent/AppData/Local/Temp/ccEh5roO.s:2671   .text.AT91F_TC_GetInterruptMaskStatus:00000000 $t
/cygdrive/c/Users/brent/AppData/Local/Temp/ccEh5roO.s:2686   .text.AT91F_PWMC_GetStatus:00000000 AT91F_PWMC_GetStatus
/cygdrive/c/Users/brent/AppData/Local/Temp/ccEh5roO.s:2683   .text.AT91F_PWMC_GetStatus:00000000 $t
/cygdrive/c/Users/brent/AppData/Local/Temp/ccEh5roO.s:2698   .text.AT91F_PWMC_InterruptEnable:00000000 AT91F_PWMC_InterruptEnable
/cygdrive/c/Users/brent/AppData/Local/Temp/ccEh5roO.s:2695   .text.AT91F_PWMC_InterruptEnable:00000000 $t
/cygdrive/c/Users/brent/AppData/Local/Temp/ccEh5roO.s:2710   .text.AT91F_PWMC_InterruptDisable:00000000 AT91F_PWMC_InterruptDisable
/cygdrive/c/Users/brent/AppData/Local/Temp/ccEh5roO.s:2707   .text.AT91F_PWMC_InterruptDisable:00000000 $t
/cygdrive/c/Users/brent/AppData/Local/Temp/ccEh5roO.s:2722   .text.AT91F_PWMC_GetInterruptMaskStatus:00000000 AT91F_PWMC_GetInterruptMaskStatus
/cygdrive/c/Users/brent/AppData/Local/Temp/ccEh5roO.s:2719   .text.AT91F_PWMC_GetInterruptMaskStatus:00000000 $t
/cygdrive/c/Users/brent/AppData/Local/Temp/ccEh5roO.s:2734   .text.AT91F_PWMC_CfgChannel:00000000 AT91F_PWMC_CfgChannel
/cygdrive/c/Users/brent/AppData/Local/Temp/ccEh5roO.s:2731   .text.AT91F_PWMC_CfgChannel:00000000 $t
/cygdrive/c/Users/brent/AppData/Local/Temp/ccEh5roO.s:2762   .text.AT91F_PWMC_StartChannel:00000000 AT91F_PWMC_StartChannel
/cygdrive/c/Users/brent/AppData/Local/Temp/ccEh5roO.s:2759   .text.AT91F_PWMC_StartChannel:00000000 $t
/cygdrive/c/Users/brent/AppData/Local/Temp/ccEh5roO.s:2774   .text.AT91F_PWMC_StopChannel:00000000 AT91F_PWMC_StopChannel
/cygdrive/c/Users/brent/AppData/Local/Temp/ccEh5roO.s:2771   .text.AT91F_PWMC_StopChannel:00000000 $t
/cygdrive/c/Users/brent/AppData/Local/Temp/ccEh5roO.s:2786   .text.AT91F_PWMC_UpdateChannel:00000000 AT91F_PWMC_UpdateChannel
/cygdrive/c/Users/brent/AppData/Local/Temp/ccEh5roO.s:2783   .text.AT91F_PWMC_UpdateChannel:00000000 $t
/cygdrive/c/Users/brent/AppData/Local/Temp/ccEh5roO.s:2803   .text.AT91F_UDP_EnableIt:00000000 AT91F_UDP_EnableIt
/cygdrive/c/Users/brent/AppData/Local/Temp/ccEh5roO.s:2800   .text.AT91F_UDP_EnableIt:00000000 $t
/cygdrive/c/Users/brent/AppData/Local/Temp/ccEh5roO.s:2815   .text.AT91F_UDP_DisableIt:00000000 AT91F_UDP_DisableIt
/cygdrive/c/Users/brent/AppData/Local/Temp/ccEh5roO.s:2812   .text.AT91F_UDP_DisableIt:00000000 $t
/cygdrive/c/Users/brent/AppData/Local/Temp/ccEh5roO.s:2827   .text.AT91F_UDP_SetAddress:00000000 AT91F_UDP_SetAddress
/cygdrive/c/Users/brent/AppData/Local/Temp/ccEh5roO.s:2824   .text.AT91F_UDP_SetAddress:00000000 $t
/cygdrive/c/Users/brent/AppData/Local/Temp/ccEh5roO.s:2844   .text.AT91F_UDP_EnableEp:00000000 AT91F_UDP_EnableEp
/cygdrive/c/Users/brent/AppData/Local/Temp/ccEh5roO.s:2841   .text.AT91F_UDP_EnableEp:00000000 $t
/cygdrive/c/Users/brent/AppData/Local/Temp/ccEh5roO.s:2863   .text.AT91F_UDP_DisableEp:00000000 AT91F_UDP_DisableEp
/cygdrive/c/Users/brent/AppData/Local/Temp/ccEh5roO.s:2860   .text.AT91F_UDP_DisableEp:00000000 $t
/cygdrive/c/Users/brent/AppData/Local/Temp/ccEh5roO.s:2877   .text.AT91F_UDP_DisableEp:00000010 $d
/cygdrive/c/Users/brent/AppData/Local/Temp/ccEh5roO.s:2885   .text.AT91F_UDP_SetState:00000000 AT91F_UDP_SetState
/cygdrive/c/Users/brent/AppData/Local/Temp/ccEh5roO.s:2882   .text.AT91F_UDP_SetState:00000000 $t
/cygdrive/c/Users/brent/AppData/Local/Temp/ccEh5roO.s:2903   .text.AT91F_UDP_GetState:00000000 AT91F_UDP_GetState
/cygdrive/c/Users/brent/AppData/Local/Temp/ccEh5roO.s:2900   .text.AT91F_UDP_GetState:00000000 $t
/cygdrive/c/Users/brent/AppData/Local/Temp/ccEh5roO.s:2917   .text.AT91F_UDP_ResetEp:00000000 AT91F_UDP_ResetEp
/cygdrive/c/Users/brent/AppData/Local/Temp/ccEh5roO.s:2914   .text.AT91F_UDP_ResetEp:00000000 $t
/cygdrive/c/Users/brent/AppData/Local/Temp/ccEh5roO.s:2931   .text.AT91F_UDP_EpStall:00000000 AT91F_UDP_EpStall
/cygdrive/c/Users/brent/AppData/Local/Temp/ccEh5roO.s:2928   .text.AT91F_UDP_EpStall:00000000 $t
/cygdrive/c/Users/brent/AppData/Local/Temp/ccEh5roO.s:2949   .text.AT91F_UDP_EpWrite:00000000 AT91F_UDP_EpWrite
/cygdrive/c/Users/brent/AppData/Local/Temp/ccEh5roO.s:2946   .text.AT91F_UDP_EpWrite:00000000 $t
/cygdrive/c/Users/brent/AppData/Local/Temp/ccEh5roO.s:2966   .text.AT91F_UDP_EpRead:00000000 AT91F_UDP_EpRead
/cygdrive/c/Users/brent/AppData/Local/Temp/ccEh5roO.s:2963   .text.AT91F_UDP_EpRead:00000000 $t
/cygdrive/c/Users/brent/AppData/Local/Temp/ccEh5roO.s:2981   .text.AT91F_UDP_EpEndOfWr:00000000 AT91F_UDP_EpEndOfWr
/cygdrive/c/Users/brent/AppData/Local/Temp/ccEh5roO.s:2978   .text.AT91F_UDP_EpEndOfWr:00000000 $t
/cygdrive/c/Users/brent/AppData/Local/Temp/ccEh5roO.s:2999   .text.AT91F_UDP_EpClear:00000000 AT91F_UDP_EpClear
/cygdrive/c/Users/brent/AppData/Local/Temp/ccEh5roO.s:2996   .text.AT91F_UDP_EpClear:00000000 $t
/cygdrive/c/Users/brent/AppData/Local/Temp/ccEh5roO.s:3016   .text.AT91F_UDP_EpSet:00000000 AT91F_UDP_EpSet
/cygdrive/c/Users/brent/AppData/Local/Temp/ccEh5roO.s:3013   .text.AT91F_UDP_EpSet:00000000 $t
/cygdrive/c/Users/brent/AppData/Local/Temp/ccEh5roO.s:3033   .text.AT91F_UDP_EpStatus:00000000 AT91F_UDP_EpStatus
/cygdrive/c/Users/brent/AppData/Local/Temp/ccEh5roO.s:3030   .text.AT91F_UDP_EpStatus:00000000 $t
/cygdrive/c/Users/brent/AppData/Local/Temp/ccEh5roO.s:3048   .text.AT91F_UDP_GetInterruptMaskStatus:00000000 AT91F_UDP_GetInterruptMaskStatus
/cygdrive/c/Users/brent/AppData/Local/Temp/ccEh5roO.s:3045   .text.AT91F_UDP_GetInterruptMaskStatus:00000000 $t
/cygdrive/c/Users/brent/AppData/Local/Temp/ccEh5roO.s:3060   .text.AT91F_UDP_InterruptStatusRegister:00000000 AT91F_UDP_InterruptStatusRegister
/cygdrive/c/Users/brent/AppData/Local/Temp/ccEh5roO.s:3057   .text.AT91F_UDP_InterruptStatusRegister:00000000 $t
/cygdrive/c/Users/brent/AppData/Local/Temp/ccEh5roO.s:3072   .text.AT91F_UDP_InterruptClearRegister:00000000 AT91F_UDP_InterruptClearRegister
/cygdrive/c/Users/brent/AppData/Local/Temp/ccEh5roO.s:3069   .text.AT91F_UDP_InterruptClearRegister:00000000 $t
/cygdrive/c/Users/brent/AppData/Local/Temp/ccEh5roO.s:3084   .text.AT91F_UDP_EnableTransceiver:00000000 AT91F_UDP_EnableTransceiver
/cygdrive/c/Users/brent/AppData/Local/Temp/ccEh5roO.s:3081   .text.AT91F_UDP_EnableTransceiver:00000000 $t
/cygdrive/c/Users/brent/AppData/Local/Temp/ccEh5roO.s:3095   .text.AT91F_UDP_EnableTransceiver:0000000c $d
/cygdrive/c/Users/brent/AppData/Local/Temp/ccEh5roO.s:3103   .text.AT91F_UDP_DisableTransceiver:00000000 AT91F_UDP_DisableTransceiver
/cygdrive/c/Users/brent/AppData/Local/Temp/ccEh5roO.s:3100   .text.AT91F_UDP_DisableTransceiver:00000000 $t
/cygdrive/c/Users/brent/AppData/Local/Temp/ccEh5roO.s:3117   .text.AT91F_TC_Open:00000000 AT91F_TC_Open
/cygdrive/c/Users/brent/AppData/Local/Temp/ccEh5roO.s:3114   .text.AT91F_TC_Open:00000000 $t
/cygdrive/c/Users/brent/AppData/Local/Temp/ccEh5roO.s:3140   .text.AT91F_TC_Open:00000024 $d
/cygdrive/c/Users/brent/AppData/Local/Temp/ccEh5roO.s:3148   .text.AT91F_MC_CfgPMC:00000000 AT91F_MC_CfgPMC
/cygdrive/c/Users/brent/AppData/Local/Temp/ccEh5roO.s:3145   .text.AT91F_MC_CfgPMC:00000000 $t
/cygdrive/c/Users/brent/AppData/Local/Temp/ccEh5roO.s:3158   .text.AT91F_MC_CfgPMC:00000008 $d
/cygdrive/c/Users/brent/AppData/Local/Temp/ccEh5roO.s:3166   .text.AT91F_DBGU_CfgPMC:00000000 AT91F_DBGU_CfgPMC
/cygdrive/c/Users/brent/AppData/Local/Temp/ccEh5roO.s:3163   .text.AT91F_DBGU_CfgPMC:00000000 $t
/cygdrive/c/Users/brent/AppData/Local/Temp/ccEh5roO.s:3176   .text.AT91F_DBGU_CfgPMC:00000008 $d
/cygdrive/c/Users/brent/AppData/Local/Temp/ccEh5roO.s:3184   .text.AT91F_VREG_CfgPMC:00000000 AT91F_VREG_CfgPMC
/cygdrive/c/Users/brent/AppData/Local/Temp/ccEh5roO.s:3181   .text.AT91F_VREG_CfgPMC:00000000 $t
/cygdrive/c/Users/brent/AppData/Local/Temp/ccEh5roO.s:3194   .text.AT91F_VREG_CfgPMC:00000008 $d
/cygdrive/c/Users/brent/AppData/Local/Temp/ccEh5roO.s:3202   .text.AT91F_SSC_CfgPMC:00000000 AT91F_SSC_CfgPMC
/cygdrive/c/Users/brent/AppData/Local/Temp/ccEh5roO.s:3199   .text.AT91F_SSC_CfgPMC:00000000 $t
/cygdrive/c/Users/brent/AppData/Local/Temp/ccEh5roO.s:3213   .text.AT91F_SSC_CfgPMC:0000000c $d
/cygdrive/c/Users/brent/AppData/Local/Temp/ccEh5roO.s:3221   .text.AT91F_SPI_CfgPMC:00000000 AT91F_SPI_CfgPMC
/cygdrive/c/Users/brent/AppData/Local/Temp/ccEh5roO.s:3218   .text.AT91F_SPI_CfgPMC:00000000 $t
/cygdrive/c/Users/brent/AppData/Local/Temp/ccEh5roO.s:3231   .text.AT91F_SPI_CfgPMC:00000008 $d
/cygdrive/c/Users/brent/AppData/Local/Temp/ccEh5roO.s:3239   .text.AT91F_PWMC_CfgPMC:00000000 AT91F_PWMC_CfgPMC
/cygdrive/c/Users/brent/AppData/Local/Temp/ccEh5roO.s:3236   .text.AT91F_PWMC_CfgPMC:00000000 $t
/cygdrive/c/Users/brent/AppData/Local/Temp/ccEh5roO.s:3250   .text.AT91F_PWMC_CfgPMC:0000000c $d
/cygdrive/c/Users/brent/AppData/Local/Temp/ccEh5roO.s:3258   .text.AT91F_TC0_CfgPMC:00000000 AT91F_TC0_CfgPMC
/cygdrive/c/Users/brent/AppData/Local/Temp/ccEh5roO.s:3255   .text.AT91F_TC0_CfgPMC:00000000 $t
/cygdrive/c/Users/brent/AppData/Local/Temp/ccEh5roO.s:3269   .text.AT91F_TC0_CfgPMC:0000000c $d
/cygdrive/c/Users/brent/AppData/Local/Temp/ccEh5roO.s:3277   .text.AT91F_TC1_CfgPMC:00000000 AT91F_TC1_CfgPMC
/cygdrive/c/Users/brent/AppData/Local/Temp/ccEh5roO.s:3274   .text.AT91F_TC1_CfgPMC:00000000 $t
/cygdrive/c/Users/brent/AppData/Local/Temp/ccEh5roO.s:3288   .text.AT91F_TC1_CfgPMC:0000000c $d
/cygdrive/c/Users/brent/AppData/Local/Temp/ccEh5roO.s:3296   .text.AT91F_TC2_CfgPMC:00000000 AT91F_TC2_CfgPMC
/cygdrive/c/Users/brent/AppData/Local/Temp/ccEh5roO.s:3293   .text.AT91F_TC2_CfgPMC:00000000 $t
/cygdrive/c/Users/brent/AppData/Local/Temp/ccEh5roO.s:3307   .text.AT91F_TC2_CfgPMC:0000000c $d
/cygdrive/c/Users/brent/AppData/Local/Temp/ccEh5roO.s:3315   .text.AT91F_PITC_CfgPMC:00000000 AT91F_PITC_CfgPMC
/cygdrive/c/Users/brent/AppData/Local/Temp/ccEh5roO.s:3312   .text.AT91F_PITC_CfgPMC:00000000 $t
/cygdrive/c/Users/brent/AppData/Local/Temp/ccEh5roO.s:3325   .text.AT91F_PITC_CfgPMC:00000008 $d
/cygdrive/c/Users/brent/AppData/Local/Temp/ccEh5roO.s:3333   .text.AT91F_PMC_CfgPMC:00000000 AT91F_PMC_CfgPMC
/cygdrive/c/Users/brent/AppData/Local/Temp/ccEh5roO.s:3330   .text.AT91F_PMC_CfgPMC:00000000 $t
/cygdrive/c/Users/brent/AppData/Local/Temp/ccEh5roO.s:3343   .text.AT91F_PMC_CfgPMC:00000008 $d
/cygdrive/c/Users/brent/AppData/Local/Temp/ccEh5roO.s:3351   .text.AT91F_ADC_CfgPMC:00000000 AT91F_ADC_CfgPMC
/cygdrive/c/Users/brent/AppData/Local/Temp/ccEh5roO.s:3348   .text.AT91F_ADC_CfgPMC:00000000 $t
/cygdrive/c/Users/brent/AppData/Local/Temp/ccEh5roO.s:3361   .text.AT91F_ADC_CfgPMC:00000008 $d
/cygdrive/c/Users/brent/AppData/Local/Temp/ccEh5roO.s:3369   .text.AT91F_RSTC_CfgPMC:00000000 AT91F_RSTC_CfgPMC
/cygdrive/c/Users/brent/AppData/Local/Temp/ccEh5roO.s:3366   .text.AT91F_RSTC_CfgPMC:00000000 $t
/cygdrive/c/Users/brent/AppData/Local/Temp/ccEh5roO.s:3379   .text.AT91F_RSTC_CfgPMC:00000008 $d
/cygdrive/c/Users/brent/AppData/Local/Temp/ccEh5roO.s:3387   .text.AT91F_RTTC_CfgPMC:00000000 AT91F_RTTC_CfgPMC
/cygdrive/c/Users/brent/AppData/Local/Temp/ccEh5roO.s:3384   .text.AT91F_RTTC_CfgPMC:00000000 $t
/cygdrive/c/Users/brent/AppData/Local/Temp/ccEh5roO.s:3397   .text.AT91F_RTTC_CfgPMC:00000008 $d
/cygdrive/c/Users/brent/AppData/Local/Temp/ccEh5roO.s:3405   .text.AT91F_PIOA_CfgPMC:00000000 AT91F_PIOA_CfgPMC
/cygdrive/c/Users/brent/AppData/Local/Temp/ccEh5roO.s:3402   .text.AT91F_PIOA_CfgPMC:00000000 $t
/cygdrive/c/Users/brent/AppData/Local/Temp/ccEh5roO.s:3415   .text.AT91F_PIOA_CfgPMC:00000008 $d
/cygdrive/c/Users/brent/AppData/Local/Temp/ccEh5roO.s:3423   .text.AT91F_TWI_CfgPMC:00000000 AT91F_TWI_CfgPMC
/cygdrive/c/Users/brent/AppData/Local/Temp/ccEh5roO.s:3420   .text.AT91F_TWI_CfgPMC:00000000 $t
/cygdrive/c/Users/brent/AppData/Local/Temp/ccEh5roO.s:3434   .text.AT91F_TWI_CfgPMC:0000000c $d
/cygdrive/c/Users/brent/AppData/Local/Temp/ccEh5roO.s:3442   .text.AT91F_WDTC_CfgPMC:00000000 AT91F_WDTC_CfgPMC
/cygdrive/c/Users/brent/AppData/Local/Temp/ccEh5roO.s:3439   .text.AT91F_WDTC_CfgPMC:00000000 $t
/cygdrive/c/Users/brent/AppData/Local/Temp/ccEh5roO.s:3452   .text.AT91F_WDTC_CfgPMC:00000008 $d
/cygdrive/c/Users/brent/AppData/Local/Temp/ccEh5roO.s:3460   .text.AT91F_US1_CfgPMC:00000000 AT91F_US1_CfgPMC
/cygdrive/c/Users/brent/AppData/Local/Temp/ccEh5roO.s:3457   .text.AT91F_US1_CfgPMC:00000000 $t
/cygdrive/c/Users/brent/AppData/Local/Temp/ccEh5roO.s:3470   .text.AT91F_US1_CfgPMC:00000008 $d
/cygdrive/c/Users/brent/AppData/Local/Temp/ccEh5roO.s:3478   .text.AT91F_US0_CfgPMC:00000000 AT91F_US0_CfgPMC
/cygdrive/c/Users/brent/AppData/Local/Temp/ccEh5roO.s:3475   .text.AT91F_US0_CfgPMC:00000000 $t
/cygdrive/c/Users/brent/AppData/Local/Temp/ccEh5roO.s:3488   .text.AT91F_US0_CfgPMC:00000008 $d
/cygdrive/c/Users/brent/AppData/Local/Temp/ccEh5roO.s:3496   .text.AT91F_UDP_CfgPMC:00000000 AT91F_UDP_CfgPMC
/cygdrive/c/Users/brent/AppData/Local/Temp/ccEh5roO.s:3493   .text.AT91F_UDP_CfgPMC:00000000 $t
/cygdrive/c/Users/brent/AppData/Local/Temp/ccEh5roO.s:3507   .text.AT91F_UDP_CfgPMC:0000000c $d
/cygdrive/c/Users/brent/AppData/Local/Temp/ccEh5roO.s:3515   .text.AT91F_AIC_CfgPMC:00000000 AT91F_AIC_CfgPMC
/cygdrive/c/Users/brent/AppData/Local/Temp/ccEh5roO.s:3512   .text.AT91F_AIC_CfgPMC:00000000 $t
/cygdrive/c/Users/brent/AppData/Local/Temp/ccEh5roO.s:3525   .text.AT91F_AIC_CfgPMC:00000008 $d
/cygdrive/c/Users/brent/AppData/Local/Temp/ccEh5roO.s:3534   .text.AT91F_DBGU_CfgPIO:00000000 AT91F_DBGU_CfgPIO
/cygdrive/c/Users/brent/AppData/Local/Temp/ccEh5roO.s:3531   .text.AT91F_DBGU_CfgPIO:00000000 $t
/cygdrive/c/Users/brent/AppData/Local/Temp/ccEh5roO.s:3548   .text.AT91F_DBGU_CfgPIO:00000010 $d
/cygdrive/c/Users/brent/AppData/Local/Temp/ccEh5roO.s:3556   .text.AT91F_PWMC_CH3_CfgPIO:00000000 AT91F_PWMC_CH3_CfgPIO
/cygdrive/c/Users/brent/AppData/Local/Temp/ccEh5roO.s:3553   .text.AT91F_PWMC_CH3_CfgPIO:00000000 $t
/cygdrive/c/Users/brent/AppData/Local/Temp/ccEh5roO.s:3570   .text.AT91F_PWMC_CH3_CfgPIO:00000010 $d
/cygdrive/c/Users/brent/AppData/Local/Temp/ccEh5roO.s:3578   .text.AT91F_PWMC_CH2_CfgPIO:00000000 AT91F_PWMC_CH2_CfgPIO
/cygdrive/c/Users/brent/AppData/Local/Temp/ccEh5roO.s:3575   .text.AT91F_PWMC_CH2_CfgPIO:00000000 $t
/cygdrive/c/Users/brent/AppData/Local/Temp/ccEh5roO.s:3592   .text.AT91F_PWMC_CH2_CfgPIO:00000010 $d
/cygdrive/c/Users/brent/AppData/Local/Temp/ccEh5roO.s:3601   .text.AT91F_PWMC_CH1_CfgPIO:00000000 AT91F_PWMC_CH1_CfgPIO
/cygdrive/c/Users/brent/AppData/Local/Temp/ccEh5roO.s:3598   .text.AT91F_PWMC_CH1_CfgPIO:00000000 $t
/cygdrive/c/Users/brent/AppData/Local/Temp/ccEh5roO.s:3615   .text.AT91F_PWMC_CH1_CfgPIO:00000010 $d
/cygdrive/c/Users/brent/AppData/Local/Temp/ccEh5roO.s:3624   .text.AT91F_PWMC_CH0_CfgPIO:00000000 AT91F_PWMC_CH0_CfgPIO
/cygdrive/c/Users/brent/AppData/Local/Temp/ccEh5roO.s:3621   .text.AT91F_PWMC_CH0_CfgPIO:00000000 $t
/cygdrive/c/Users/brent/AppData/Local/Temp/ccEh5roO.s:3638   .text.AT91F_PWMC_CH0_CfgPIO:00000010 $d
/cygdrive/c/Users/brent/AppData/Local/Temp/ccEh5roO.s:3647   .text.AT91F_SSC_CfgPIO:00000000 AT91F_SSC_CfgPIO
/cygdrive/c/Users/brent/AppData/Local/Temp/ccEh5roO.s:3644   .text.AT91F_SSC_CfgPIO:00000000 $t
/cygdrive/c/Users/brent/AppData/Local/Temp/ccEh5roO.s:3661   .text.AT91F_SSC_CfgPIO:00000010 $d
/cygdrive/c/Users/brent/AppData/Local/Temp/ccEh5roO.s:3669   .text.AT91F_SPI_CfgPIO:00000000 AT91F_SPI_CfgPIO
/cygdrive/c/Users/brent/AppData/Local/Temp/ccEh5roO.s:3666   .text.AT91F_SPI_CfgPIO:00000000 $t
/cygdrive/c/Users/brent/AppData/Local/Temp/ccEh5roO.s:3683   .text.AT91F_SPI_CfgPIO:00000010 $d
/cygdrive/c/Users/brent/AppData/Local/Temp/ccEh5roO.s:3694   .text.AT91F_TC0_CfgPIO:00000000 AT91F_TC0_CfgPIO
/cygdrive/c/Users/brent/AppData/Local/Temp/ccEh5roO.s:3691   .text.AT91F_TC0_CfgPIO:00000000 $t
/cygdrive/c/Users/brent/AppData/Local/Temp/ccEh5roO.s:3707   .text.AT91F_TC0_CfgPIO:00000010 $d
/cygdrive/c/Users/brent/AppData/Local/Temp/ccEh5roO.s:3715   .text.AT91F_TC1_CfgPIO:00000000 AT91F_TC1_CfgPIO
/cygdrive/c/Users/brent/AppData/Local/Temp/ccEh5roO.s:3712   .text.AT91F_TC1_CfgPIO:00000000 $t
/cygdrive/c/Users/brent/AppData/Local/Temp/ccEh5roO.s:3728   .text.AT91F_TC1_CfgPIO:00000010 $d
/cygdrive/c/Users/brent/AppData/Local/Temp/ccEh5roO.s:3737   .text.AT91F_TC2_CfgPIO:00000000 AT91F_TC2_CfgPIO
/cygdrive/c/Users/brent/AppData/Local/Temp/ccEh5roO.s:3734   .text.AT91F_TC2_CfgPIO:00000000 $t
/cygdrive/c/Users/brent/AppData/Local/Temp/ccEh5roO.s:3751   .text.AT91F_TC2_CfgPIO:00000010 $d
/cygdrive/c/Users/brent/AppData/Local/Temp/ccEh5roO.s:3759   .text.AT91F_PMC_CfgPIO:00000000 AT91F_PMC_CfgPIO
/cygdrive/c/Users/brent/AppData/Local/Temp/ccEh5roO.s:3756   .text.AT91F_PMC_CfgPIO:00000000 $t
/cygdrive/c/Users/brent/AppData/Local/Temp/ccEh5roO.s:3772   .text.AT91F_PMC_CfgPIO:00000010 $d
/cygdrive/c/Users/brent/AppData/Local/Temp/ccEh5roO.s:3781   .text.AT91F_ADC_CfgPIO:00000000 AT91F_ADC_CfgPIO
/cygdrive/c/Users/brent/AppData/Local/Temp/ccEh5roO.s:3778   .text.AT91F_ADC_CfgPIO:00000000 $t
/cygdrive/c/Users/brent/AppData/Local/Temp/ccEh5roO.s:3795   .text.AT91F_ADC_CfgPIO:00000010 $d
/cygdrive/c/Users/brent/AppData/Local/Temp/ccEh5roO.s:3803   .text.AT91F_TWI_CfgPIO:00000000 AT91F_TWI_CfgPIO
/cygdrive/c/Users/brent/AppData/Local/Temp/ccEh5roO.s:3800   .text.AT91F_TWI_CfgPIO:00000000 $t
/cygdrive/c/Users/brent/AppData/Local/Temp/ccEh5roO.s:3816   .text.AT91F_TWI_CfgPIO:00000010 $d
/cygdrive/c/Users/brent/AppData/Local/Temp/ccEh5roO.s:3824   .text.AT91F_US1_CfgPIO:00000000 AT91F_US1_CfgPIO
/cygdrive/c/Users/brent/AppData/Local/Temp/ccEh5roO.s:3821   .text.AT91F_US1_CfgPIO:00000000 $t
/cygdrive/c/Users/brent/AppData/Local/Temp/ccEh5roO.s:3837   .text.AT91F_US1_CfgPIO:00000010 $d
/cygdrive/c/Users/brent/AppData/Local/Temp/ccEh5roO.s:3846   .text.AT91F_US0_CfgPIO:00000000 AT91F_US0_CfgPIO
/cygdrive/c/Users/brent/AppData/Local/Temp/ccEh5roO.s:3843   .text.AT91F_US0_CfgPIO:00000000 $t
/cygdrive/c/Users/brent/AppData/Local/Temp/ccEh5roO.s:3862   .text.AT91F_US0_CfgPIO:00000014 $d
/cygdrive/c/Users/brent/AppData/Local/Temp/ccEh5roO.s:3870   .text.AT91F_AIC_CfgPIO:00000000 AT91F_AIC_CfgPIO
/cygdrive/c/Users/brent/AppData/Local/Temp/ccEh5roO.s:3867   .text.AT91F_AIC_CfgPIO:00000000 $t
/cygdrive/c/Users/brent/AppData/Local/Temp/ccEh5roO.s:3886   .text.AT91F_AIC_CfgPIO:00000014 $d
/cygdrive/c/Users/brent/AppData/Local/Temp/ccEh5roO.s:3895   .text.AT91F_PDC_Close:00000000 AT91F_PDC_Close
/cygdrive/c/Users/brent/AppData/Local/Temp/ccEh5roO.s:3892   .text.AT91F_PDC_Close:00000000 $t
/cygdrive/c/Users/brent/AppData/Local/Temp/ccEh5roO.s:3920   .text.AT91F_US_Close:00000000 AT91F_US_Close
/cygdrive/c/Users/brent/AppData/Local/Temp/ccEh5roO.s:3917   .text.AT91F_US_Close:00000000 $t
/cygdrive/c/Users/brent/AppData/Local/Temp/ccEh5roO.s:3947   .text.AT91F_SPI_Close:00000000 AT91F_SPI_Close
/cygdrive/c/Users/brent/AppData/Local/Temp/ccEh5roO.s:3944   .text.AT91F_SPI_Close:00000000 $t
/cygdrive/c/Users/brent/AppData/Local/Temp/ccEh5roO.s:3976   .text.AT91F_PMC_GetMasterClock:00000000 AT91F_PMC_GetMasterClock
/cygdrive/c/Users/brent/AppData/Local/Temp/ccEh5roO.s:3973   .text.AT91F_PMC_GetMasterClock:00000000 $t
/cygdrive/c/Users/brent/AppData/Local/Temp/ccEh5roO.s:4034   .text.AT91F_PMC_GetMasterClock:00000064 $d
/cygdrive/c/Users/brent/AppData/Local/Temp/ccEh5roO.s:4042   .text.AT91F_PIO_IsInputSet:00000000 AT91F_PIO_IsInputSet
/cygdrive/c/Users/brent/AppData/Local/Temp/ccEh5roO.s:4039   .text.AT91F_PIO_IsInputSet:00000000 $t
/cygdrive/c/Users/brent/AppData/Local/Temp/ccEh5roO.s:4055   .text.AT91F_PIO_IsSet:00000000 AT91F_PIO_IsSet
/cygdrive/c/Users/brent/AppData/Local/Temp/ccEh5roO.s:4052   .text.AT91F_PIO_IsSet:00000000 $t
/cygdrive/c/Users/brent/AppData/Local/Temp/ccEh5roO.s:4068   .text.AT91F_PIO_IsOutputSet:00000000 AT91F_PIO_IsOutputSet
/cygdrive/c/Users/brent/AppData/Local/Temp/ccEh5roO.s:4065   .text.AT91F_PIO_IsOutputSet:00000000 $t
/cygdrive/c/Users/brent/AppData/Local/Temp/ccEh5roO.s:4081   .text.AT91F_DBGU_IsInterruptMasked:00000000 AT91F_DBGU_IsInterruptMasked
/cygdrive/c/Users/brent/AppData/Local/Temp/ccEh5roO.s:4078   .text.AT91F_DBGU_IsInterruptMasked:00000000 $t
/cygdrive/c/Users/brent/AppData/Local/Temp/ccEh5roO.s:4094   .text.AT91F_PIO_IsInputFilterSet:00000000 AT91F_PIO_IsInputFilterSet
/cygdrive/c/Users/brent/AppData/Local/Temp/ccEh5roO.s:4091   .text.AT91F_PIO_IsInputFilterSet:00000000 $t
/cygdrive/c/Users/brent/AppData/Local/Temp/ccEh5roO.s:4107   .text.AT91F_PIO_IsOutputDataStatusSet:00000000 AT91F_PIO_IsOutputDataStatusSet
/cygdrive/c/Users/brent/AppData/Local/Temp/ccEh5roO.s:4104   .text.AT91F_PIO_IsOutputDataStatusSet:00000000 $t
/cygdrive/c/Users/brent/AppData/Local/Temp/ccEh5roO.s:4120   .text.AT91F_PIO_IsInterruptMasked:00000000 AT91F_PIO_IsInterruptMasked
/cygdrive/c/Users/brent/AppData/Local/Temp/ccEh5roO.s:4117   .text.AT91F_PIO_IsInterruptMasked:00000000 $t
/cygdrive/c/Users/brent/AppData/Local/Temp/ccEh5roO.s:4133   .text.AT91F_PIO_IsInterruptSet:00000000 AT91F_PIO_IsInterruptSet
/cygdrive/c/Users/brent/AppData/Local/Temp/ccEh5roO.s:4130   .text.AT91F_PIO_IsInterruptSet:00000000 $t
/cygdrive/c/Users/brent/AppData/Local/Temp/ccEh5roO.s:4146   .text.AT91F_PIO_IsMultiDriverSet:00000000 AT91F_PIO_IsMultiDriverSet
/cygdrive/c/Users/brent/AppData/Local/Temp/ccEh5roO.s:4143   .text.AT91F_PIO_IsMultiDriverSet:00000000 $t
/cygdrive/c/Users/brent/AppData/Local/Temp/ccEh5roO.s:4159   .text.AT91F_PIO_IsAB_RegisterSet:00000000 AT91F_PIO_IsAB_RegisterSet
/cygdrive/c/Users/brent/AppData/Local/Temp/ccEh5roO.s:4156   .text.AT91F_PIO_IsAB_RegisterSet:00000000 $t
/cygdrive/c/Users/brent/AppData/Local/Temp/ccEh5roO.s:4172   .text.AT91F_PIO_IsOutputWriteSet:00000000 AT91F_PIO_IsOutputWriteSet
/cygdrive/c/Users/brent/AppData/Local/Temp/ccEh5roO.s:4169   .text.AT91F_PIO_IsOutputWriteSet:00000000 $t
/cygdrive/c/Users/brent/AppData/Local/Temp/ccEh5roO.s:4186   .text.AT91F_PIO_IsCfgPullupStatusSet:00000000 AT91F_PIO_IsCfgPullupStatusSet
/cygdrive/c/Users/brent/AppData/Local/Temp/ccEh5roO.s:4183   .text.AT91F_PIO_IsCfgPullupStatusSet:00000000 $t
/cygdrive/c/Users/brent/AppData/Local/Temp/ccEh5roO.s:4200   .text.AT91F_TWI_IsInterruptMasked:00000000 AT91F_TWI_IsInterruptMasked
/cygdrive/c/Users/brent/AppData/Local/Temp/ccEh5roO.s:4197   .text.AT91F_TWI_IsInterruptMasked:00000000 $t
/cygdrive/c/Users/brent/AppData/Local/Temp/ccEh5roO.s:4213   .text.AT91F_TC_IsInterruptMasked:00000000 AT91F_TC_IsInterruptMasked
/cygdrive/c/Users/brent/AppData/Local/Temp/ccEh5roO.s:4210   .text.AT91F_TC_IsInterruptMasked:00000000 $t
/cygdrive/c/Users/brent/AppData/Local/Temp/ccEh5roO.s:4226   .text.AT91F_PWMC_IsStatusSet:00000000 AT91F_PWMC_IsStatusSet
/cygdrive/c/Users/brent/AppData/Local/Temp/ccEh5roO.s:4223   .text.AT91F_PWMC_IsStatusSet:00000000 $t
/cygdrive/c/Users/brent/AppData/Local/Temp/ccEh5roO.s:4239   .text.AT91F_PWMC_IsInterruptMasked:00000000 AT91F_PWMC_IsInterruptMasked
/cygdrive/c/Users/brent/AppData/Local/Temp/ccEh5roO.s:4236   .text.AT91F_PWMC_IsInterruptMasked:00000000 $t
/cygdrive/c/Users/brent/AppData/Local/Temp/ccEh5roO.s:4252   .text.AT91F_UDP_IsInterruptMasked:00000000 AT91F_UDP_IsInterruptMasked
/cygdrive/c/Users/brent/AppData/Local/Temp/ccEh5roO.s:4249   .text.AT91F_UDP_IsInterruptMasked:00000000 $t
/cygdrive/c/Users/brent/AppData/Local/Temp/ccEh5roO.s:4265   .text.AT91F_PMC_IsStatusSet:00000000 AT91F_PMC_IsStatusSet
/cygdrive/c/Users/brent/AppData/Local/Temp/ccEh5roO.s:4262   .text.AT91F_PMC_IsStatusSet:00000000 $t
/cygdrive/c/Users/brent/AppData/Local/Temp/ccEh5roO.s:4278   .text.AT91F_PMC_IsInterruptMasked:00000000 AT91F_PMC_IsInterruptMasked
/cygdrive/c/Users/brent/AppData/Local/Temp/ccEh5roO.s:4275   .text.AT91F_PMC_IsInterruptMasked:00000000 $t
/cygdrive/c/Users/brent/AppData/Local/Temp/ccEh5roO.s:4291   .text.AT91F_MC_EFC_IsInterruptMasked:00000000 AT91F_MC_EFC_IsInterruptMasked
/cygdrive/c/Users/brent/AppData/Local/Temp/ccEh5roO.s:4288   .text.AT91F_MC_EFC_IsInterruptMasked:00000000 $t
/cygdrive/c/Users/brent/AppData/Local/Temp/ccEh5roO.s:4304   .text.AT91F_MC_EFC_IsInterruptSet:00000000 AT91F_MC_EFC_IsInterruptSet
/cygdrive/c/Users/brent/AppData/Local/Temp/ccEh5roO.s:4301   .text.AT91F_MC_EFC_IsInterruptSet:00000000 $t
/cygdrive/c/Users/brent/AppData/Local/Temp/ccEh5roO.s:4317   .text.AT91F_SPI_IsInterruptMasked:00000000 AT91F_SPI_IsInterruptMasked
/cygdrive/c/Users/brent/AppData/Local/Temp/ccEh5roO.s:4314   .text.AT91F_SPI_IsInterruptMasked:00000000 $t
/cygdrive/c/Users/brent/AppData/Local/Temp/ccEh5roO.s:4330   .text.AT91F_ADC_IsStatusSet:00000000 AT91F_ADC_IsStatusSet
/cygdrive/c/Users/brent/AppData/Local/Temp/ccEh5roO.s:4327   .text.AT91F_ADC_IsStatusSet:00000000 $t
/cygdrive/c/Users/brent/AppData/Local/Temp/ccEh5roO.s:4343   .text.AT91F_ADC_IsInterruptMasked:00000000 AT91F_ADC_IsInterruptMasked
/cygdrive/c/Users/brent/AppData/Local/Temp/ccEh5roO.s:4340   .text.AT91F_ADC_IsInterruptMasked:00000000 $t
/cygdrive/c/Users/brent/AppData/Local/Temp/ccEh5roO.s:4356   .text.AT91F_SSC_IsInterruptMasked:00000000 AT91F_SSC_IsInterruptMasked
/cygdrive/c/Users/brent/AppData/Local/Temp/ccEh5roO.s:4353   .text.AT91F_SSC_IsInterruptMasked:00000000 $t
/cygdrive/c/Users/brent/AppData/Local/Temp/ccEh5roO.s:4369   .text.AT91F_PDC_Open:00000000 AT91F_PDC_Open
/cygdrive/c/Users/brent/AppData/Local/Temp/ccEh5roO.s:4366   .text.AT91F_PDC_Open:00000000 $t
/cygdrive/c/Users/brent/AppData/Local/Temp/ccEh5roO.s:4399   .text.AT91F_US_Configure:00000000 AT91F_US_Configure
/cygdrive/c/Users/brent/AppData/Local/Temp/ccEh5roO.s:4396   .text.AT91F_US_Configure:00000000 $t
/cygdrive/c/Users/brent/AppData/Local/Temp/ccEh5roO.s:4428   .text.AT91F_SSC_Configure:00000000 AT91F_SSC_Configure
/cygdrive/c/Users/brent/AppData/Local/Temp/ccEh5roO.s:4425   .text.AT91F_SSC_Configure:00000000 $t
/cygdrive/c/Users/brent/AppData/Local/Temp/ccEh5roO.s:4457   .text.AT91F_SSC_Configure:00000034 $d
/cygdrive/c/Users/brent/AppData/Local/Temp/ccEh5roO.s:4465   .text.AT91F_PDC_SendFrame:00000000 AT91F_PDC_SendFrame
/cygdrive/c/Users/brent/AppData/Local/Temp/ccEh5roO.s:4462   .text.AT91F_PDC_SendFrame:00000000 $t
/cygdrive/c/Users/brent/AppData/Local/Temp/ccEh5roO.s:4501   .text.AT91F_US_SendFrame:00000000 AT91F_US_SendFrame
/cygdrive/c/Users/brent/AppData/Local/Temp/ccEh5roO.s:4498   .text.AT91F_US_SendFrame:00000000 $t
/cygdrive/c/Users/brent/AppData/Local/Temp/ccEh5roO.s:4522   .text.AT91F_SSC_SendFrame:00000000 AT91F_SSC_SendFrame
/cygdrive/c/Users/brent/AppData/Local/Temp/ccEh5roO.s:4519   .text.AT91F_SSC_SendFrame:00000000 $t
/cygdrive/c/Users/brent/AppData/Local/Temp/ccEh5roO.s:4543   .text.AT91F_SPI_SendFrame:00000000 AT91F_SPI_SendFrame
/cygdrive/c/Users/brent/AppData/Local/Temp/ccEh5roO.s:4540   .text.AT91F_SPI_SendFrame:00000000 $t
/cygdrive/c/Users/brent/AppData/Local/Temp/ccEh5roO.s:4564   .text.AT91F_PDC_ReceiveFrame:00000000 AT91F_PDC_ReceiveFrame
/cygdrive/c/Users/brent/AppData/Local/Temp/ccEh5roO.s:4561   .text.AT91F_PDC_ReceiveFrame:00000000 $t
/cygdrive/c/Users/brent/AppData/Local/Temp/ccEh5roO.s:4600   .text.AT91F_US_ReceiveFrame:00000000 AT91F_US_ReceiveFrame
/cygdrive/c/Users/brent/AppData/Local/Temp/ccEh5roO.s:4597   .text.AT91F_US_ReceiveFrame:00000000 $t
/cygdrive/c/Users/brent/AppData/Local/Temp/ccEh5roO.s:4621   .text.AT91F_SSC_ReceiveFrame:00000000 AT91F_SSC_ReceiveFrame
/cygdrive/c/Users/brent/AppData/Local/Temp/ccEh5roO.s:4618   .text.AT91F_SSC_ReceiveFrame:00000000 $t
/cygdrive/c/Users/brent/AppData/Local/Temp/ccEh5roO.s:4642   .text.AT91F_SPI_ReceiveFrame:00000000 AT91F_SPI_ReceiveFrame
/cygdrive/c/Users/brent/AppData/Local/Temp/ccEh5roO.s:4639   .text.AT91F_SPI_ReceiveFrame:00000000 $t
/cygdrive/c/Users/brent/AppData/Local/Temp/ccEh5roO.s:4663   .text.AT91F_AIC_Open:00000000 AT91F_AIC_Open
/cygdrive/c/Users/brent/AppData/Local/Temp/ccEh5roO.s:4660   .text.AT91F_AIC_Open:00000000 $t

UNDEFINED SYMBOLS
__udivsi3
__divsi3
__umodsi3
