
main.elf:     file format elf32-littlearm

Sections:
Idx Name          Size      VMA       LMA       File off  Algn
  0 .text         0000b3fc  00100000  00100000  00008000  2**2
                  CONTENTS, ALLOC, LOAD, READONLY, CODE
  1 .ctors        00000000  0010b3fc  0010b3fc  00018886  2**0
                  CONTENTS
  2 .dtors        00000000  0010b3fc  0010b3fc  00018886  2**0
                  CONTENTS
  3 .rodata       0000065c  0010b3fc  0010b3fc  000133fc  2**2
                  CONTENTS, ALLOC, LOAD, READONLY, DATA
  4 .data         00000880  00200000  0010ba58  00018000  2**2
                  CONTENTS, ALLOC, LOAD, CODE
  5 .data.ulCriticalNesting 00000004  00200880  0010c2d8  00018880  2**2
                  CONTENTS, ALLOC, LOAD, DATA
  6 .data.duty    00000002  00200884  0010c2dc  00018884  2**1
                  CONTENTS, ALLOC, LOAD, DATA
  7 .bss          000005e8  00200888  00200888  00018886  2**2
                  ALLOC
  8 .bss.ulNextMessage.2580 00000004  00200e70  00200e70  00018886  2**2
                  ALLOC
  9 .bss.xISRMessages 00000040  00200e74  00200e74  00018886  2**2
                  ALLOC
 10 .bss.pxCurrentTCB 00000004  00200eb4  00200eb4  00018886  2**2
                  ALLOC
 11 .bss.xMissedYield 00000004  00200eb8  00200eb8  00018886  2**2
                  ALLOC
 12 .bss.xTickCount 00000004  00200ebc  00200ebc  00018886  2**2
                  ALLOC
 13 .bss.xNumOfOverflows 00000004  00200ec0  00200ec0  00018886  2**2
                  ALLOC
 14 .bss.uxTopReadyPriority 00000004  00200ec4  00200ec4  00018886  2**2
                  ALLOC
 15 .bss.uxSchedulerSuspended 00000004  00200ec8  00200ec8  00018886  2**2
                  ALLOC
 16 .bss.uxMissedTicks 00000004  00200ecc  00200ecc  00018886  2**2
                  ALLOC
 17 .bss.uxCurrentNumberOfTasks 00000004  00200ed0  00200ed0  00018886  2**2
                  ALLOC
 18 .bss.xSchedulerRunning 00000004  00200ed4  00200ed4  00018886  2**2
                  ALLOC
 19 .bss.uxTopUsedPriority 00000004  00200ed8  00200ed8  00018886  2**2
                  ALLOC
 20 .bss.uxTaskNumber.3709 00000004  00200edc  00200edc  00018886  2**2
                  ALLOC
 21 .bss.xSuspendedTaskList 00000014  00200ee0  00200ee0  00018886  2**2
                  ALLOC
 22 .bss.xPendingReadyList 00000014  00200ef4  00200ef4  00018886  2**2
                  ALLOC
 23 .bss.pxOverflowDelayedTaskList 00000004  00200f08  00200f08  00018886  2**2
                  ALLOC
 24 .bss.pxDelayedTaskList 00000004  00200f0c  00200f0c  00018886  2**2
                  ALLOC
 25 .bss.xDelayedTaskList2 00000014  00200f10  00200f10  00018886  2**2
                  ALLOC
 26 .bss.xDelayedTaskList1 00000014  00200f24  00200f24  00018886  2**2
                  ALLOC
 27 .bss.pxReadyTasksLists 00000064  00200f38  00200f38  00018886  2**2
                  ALLOC
 28 .bss.xHeapHasBeenInitialised.3010 00000004  00200f9c  00200f9c  00018886  2**2
                  ALLOC
 29 .bss.xEnd     00000008  00200fa0  00200fa0  00018886  2**2
                  ALLOC
 30 .bss.xStart   00000008  00200fa8  00200fa8  00018886  2**2
                  ALLOC
 31 .bss.xHeap    00002714  00200fb0  00200fb0  00018886  2**2
                  ALLOC
 32 .bss.usbIntefacedInitialized 00000004  002036c4  002036c4  00018886  2**2
                  ALLOC
 33 .bss.eDriverState 00000004  002036c8  002036c8  00018886  2**2
                  ALLOC
 34 .bss.ucUSBConfig 00000001  002036cc  002036cc  00018886  2**0
                  ALLOC
 35 .bss.ulReceivedAddress 00000004  002036d0  002036d0  00018886  2**2
                  ALLOC
 36 .bss.xRequest.3608 00000008  002036d4  002036d4  00018886  2**2
                  ALLOC
 37 .bss.uiCurrentBank 00000004  002036dc  002036dc  00018886  2**2
                  ALLOC
 38 .bss.ucControlState 00000001  002036e0  002036e0  00018886  2**0
                  ALLOC
 39 .bss.xTxCDC   00000004  002036e4  002036e4  00018886  2**2
                  ALLOC
 40 .bss.xRxCDC   00000004  002036e8  002036e8  00018886  2**2
                  ALLOC
 41 .bss.pxControlRx 00000088  002036ec  002036ec  00018886  2**2
                  ALLOC
 42 .bss.pxControlTx 00000088  00203774  00203774  00018886  2**2
                  ALLOC
 43 .comment      00000558  00000000  00000000  00018886  2**0
                  CONTENTS, READONLY
 44 .debug_aranges 00000800  00000000  00000000  00018de0  2**3
                  CONTENTS, READONLY, DEBUGGING
 45 .debug_pubnames 000016cd  00000000  00000000  000195e0  2**0
                  CONTENTS, READONLY, DEBUGGING
 46 .debug_info   0001cc33  00000000  00000000  0001acad  2**0
                  CONTENTS, READONLY, DEBUGGING
 47 .debug_abbrev 000051a2  00000000  00000000  000378e0  2**0
                  CONTENTS, READONLY, DEBUGGING
 48 .debug_line   00004ea7  00000000  00000000  0003ca82  2**0
                  CONTENTS, READONLY, DEBUGGING
 49 .debug_frame  00001e48  00000000  00000000  0004192c  2**2
                  CONTENTS, READONLY, DEBUGGING
 50 .debug_str    00002e63  00000000  00000000  00043774  2**0
                  CONTENTS, READONLY, DEBUGGING
 51 .debug_loc    0000cbb9  00000000  00000000  000465d7  2**0
                  CONTENTS, READONLY, DEBUGGING
 52 .debug_ranges 00000370  00000000  00000000  00053190  2**0
                  CONTENTS, READONLY, DEBUGGING
Disassembly of section .text:

00100000 <Vectors>:
  100000:	e59ff018 	ldr	pc, [pc, #24]	; 100020 <Reset_Addr>
  100004:	e59ff018 	ldr	pc, [pc, #24]	; 100024 <Undef_Addr>
  100008:	e59ff018 	ldr	pc, [pc, #24]	; 100028 <SWI_Addr>
  10000c:	e59ff018 	ldr	pc, [pc, #24]	; 10002c <PAbt_Addr>
  100010:	e59ff018 	ldr	pc, [pc, #24]	; 100030 <DAbt_Addr>
  100014:	e1a00000 	nop			(mov r0,r0)
  100018:	e51fff20 	ldr	pc, [pc, #-3872]	; ff100 <PMC_OSCOUNT+0xef200>
  10001c:	e51fff20 	ldr	pc, [pc, #-3872]	; ff104 <PMC_OSCOUNT+0xef204>

00100020 <Reset_Addr>:
  100020:	0010005c 	andeqs	r0, r0, ip, asr r0

00100024 <Undef_Addr>:
  100024:	00100040 	andeqs	r0, r0, r0, asr #32

00100028 <SWI_Addr>:
  100028:	0010020c 	andeqs	r0, r0, ip, lsl #4

0010002c <PAbt_Addr>:
  10002c:	00100048 	andeqs	r0, r0, r8, asr #32

00100030 <DAbt_Addr>:
  100030:	0010004c 	andeqs	r0, r0, ip, asr #32
  100034:	00000000 	andeq	r0, r0, r0

00100038 <IRQ_Addr>:
  100038:	00100050 	andeqs	r0, r0, r0, asr r0

0010003c <FIQ_Addr>:
  10003c:	00100054 	andeqs	r0, r0, r4, asr r0

00100040 <Undef_Handler>:
  100040:	eafffffe 	b	100040 <Undef_Handler>
  100044:	ea000070 	b	10020c <SWI_Handler>

00100048 <PAbt_Handler>:
  100048:	eafffffe 	b	100048 <PAbt_Handler>

0010004c <DAbt_Handler>:
  10004c:	eafffffe 	b	10004c <DAbt_Handler>

00100050 <IRQ_Handler>:
  100050:	eafffffe 	b	100050 <IRQ_Handler>

00100054 <FIQ_Handler>:
  100054:	eafffffe 	b	100054 <FIQ_Handler>

00100058 <_startup>:
  100058:	e59ff120 	ldr	pc, [pc, #288]	; 100180 <.text+0x180>

0010005c <Reset_Handler>:
  10005c:	e3e000ff 	mvn	r0, #255	; 0xff
  100060:	e59f111c 	ldr	r1, [pc, #284]	; 100184 <.text+0x184>
  100064:	e5801060 	str	r1, [r0, #96]
  100068:	e59f0118 	ldr	r0, [pc, #280]	; 100188 <.text+0x188>
  10006c:	e3a01902 	mov	r1, #32768	; 0x8000
  100070:	e5801004 	str	r1, [r0, #4]
  100074:	e59f0110 	ldr	r0, [pc, #272]	; 10018c <.text+0x18c>
  100078:	e59f1110 	ldr	r1, [pc, #272]	; 100190 <.text+0x190>
  10007c:	e5801020 	str	r1, [r0, #32]

00100080 <MOSCS_Loop>:
  100080:	e5902068 	ldr	r2, [r0, #104]
  100084:	e2122001 	ands	r2, r2, #1	; 0x1
  100088:	0afffffc 	beq	100080 <MOSCS_Loop>
  10008c:	e59f1100 	ldr	r1, [pc, #256]	; 100194 <.text+0x194>
  100090:	e580102c 	str	r1, [r0, #44]

00100094 <PLL_Loop>:
  100094:	e5902068 	ldr	r2, [r0, #104]
  100098:	e2122004 	ands	r2, r2, #4	; 0x4
  10009c:	0afffffc 	beq	100094 <PLL_Loop>
  1000a0:	e3a01007 	mov	r1, #7	; 0x7
  1000a4:	e5801030 	str	r1, [r0, #48]
  1000a8:	e3a00981 	mov	r0, #2113536	; 0x204000
  1000ac:	e321f0db 	msr	CPSR_c, #219	; 0xdb
  1000b0:	e1a0d000 	mov	sp, r0
  1000b4:	e2400004 	sub	r0, r0, #4	; 0x4
  1000b8:	e321f0d7 	msr	CPSR_c, #215	; 0xd7
  1000bc:	e1a0d000 	mov	sp, r0
  1000c0:	e2400004 	sub	r0, r0, #4	; 0x4
  1000c4:	e321f0d1 	msr	CPSR_c, #209	; 0xd1
  1000c8:	e1a0d000 	mov	sp, r0
  1000cc:	e2400004 	sub	r0, r0, #4	; 0x4
  1000d0:	e321f0d2 	msr	CPSR_c, #210	; 0xd2
  1000d4:	e1a0d000 	mov	sp, r0
  1000d8:	e2400c01 	sub	r0, r0, #256	; 0x100
  1000dc:	e321f0d3 	msr	CPSR_c, #211	; 0xd3
  1000e0:	e1a0d000 	mov	sp, r0
  1000e4:	e2400c01 	sub	r0, r0, #256	; 0x100
  1000e8:	e321f0df 	msr	CPSR_c, #223	; 0xdf
  1000ec:	e1a0d000 	mov	sp, r0
  1000f0:	e321f0d3 	msr	CPSR_c, #211	; 0xd3
  1000f4:	e59f109c 	ldr	r1, [pc, #156]	; 100198 <.text+0x198>
  1000f8:	e59f209c 	ldr	r2, [pc, #156]	; 10019c <.text+0x19c>
  1000fc:	e59f309c 	ldr	r3, [pc, #156]	; 1001a0 <.text+0x1a0>

00100100 <LoopRel>:
  100100:	e1520003 	cmp	r2, r3
  100104:	34910004 	ldrcc	r0, [r1], #4
  100108:	34820004 	strcc	r0, [r2], #4
  10010c:	3afffffb 	bcc	100100 <LoopRel>
  100110:	e3a00000 	mov	r0, #0	; 0x0
  100114:	e59f1088 	ldr	r1, [pc, #136]	; 1001a4 <.text+0x1a4>
  100118:	e59f2088 	ldr	r2, [pc, #136]	; 1001a8 <.text+0x1a8>

0010011c <LoopZI>:
  10011c:	e1510002 	cmp	r1, r2
  100120:	34810004 	strcc	r0, [r1], #4
  100124:	3afffffc 	bcc	10011c <LoopZI>
  100128:	e3e000ff 	mvn	r0, #255	; 0xff
  10012c:	e3a01001 	mov	r1, #1	; 0x1
  100130:	e5801000 	str	r1, [r0]
  100134:	e59f0070 	ldr	r0, [pc, #112]	; 1001ac <.text+0x1ac>
  100138:	e59f1070 	ldr	r1, [pc, #112]	; 1001b0 <.text+0x1b0>

0010013c <ctor_loop>:
  10013c:	e1500001 	cmp	r0, r1
  100140:	0a000005 	beq	10015c <ctor_end>
  100144:	e4902004 	ldr	r2, [r0], #4
  100148:	e92d0003 	stmdb	sp!, {r0, r1}
  10014c:	e1a0e00f 	mov	lr, pc
  100150:	e12fff12 	bx	r2
  100154:	e8bd0003 	ldmia	sp!, {r0, r1}
  100158:	eafffff7 	b	10013c <ctor_loop>

0010015c <ctor_end>:
  10015c:	e3a00000 	mov	r0, #0	; 0x0
  100160:	e1a01000 	mov	r1, r0
  100164:	e1a02000 	mov	r2, r0
  100168:	e1a0b000 	mov	fp, r0
  10016c:	e1a07000 	mov	r7, r0
  100170:	e59fa03c 	ldr	sl, [pc, #60]	; 1001b4 <.text+0x1b4>
  100174:	e28fe000 	add	lr, pc, #0	; 0x0
  100178:	e12fff1a 	bx	sl

0010017c <__main_exit>:
  10017c:	eafffffe 	b	10017c <__main_exit>
  100180:	0010005c 	andeqs	r0, r0, ip, asr r0
  100184:	00320100 	eoreqs	r0, r2, r0, lsl #2
  100188:	fffffd40 	swinv	0x00fffd40
  10018c:	fffffc00 	swinv	0x00fffc00
  100190:	00000601 	andeq	r0, r0, r1, lsl #12
  100194:	00191c05 	andeqs	r1, r9, r5, lsl #24
  100198:	0010ba58 	andeqs	fp, r0, r8, asr sl
  10019c:	00200000 	eoreq	r0, r0, r0
  1001a0:	00200888 	eoreq	r0, r0, r8, lsl #17
  1001a4:	00200888 	eoreq	r0, r0, r8, lsl #17
  1001a8:	002037fc 	streqd	r3, [r0], -ip
  1001ac:	0010b3fc 	ldreqsh	fp, [r0], -ip
  1001b0:	0010b3fc 	ldreqsh	fp, [r0], -ip
  1001b4:	001007a5 	andeqs	r0, r0, r5, lsr #15

001001b8 <vPortISRStartFirstTask>:
  1001b8:	e59f0044 	ldr	r0, [pc, #68]	; 100204 <.text+0x204>
  1001bc:	e5900000 	ldr	r0, [r0]
  1001c0:	e590e000 	ldr	lr, [r0]
  1001c4:	e59f003c 	ldr	r0, [pc, #60]	; 100208 <.text+0x208>
  1001c8:	e8be0002 	ldmia	lr!, {r1}
  1001cc:	e5801000 	str	r1, [r0]
  1001d0:	e8be0001 	ldmia	lr!, {r0}
  1001d4:	e169f000 	msr	SPSR_fc, r0
  1001d8:	e8de7fff 	ldmia	lr, {r0, r1, r2, r3, r4, r5, r6, r7, r8, r9, sl, fp, ip, sp, lr}^
  1001dc:	e1a00000 	nop			(mov r0,r0)
  1001e0:	e59ee03c 	ldr	lr, [lr, #60]
  1001e4:	e25ef004 	subs	pc, lr, #4	; 0x4
  1001e8:	e59f300c 	ldr	r3, [pc, #12]	; 1001fc <.text+0x1fc>
  1001ec:	e5933000 	ldr	r3, [r3]
  1001f0:	e59f3008 	ldr	r3, [pc, #8]	; 100200 <.text+0x200>
  1001f4:	e5933000 	ldr	r3, [r3]
  1001f8:	e12fff1e 	bx	lr
  1001fc:	00200880 	eoreq	r0, r0, r0, lsl #17
  100200:	00200eb4 	streqh	r0, [r0], -r4
  100204:	00200eb4 	streqh	r0, [r0], -r4
  100208:	00200880 	eoreq	r0, r0, r0, lsl #17

0010020c <SWI_Handler>:
  10020c:	e28ee004 	add	lr, lr, #4	; 0x4
  100210:	e92d0001 	stmdb	sp!, {r0}
  100214:	e94d2000 	stmdb	sp, {sp}^
  100218:	e1a00000 	nop			(mov r0,r0)
  10021c:	e24dd004 	sub	sp, sp, #4	; 0x4
  100220:	e8bd0001 	ldmia	sp!, {r0}
  100224:	e9204000 	stmdb	r0!, {lr}
  100228:	e1a0e000 	mov	lr, r0
  10022c:	e8bd0001 	ldmia	sp!, {r0}
  100230:	e94e7fff 	stmdb	lr, {r0, r1, r2, r3, r4, r5, r6, r7, r8, r9, sl, fp, ip, sp, lr}^
  100234:	e1a00000 	nop			(mov r0,r0)
  100238:	e24ee03c 	sub	lr, lr, #60	; 0x3c
  10023c:	e14f0000 	mrs	r0, SPSR
  100240:	e92e0001 	stmdb	lr!, {r0}
  100244:	e59f0064 	ldr	r0, [pc, #100]	; 1002b0 <.text+0x2b0>
  100248:	e5900000 	ldr	r0, [r0]
  10024c:	e92e0001 	stmdb	lr!, {r0}
  100250:	e59f005c 	ldr	r0, [pc, #92]	; 1002b4 <.text+0x2b4>
  100254:	e5900000 	ldr	r0, [r0]
  100258:	e580e000 	str	lr, [r0]
  10025c:	e59f4044 	ldr	r4, [pc, #68]	; 1002a8 <.text+0x2a8>
  100260:	e59f5044 	ldr	r5, [pc, #68]	; 1002ac <.text+0x2ac>
  100264:	e5943000 	ldr	r3, [r4]
  100268:	e5953000 	ldr	r3, [r5]
  10026c:	eb002c30 	bl	10b334 <__vTaskSwitchContext_from_arm>
  100270:	e59f003c 	ldr	r0, [pc, #60]	; 1002b4 <.text+0x2b4>
  100274:	e5900000 	ldr	r0, [r0]
  100278:	e590e000 	ldr	lr, [r0]
  10027c:	e59f002c 	ldr	r0, [pc, #44]	; 1002b0 <.text+0x2b0>
  100280:	e8be0002 	ldmia	lr!, {r1}
  100284:	e5801000 	str	r1, [r0]
  100288:	e8be0001 	ldmia	lr!, {r0}
  10028c:	e169f000 	msr	SPSR_fc, r0
  100290:	e8de7fff 	ldmia	lr, {r0, r1, r2, r3, r4, r5, r6, r7, r8, r9, sl, fp, ip, sp, lr}^
  100294:	e1a00000 	nop			(mov r0,r0)
  100298:	e59ee03c 	ldr	lr, [lr, #60]
  10029c:	e25ef004 	subs	pc, lr, #4	; 0x4
  1002a0:	e5943000 	ldr	r3, [r4]
  1002a4:	e5953000 	ldr	r3, [r5]
  1002a8:	00200880 	eoreq	r0, r0, r0, lsl #17
  1002ac:	00200eb4 	streqh	r0, [r0], -r4
  1002b0:	00200880 	eoreq	r0, r0, r0, lsl #17
  1002b4:	00200eb4 	streqh	r0, [r0], -r4

001002b8 <vPreemptiveTick>:
  1002b8:	e92d0001 	stmdb	sp!, {r0}
  1002bc:	e94d2000 	stmdb	sp, {sp}^
  1002c0:	e1a00000 	nop			(mov r0,r0)
  1002c4:	e24dd004 	sub	sp, sp, #4	; 0x4
  1002c8:	e8bd0001 	ldmia	sp!, {r0}
  1002cc:	e9204000 	stmdb	r0!, {lr}
  1002d0:	e1a0e000 	mov	lr, r0
  1002d4:	e8bd0001 	ldmia	sp!, {r0}
  1002d8:	e94e7fff 	stmdb	lr, {r0, r1, r2, r3, r4, r5, r6, r7, r8, r9, sl, fp, ip, sp, lr}^
  1002dc:	e1a00000 	nop			(mov r0,r0)
  1002e0:	e24ee03c 	sub	lr, lr, #60	; 0x3c
  1002e4:	e14f0000 	mrs	r0, SPSR
  1002e8:	e92e0001 	stmdb	lr!, {r0}
  1002ec:	e59f007c 	ldr	r0, [pc, #124]	; 100370 <.text+0x370>
  1002f0:	e5900000 	ldr	r0, [r0]
  1002f4:	e92e0001 	stmdb	lr!, {r0}
  1002f8:	e59f0074 	ldr	r0, [pc, #116]	; 100374 <.text+0x374>
  1002fc:	e5900000 	ldr	r0, [r0]
  100300:	e580e000 	str	lr, [r0]
  100304:	e59f4058 	ldr	r4, [pc, #88]	; 100364 <.text+0x364>
  100308:	e59f5058 	ldr	r5, [pc, #88]	; 100368 <.text+0x368>
  10030c:	e5943000 	ldr	r3, [r4]
  100310:	e5953000 	ldr	r3, [r5]
  100314:	eb002c09 	bl	10b340 <__vTaskIncrementTick_from_arm>
  100318:	eb002c05 	bl	10b334 <__vTaskSwitchContext_from_arm>
  10031c:	e59f3048 	ldr	r3, [pc, #72]	; 10036c <.text+0x36c>
  100320:	e5932008 	ldr	r2, [r3, #8]
  100324:	e2433ed3 	sub	r3, r3, #3376	; 0xd30
  100328:	e5832130 	str	r2, [r3, #304]
  10032c:	e59f0040 	ldr	r0, [pc, #64]	; 100374 <.text+0x374>
  100330:	e5900000 	ldr	r0, [r0]
  100334:	e590e000 	ldr	lr, [r0]
  100338:	e59f0030 	ldr	r0, [pc, #48]	; 100370 <.text+0x370>
  10033c:	e8be0002 	ldmia	lr!, {r1}
  100340:	e5801000 	str	r1, [r0]
  100344:	e8be0001 	ldmia	lr!, {r0}
  100348:	e169f000 	msr	SPSR_fc, r0
  10034c:	e8de7fff 	ldmia	lr, {r0, r1, r2, r3, r4, r5, r6, r7, r8, r9, sl, fp, ip, sp, lr}^
  100350:	e1a00000 	nop			(mov r0,r0)
  100354:	e59ee03c 	ldr	lr, [lr, #60]
  100358:	e25ef004 	subs	pc, lr, #4	; 0x4
  10035c:	e5943000 	ldr	r3, [r4]
  100360:	e5953000 	ldr	r3, [r5]
  100364:	00200880 	eoreq	r0, r0, r0, lsl #17
  100368:	00200eb4 	streqh	r0, [r0], -r4
  10036c:	fffffd30 	swinv	0x00fffd30
  100370:	00200880 	eoreq	r0, r0, r0, lsl #17
  100374:	00200eb4 	streqh	r0, [r0], -r4

00100378 <vPortDisableInterruptsFromThumb>:
  100378:	e92d0001 	stmdb	sp!, {r0}
  10037c:	e10f0000 	mrs	r0, CPSR
  100380:	e38000c0 	orr	r0, r0, #192	; 0xc0
  100384:	e129f000 	msr	CPSR_fc, r0
  100388:	e8bd0001 	ldmia	sp!, {r0}
  10038c:	e12fff1e 	bx	lr

00100390 <vPortEnterCritical>:
  100390:	e92d0001 	stmdb	sp!, {r0}
  100394:	e10f0000 	mrs	r0, CPSR
  100398:	e38000c0 	orr	r0, r0, #192	; 0xc0
  10039c:	e129f000 	msr	CPSR_fc, r0
  1003a0:	e8bd0001 	ldmia	sp!, {r0}
  1003a4:	e59f200c 	ldr	r2, [pc, #12]	; 1003b8 <.text+0x3b8>
  1003a8:	e5923000 	ldr	r3, [r2]
  1003ac:	e2833001 	add	r3, r3, #1	; 0x1
  1003b0:	e5823000 	str	r3, [r2]
  1003b4:	e12fff1e 	bx	lr
  1003b8:	00200880 	eoreq	r0, r0, r0, lsl #17

001003bc <vPortExitCritical>:
  1003bc:	e59f2038 	ldr	r2, [pc, #56]	; 1003fc <.text+0x3fc>
  1003c0:	e5923000 	ldr	r3, [r2]
  1003c4:	e3530000 	cmp	r3, #0	; 0x0
  1003c8:	012fff1e 	bxeq	lr
  1003cc:	e5923000 	ldr	r3, [r2]
  1003d0:	e2433001 	sub	r3, r3, #1	; 0x1
  1003d4:	e5823000 	str	r3, [r2]
  1003d8:	e5923000 	ldr	r3, [r2]
  1003dc:	e3530000 	cmp	r3, #0	; 0x0
  1003e0:	112fff1e 	bxne	lr
  1003e4:	e92d0001 	stmdb	sp!, {r0}
  1003e8:	e10f0000 	mrs	r0, CPSR
  1003ec:	e3c000c0 	bic	r0, r0, #192	; 0xc0
  1003f0:	e129f000 	msr	CPSR_fc, r0
  1003f4:	e8bd0001 	ldmia	sp!, {r0}
  1003f8:	e12fff1e 	bx	lr
  1003fc:	00200880 	eoreq	r0, r0, r0, lsl #17

00100400 <vUSB_ISR>:
  100400:	e92d0001 	stmdb	sp!, {r0}
  100404:	e94d2000 	stmdb	sp, {sp}^
  100408:	e1a00000 	nop			(mov r0,r0)
  10040c:	e24dd004 	sub	sp, sp, #4	; 0x4
  100410:	e8bd0001 	ldmia	sp!, {r0}
  100414:	e9204000 	stmdb	r0!, {lr}
  100418:	e1a0e000 	mov	lr, r0
  10041c:	e8bd0001 	ldmia	sp!, {r0}
  100420:	e94e7fff 	stmdb	lr, {r0, r1, r2, r3, r4, r5, r6, r7, r8, r9, sl, fp, ip, sp, lr}^
  100424:	e1a00000 	nop			(mov r0,r0)
  100428:	e24ee03c 	sub	lr, lr, #60	; 0x3c
  10042c:	e14f0000 	mrs	r0, SPSR
  100430:	e92e0001 	stmdb	lr!, {r0}
  100434:	e59f01f8 	ldr	r0, [pc, #504]	; 100634 <.text+0x634>
  100438:	e5900000 	ldr	r0, [r0]
  10043c:	e92e0001 	stmdb	lr!, {r0}
  100440:	e59f01f0 	ldr	r0, [pc, #496]	; 100638 <.text+0x638>
  100444:	e5900000 	ldr	r0, [r0]
  100448:	e580e000 	str	lr, [r0]
  10044c:	e59f31c4 	ldr	r3, [pc, #452]	; 100618 <.text+0x618>
  100450:	e5933000 	ldr	r3, [r3]
  100454:	e59f31c0 	ldr	r3, [pc, #448]	; 10061c <.text+0x61c>
  100458:	e5933000 	ldr	r3, [r3]
  10045c:	e24eb004 	sub	fp, lr, #4	; 0x4
  100460:	e59f21b8 	ldr	r2, [pc, #440]	; 100620 <.text+0x620>
  100464:	e5921000 	ldr	r1, [r2]
  100468:	e5923000 	ldr	r3, [r2]
  10046c:	e2833001 	add	r3, r3, #1	; 0x1
  100470:	e5823000 	str	r3, [r2]
  100474:	e59f21a8 	ldr	r2, [pc, #424]	; 100624 <.text+0x624>
  100478:	e592401c 	ldr	r4, [r2, #28]
  10047c:	e592c030 	ldr	ip, [r2, #48]
  100480:	e59fe1a0 	ldr	lr, [pc, #416]	; 100628 <.text+0x628>
  100484:	e5923018 	ldr	r3, [r2, #24]
  100488:	e2011003 	and	r1, r1, #3	; 0x3
  10048c:	e1a01201 	mov	r1, r1, lsl #4
  100490:	e1a0082c 	mov	r0, ip, lsr #16
  100494:	e1a05a80 	mov	r5, r0, lsl #21
  100498:	e31c0006 	tst	ip, #6	; 0x6
  10049c:	e081000e 	add	r0, r1, lr
  1004a0:	e3833a01 	orr	r3, r3, #4096	; 0x1000
  1004a4:	e580c004 	str	ip, [r0, #4]
  1004a8:	e58d0000 	str	r0, [sp]
  1004ac:	e781400e 	str	r4, [r1, lr]
  1004b0:	e5823020 	str	r3, [r2, #32]
  1004b4:	e1a05aa5 	mov	r5, r5, lsr #21
  1004b8:	13a00000 	movne	r0, #0	; 0x0
  1004bc:	1a000005 	bne	1004d8 <vUSB_ISR+0xd8>
  1004c0:	ea000029 	b	10056c <vUSB_ISR+0x16c>
  1004c4:	e59f3158 	ldr	r3, [pc, #344]	; 100624 <.text+0x624>
  1004c8:	e5932050 	ldr	r2, [r3, #80]
  1004cc:	e59d3000 	ldr	r3, [sp]
  1004d0:	e0813003 	add	r3, r1, r3
  1004d4:	e5c32008 	strb	r2, [r3, #8]
  1004d8:	e20010ff 	and	r1, r0, #255	; 0xff
  1004dc:	e1510005 	cmp	r1, r5
  1004e0:	e2800001 	add	r0, r0, #1	; 0x1
  1004e4:	3afffff6 	bcc	1004c4 <vUSB_ISR+0xc4>
  1004e8:	e59f2134 	ldr	r2, [pc, #308]	; 100624 <.text+0x624>
  1004ec:	e5923030 	ldr	r3, [r2, #48]
  1004f0:	e3130004 	tst	r3, #4	; 0x4
  1004f4:	05923030 	ldreq	r3, [r2, #48]
  1004f8:	03c33002 	biceq	r3, r3, #2	; 0x2
  1004fc:	05823030 	streq	r3, [r2, #48]
  100500:	0a000015 	beq	10055c <vUSB_ISR+0x15c>
  100504:	e3550000 	cmp	r5, #0	; 0x0
  100508:	0a00000a 	beq	100538 <vUSB_ISR+0x138>
  10050c:	e59d3000 	ldr	r3, [sp]
  100510:	e1d330d8 	ldrsb	r3, [r3, #8]
  100514:	e3530000 	cmp	r3, #0	; 0x0
  100518:	aa000006 	bge	100538 <vUSB_ISR+0x138>
  10051c:	e5923030 	ldr	r3, [r2, #48]
  100520:	e3833080 	orr	r3, r3, #128	; 0x80
  100524:	e5823030 	str	r3, [r2, #48]
  100528:	e59f30f4 	ldr	r3, [pc, #244]	; 100624 <.text+0x624>
  10052c:	e5933030 	ldr	r3, [r3, #48]
  100530:	e3130080 	tst	r3, #128	; 0x80
  100534:	0afffffb 	beq	100528 <vUSB_ISR+0x128>
  100538:	e59f20e4 	ldr	r2, [pc, #228]	; 100624 <.text+0x624>
  10053c:	e5923030 	ldr	r3, [r2, #48]
  100540:	e3c33004 	bic	r3, r3, #4	; 0x4
  100544:	e5823030 	str	r3, [r2, #48]
  100548:	e59f30d4 	ldr	r3, [pc, #212]	; 100624 <.text+0x624>
  10054c:	e5933030 	ldr	r3, [r3, #48]
  100550:	e3130004 	tst	r3, #4	; 0x4
  100554:	0a000004 	beq	10056c <vUSB_ISR+0x16c>
  100558:	eafffffa 	b	100548 <vUSB_ISR+0x148>
  10055c:	e59f30c0 	ldr	r3, [pc, #192]	; 100624 <.text+0x624>
  100560:	e5933030 	ldr	r3, [r3, #48]
  100564:	e3130002 	tst	r3, #2	; 0x2
  100568:	1afffffb 	bne	10055c <vUSB_ISR+0x15c>
  10056c:	e59fe0b0 	ldr	lr, [pc, #176]	; 100624 <.text+0x624>
  100570:	e59e3034 	ldr	r3, [lr, #52]
  100574:	e3130042 	tst	r3, #66	; 0x42
  100578:	13a03002 	movne	r3, #2	; 0x2
  10057c:	158e3014 	strne	r3, [lr, #20]
  100580:	e59e3030 	ldr	r3, [lr, #48]
  100584:	e3c33009 	bic	r3, r3, #9	; 0x9
  100588:	e58e3030 	str	r3, [lr, #48]
  10058c:	e59e3034 	ldr	r3, [lr, #52]
  100590:	e3c3300d 	bic	r3, r3, #13	; 0xd
  100594:	e58e3034 	str	r3, [lr, #52]
  100598:	e59e3038 	ldr	r3, [lr, #56]
  10059c:	e3c3304f 	bic	r3, r3, #79	; 0x4f
  1005a0:	e58e3038 	str	r3, [lr, #56]
  1005a4:	e59ec03c 	ldr	ip, [lr, #60]
  1005a8:	e59f307c 	ldr	r3, [pc, #124]	; 10062c <.text+0x62c>
  1005ac:	e3ccc04f 	bic	ip, ip, #79	; 0x4f
  1005b0:	e5930000 	ldr	r0, [r3]
  1005b4:	e3a02000 	mov	r2, #0	; 0x0
  1005b8:	e1a0100d 	mov	r1, sp
  1005bc:	e58ec03c 	str	ip, [lr, #60]
  1005c0:	eb002b61 	bl	10b34c <__xQueueSendFromISR_from_arm>
  1005c4:	e59f3064 	ldr	r3, [pc, #100]	; 100630 <.text+0x630>
  1005c8:	e3a02000 	mov	r2, #0	; 0x0
  1005cc:	e31000ff 	tst	r0, #255	; 0xff
  1005d0:	e5832130 	str	r2, [r3, #304]
  1005d4:	1b002b56 	blne	10b334 <__vTaskSwitchContext_from_arm>
  1005d8:	e59f0058 	ldr	r0, [pc, #88]	; 100638 <.text+0x638>
  1005dc:	e5900000 	ldr	r0, [r0]
  1005e0:	e590e000 	ldr	lr, [r0]
  1005e4:	e59f0048 	ldr	r0, [pc, #72]	; 100634 <.text+0x634>
  1005e8:	e8be0002 	ldmia	lr!, {r1}
  1005ec:	e5801000 	str	r1, [r0]
  1005f0:	e8be0001 	ldmia	lr!, {r0}
  1005f4:	e169f000 	msr	SPSR_fc, r0
  1005f8:	e8de7fff 	ldmia	lr, {r0, r1, r2, r3, r4, r5, r6, r7, r8, r9, sl, fp, ip, sp, lr}^
  1005fc:	e1a00000 	nop			(mov r0,r0)
  100600:	e59ee03c 	ldr	lr, [lr, #60]
  100604:	e25ef004 	subs	pc, lr, #4	; 0x4
  100608:	e59f3008 	ldr	r3, [pc, #8]	; 100618 <.text+0x618>
  10060c:	e5933000 	ldr	r3, [r3]
  100610:	e59f3004 	ldr	r3, [pc, #4]	; 10061c <.text+0x61c>
  100614:	e5933000 	ldr	r3, [r3]
  100618:	00200880 	eoreq	r0, r0, r0, lsl #17
  10061c:	00200eb4 	streqh	r0, [r0], -r4
  100620:	00200e70 	eoreq	r0, r0, r0, ror lr
  100624:	fffb0000 	swinv	0x00fb0000
  100628:	00200e74 	eoreq	r0, r0, r4, ror lr
  10062c:	0020096c 	eoreq	r0, r0, ip, ror #18
  100630:	fffff000 	swinv	0x00fff000
  100634:	00200880 	eoreq	r0, r0, r0, lsl #17
  100638:	00200eb4 	streqh	r0, [r0], -r4

0010063c <gpio_irq_handler>:
  10063c:	e59f0138 	ldr	r0, [pc, #312]	; 10077c <.text+0x77c>
  100640:	e590304c 	ldr	r3, [r0, #76]
  100644:	e92d0001 	stmdb	sp!, {r0}
  100648:	e94d2000 	stmdb	sp, {sp}^
  10064c:	e1a00000 	nop			(mov r0,r0)
  100650:	e24dd004 	sub	sp, sp, #4	; 0x4
  100654:	e8bd0001 	ldmia	sp!, {r0}
  100658:	e9204000 	stmdb	r0!, {lr}
  10065c:	e1a0e000 	mov	lr, r0
  100660:	e8bd0001 	ldmia	sp!, {r0}
  100664:	e94e7fff 	stmdb	lr, {r0, r1, r2, r3, r4, r5, r6, r7, r8, r9, sl, fp, ip, sp, lr}^
  100668:	e1a00000 	nop			(mov r0,r0)
  10066c:	e24ee03c 	sub	lr, lr, #60	; 0x3c
  100670:	e14f0000 	mrs	r0, SPSR
  100674:	e92e0001 	stmdb	lr!, {r0}
  100678:	e59f011c 	ldr	r0, [pc, #284]	; 10079c <.text+0x79c>
  10067c:	e5900000 	ldr	r0, [r0]
  100680:	e92e0001 	stmdb	lr!, {r0}
  100684:	e59f0114 	ldr	r0, [pc, #276]	; 1007a0 <.text+0x7a0>
  100688:	e5900000 	ldr	r0, [r0]
  10068c:	e580e000 	str	lr, [r0]
  100690:	e59f30e8 	ldr	r3, [pc, #232]	; 100780 <.text+0x780>
  100694:	e5933000 	ldr	r3, [r3]
  100698:	e59f30e4 	ldr	r3, [pc, #228]	; 100784 <.text+0x784>
  10069c:	e5933000 	ldr	r3, [r3]
  1006a0:	e24eb004 	sub	fp, lr, #4	; 0x4
  1006a4:	eb002b2b 	bl	10b358 <__AT91F_PIO_GetInput_from_arm>
  1006a8:	e2101010 	ands	r1, r0, #16	; 0x10
  1006ac:	e1a04000 	mov	r4, r0
  1006b0:	13a05000 	movne	r5, #0	; 0x0
  1006b4:	1a000004 	bne	1006cc <gpio_irq_handler+0x90>
  1006b8:	e59f30c8 	ldr	r3, [pc, #200]	; 100788 <.text+0x788>
  1006bc:	e1a02001 	mov	r2, r1
  1006c0:	e5930000 	ldr	r0, [r3]
  1006c4:	eb002b20 	bl	10b34c <__xQueueSendFromISR_from_arm>
  1006c8:	e20050ff 	and	r5, r0, #255	; 0xff
  1006cc:	e2141c01 	ands	r1, r4, #256	; 0x100
  1006d0:	1a000004 	bne	1006e8 <gpio_irq_handler+0xac>
  1006d4:	e59f30b0 	ldr	r3, [pc, #176]	; 10078c <.text+0x78c>
  1006d8:	e1a02005 	mov	r2, r5
  1006dc:	e5930000 	ldr	r0, [r3]
  1006e0:	eb002b19 	bl	10b34c <__xQueueSendFromISR_from_arm>
  1006e4:	e20050ff 	and	r5, r0, #255	; 0xff
  1006e8:	e2141801 	ands	r1, r4, #65536	; 0x10000
  1006ec:	1a000004 	bne	100704 <gpio_irq_handler+0xc8>
  1006f0:	e59f3098 	ldr	r3, [pc, #152]	; 100790 <.text+0x790>
  1006f4:	e1a02005 	mov	r2, r5
  1006f8:	e5930000 	ldr	r0, [r3]
  1006fc:	eb002b12 	bl	10b34c <__xQueueSendFromISR_from_arm>
  100700:	e20050ff 	and	r5, r0, #255	; 0xff
  100704:	e2141302 	ands	r1, r4, #134217728	; 0x8000000
  100708:	1a000004 	bne	100720 <gpio_irq_handler+0xe4>
  10070c:	e59f3080 	ldr	r3, [pc, #128]	; 100794 <.text+0x794>
  100710:	e1a02005 	mov	r2, r5
  100714:	e5930000 	ldr	r0, [r3]
  100718:	eb002b0b 	bl	10b34c <__xQueueSendFromISR_from_arm>
  10071c:	e20050ff 	and	r5, r0, #255	; 0xff
  100720:	e59f0070 	ldr	r0, [pc, #112]	; 100798 <.text+0x798>
  100724:	eb002b0e 	bl	10b364 <__AT91F_AIC_AcknowledgeIt_from_arm>
  100728:	e59f0068 	ldr	r0, [pc, #104]	; 100798 <.text+0x798>
  10072c:	e3a01002 	mov	r1, #2	; 0x2
  100730:	eb002b0e 	bl	10b370 <__AT91F_AIC_ClearIt_from_arm>
  100734:	e3550000 	cmp	r5, #0	; 0x0
  100738:	1b002afd 	blne	10b334 <__vTaskSwitchContext_from_arm>
  10073c:	e59f005c 	ldr	r0, [pc, #92]	; 1007a0 <.text+0x7a0>
  100740:	e5900000 	ldr	r0, [r0]
  100744:	e590e000 	ldr	lr, [r0]
  100748:	e59f004c 	ldr	r0, [pc, #76]	; 10079c <.text+0x79c>
  10074c:	e8be0002 	ldmia	lr!, {r1}
  100750:	e5801000 	str	r1, [r0]
  100754:	e8be0001 	ldmia	lr!, {r0}
  100758:	e169f000 	msr	SPSR_fc, r0
  10075c:	e8de7fff 	ldmia	lr, {r0, r1, r2, r3, r4, r5, r6, r7, r8, r9, sl, fp, ip, sp, lr}^
  100760:	e1a00000 	nop			(mov r0,r0)
  100764:	e59ee03c 	ldr	lr, [lr, #60]
  100768:	e25ef004 	subs	pc, lr, #4	; 0x4
  10076c:	e59f300c 	ldr	r3, [pc, #12]	; 100780 <.text+0x780>
  100770:	e5933000 	ldr	r3, [r3]
  100774:	e59f3008 	ldr	r3, [pc, #8]	; 100784 <.text+0x784>
  100778:	e5933000 	ldr	r3, [r3]
  10077c:	fffff400 	swinv	0x00fff400
  100780:	00200880 	eoreq	r0, r0, r0, lsl #17
  100784:	00200eb4 	streqh	r0, [r0], -r4
  100788:	0020097c 	eoreq	r0, r0, ip, ror r9
  10078c:	00200978 	eoreq	r0, r0, r8, ror r9
  100790:	00200970 	eoreq	r0, r0, r0, ror r9
  100794:	00200974 	eoreq	r0, r0, r4, ror r9
  100798:	fffff000 	swinv	0x00fff000
  10079c:	00200880 	eoreq	r0, r0, r0, lsl #17
  1007a0:	00200eb4 	streqh	r0, [r0], -r4

001007a4 <main>:
  1007a4:	b510      	push	{r4, lr}
  1007a6:	4b1a      	ldr	r3, [pc, #104]	(100810 <.text+0x810>)
  1007a8:	2400      	mov	r4, #0
  1007aa:	b082      	sub	sp, #8
  1007ac:	635c      	str	r4, [r3, #52]
  1007ae:	4819      	ldr	r0, [pc, #100]	(100814 <.text+0x814>)
  1007b0:	4919      	ldr	r1, [pc, #100]	(100818 <.text+0x818>)
  1007b2:	f87ff000 	bl	1008b4 <AT91F_PMC_EnablePeriphClock>
  1007b6:	4819      	ldr	r0, [pc, #100]	(10081c <.text+0x81c>)
  1007b8:	2101      	mov	r1, #1
  1007ba:	f87df000 	bl	1008b8 <AT91F_RSTSetMode>
  1007be:	fb17f001 	bl	101df0 <InitADC>
  1007c2:	fb5ff001 	bl	101e84 <InitLEDs>
  1007c6:	fae3f001 	bl	101d90 <InitGPIO>
  1007ca:	2302      	mov	r3, #2
  1007cc:	2296      	mov	r2, #150
  1007ce:	4914      	ldr	r1, [pc, #80]	(100820 <.text+0x820>)
  1007d0:	9300      	str	r3, [sp, #0]
  1007d2:	0052      	lsl	r2, r2, #1
  1007d4:	2300      	mov	r3, #0
  1007d6:	4813      	ldr	r0, [pc, #76]	(100824 <.text+0x824>)
  1007d8:	9401      	str	r4, [sp, #4]
  1007da:	fa59f000 	bl	100c90 <xTaskCreate>
  1007de:	2301      	mov	r3, #1
  1007e0:	22af      	mov	r2, #175
  1007e2:	4911      	ldr	r1, [pc, #68]	(100828 <.text+0x828>)
  1007e4:	0092      	lsl	r2, r2, #2
  1007e6:	9300      	str	r3, [sp, #0]
  1007e8:	4810      	ldr	r0, [pc, #64]	(10082c <.text+0x82c>)
  1007ea:	2300      	mov	r3, #0
  1007ec:	9401      	str	r4, [sp, #4]
  1007ee:	fa4ff000 	bl	100c90 <xTaskCreate>
  1007f2:	fc69f001 	bl	1020c8 <createLoggerTask>
  1007f6:	fb7ff001 	bl	101ef8 <createGPIOTasks>
  1007fa:	fb0ff000 	bl	100e1c <vTaskStartScheduler>
  1007fe:	2004      	mov	r0, #4
  100800:	fb64f001 	bl	101ecc <ToggleLED>
  100804:	4b0a      	ldr	r3, [pc, #40]	(100830 <.text+0x830>)
  100806:	3b01      	sub	r3, #1
  100808:	2b00      	cmp	r3, #0
  10080a:	d1fc      	bne	100806 <main+0x62>
  10080c:	e7f7      	b	1007fe <main+0x5a>
  10080e:	0000      	lsl	r0, r0, #0
  100810:	fffff0fc 	bl	1fd812 <PMC_PLLR_Val+0x6bc0d>
  100814:	fc00      	second half of BL instruction 0xfc00
  100816:	ffff      	second half of BL instruction 0xffff
  100818:	04c4      	lsl	r4, r0, #19
  10081a:	4000      	and	r0, r0
  10081c:	fd00      	second half of BL instruction 0xfd00
  10081e:	ffff      	second half of BL instruction 0xffff
  100820:	b3fc      	undefined instruction 0xb3fc
  100822:	0010      	lsl	r0, r2, #0
  100824:	18ad      	add	r5, r5, r2
  100826:	0010      	lsl	r0, r2, #0
  100828:	b400      	push	{}
  10082a:	0010      	lsl	r0, r2, #0
  10082c:	1515      	asr	r5, r2, #20
  10082e:	0010      	lsl	r0, r2, #0
  100830:	8480      	strh	r0, [r0, #36]
  100832:	001e      	lsl	r6, r3, #0

00100834 <AT91F_AIC_ConfigureIt>:
  100834:	b5f0      	push	{r4, r5, r6, r7, lr}
  100836:	008d      	lsl	r5, r1, #2
  100838:	182d      	add	r5, r5, r0
  10083a:	1d2e      	add	r6, r5, #4
  10083c:	6ff4      	ldr	r4, [r6, #124]
  10083e:	9f05      	ldr	r7, [sp, #20]
  100840:	46a4      	mov	ip, r4
  100842:	2401      	mov	r4, #1
  100844:	408c      	lsl	r4, r1
  100846:	30fc      	add	r0, #252
  100848:	4313      	orr	r3, r2
  10084a:	6284      	str	r4, [r0, #40]
  10084c:	67f7      	str	r7, [r6, #124]
  10084e:	602b      	str	r3, [r5, #0]
  100850:	62c4      	str	r4, [r0, #44]
  100852:	4660      	mov	r0, ip
  100854:	bcf0      	pop	{r4, r5, r6, r7}
  100856:	bc02      	pop	{r1}
  100858:	4708      	bx	r1
  10085a:	46c0      	nop			(mov r8, r8)

0010085c <AT91F_AIC_EnableIt>:
  10085c:	2301      	mov	r3, #1
  10085e:	408b      	lsl	r3, r1
  100860:	30fc      	add	r0, #252
  100862:	6243      	str	r3, [r0, #36]
  100864:	4770      	bx	lr
  100866:	46c0      	nop			(mov r8, r8)

00100868 <AT91F_AIC_ClearIt>:
  100868:	2301      	mov	r3, #1
  10086a:	408b      	lsl	r3, r1
  10086c:	30fc      	add	r0, #252
  10086e:	62c3      	str	r3, [r0, #44]
  100870:	4770      	bx	lr
  100872:	46c0      	nop			(mov r8, r8)

00100874 <AT91F_AIC_AcknowledgeIt>:
  100874:	30fc      	add	r0, #252
  100876:	6b43      	ldr	r3, [r0, #52]
  100878:	6343      	str	r3, [r0, #52]
  10087a:	4770      	bx	lr

0010087c <AT91F_PIO_CfgOutput>:
  10087c:	6001      	str	r1, [r0, #0]
  10087e:	6101      	str	r1, [r0, #16]
  100880:	4770      	bx	lr
  100882:	46c0      	nop			(mov r8, r8)

00100884 <AT91F_PIO_CfgInput>:
  100884:	6141      	str	r1, [r0, #20]
  100886:	6001      	str	r1, [r0, #0]
  100888:	4770      	bx	lr
  10088a:	46c0      	nop			(mov r8, r8)

0010088c <AT91F_PIO_CfgOpendrain>:
  10088c:	43cb      	mvn	r3, r1
  10088e:	6543      	str	r3, [r0, #84]
  100890:	6501      	str	r1, [r0, #80]
  100892:	4770      	bx	lr

00100894 <AT91F_PIO_CfgPullup>:
  100894:	43cb      	mvn	r3, r1
  100896:	6603      	str	r3, [r0, #96]
  100898:	6641      	str	r1, [r0, #100]
  10089a:	4770      	bx	lr

0010089c <AT91F_PIO_CfgInputFilter>:
  10089c:	43cb      	mvn	r3, r1
  10089e:	6243      	str	r3, [r0, #36]
  1008a0:	6201      	str	r1, [r0, #32]
  1008a2:	4770      	bx	lr

001008a4 <AT91F_PIO_GetInput>:
  1008a4:	6bc0      	ldr	r0, [r0, #60]
  1008a6:	4770      	bx	lr

001008a8 <AT91F_PIO_SetOutput>:
  1008a8:	6301      	str	r1, [r0, #48]
  1008aa:	4770      	bx	lr

001008ac <AT91F_PIO_ClearOutput>:
  1008ac:	6341      	str	r1, [r0, #52]
  1008ae:	4770      	bx	lr

001008b0 <AT91F_PIO_InterruptEnable>:
  1008b0:	6401      	str	r1, [r0, #64]
  1008b2:	4770      	bx	lr

001008b4 <AT91F_PMC_EnablePeriphClock>:
  1008b4:	6101      	str	r1, [r0, #16]
  1008b6:	4770      	bx	lr

001008b8 <AT91F_RSTSetMode>:
  1008b8:	23a5      	mov	r3, #165
  1008ba:	061b      	lsl	r3, r3, #24
  1008bc:	4319      	orr	r1, r3
  1008be:	6081      	str	r1, [r0, #8]
  1008c0:	4770      	bx	lr
  1008c2:	46c0      	nop			(mov r8, r8)

001008c4 <AT91F_ADC_GetStatus>:
  1008c4:	69c0      	ldr	r0, [r0, #28]
  1008c6:	4770      	bx	lr

001008c8 <AT91F_ADC_CfgModeReg>:
  1008c8:	6041      	str	r1, [r0, #4]
  1008ca:	4770      	bx	lr

001008cc <AT91F_ADC_EnableChannel>:
  1008cc:	6101      	str	r1, [r0, #16]
  1008ce:	4770      	bx	lr

001008d0 <AT91F_ADC_StartConversion>:
  1008d0:	2302      	mov	r3, #2
  1008d2:	6003      	str	r3, [r0, #0]
  1008d4:	4770      	bx	lr
  1008d6:	46c0      	nop			(mov r8, r8)

001008d8 <AT91F_ADC_SoftReset>:
  1008d8:	2301      	mov	r3, #1
  1008da:	6003      	str	r3, [r0, #0]
  1008dc:	4770      	bx	lr
  1008de:	46c0      	nop			(mov r8, r8)

001008e0 <AT91F_ADC_GetConvertedDataCH0>:
  1008e0:	6b00      	ldr	r0, [r0, #48]
  1008e2:	4770      	bx	lr

001008e4 <AT91F_ADC_GetConvertedDataCH1>:
  1008e4:	6b40      	ldr	r0, [r0, #52]
  1008e6:	4770      	bx	lr

001008e8 <AT91F_ADC_GetConvertedDataCH2>:
  1008e8:	6b80      	ldr	r0, [r0, #56]
  1008ea:	4770      	bx	lr

001008ec <AT91F_ADC_GetConvertedDataCH3>:
  1008ec:	6bc0      	ldr	r0, [r0, #60]
  1008ee:	4770      	bx	lr

001008f0 <AT91F_ADC_GetConvertedDataCH4>:
  1008f0:	6c00      	ldr	r0, [r0, #64]
  1008f2:	4770      	bx	lr

001008f4 <AT91F_ADC_GetConvertedDataCH5>:
  1008f4:	6c40      	ldr	r0, [r0, #68]
  1008f6:	4770      	bx	lr

001008f8 <AT91F_ADC_GetConvertedDataCH6>:
  1008f8:	6c80      	ldr	r0, [r0, #72]
  1008fa:	4770      	bx	lr

001008fc <AT91F_ADC_GetConvertedDataCH7>:
  1008fc:	6cc0      	ldr	r0, [r0, #76]
  1008fe:	4770      	bx	lr

00100900 <vTaskSuspendAll>:
  100900:	b500      	push	{lr}
  100902:	fd3bf00a 	bl	10b37c <__vPortEnterCritical_from_thumb>
  100906:	4a04      	ldr	r2, [pc, #16]	(100918 <.text+0x918>)
  100908:	6813      	ldr	r3, [r2, #0]
  10090a:	3301      	add	r3, #1
  10090c:	6013      	str	r3, [r2, #0]
  10090e:	fd39f00a 	bl	10b384 <__vPortExitCritical_from_thumb>
  100912:	bc01      	pop	{r0}
  100914:	4700      	bx	r0
  100916:	0000      	lsl	r0, r0, #0
  100918:	0ec8      	lsr	r0, r1, #27
  10091a:	0020      	lsl	r0, r4, #0

0010091c <vTaskIncrementTick>:
  10091c:	b530      	push	{r4, r5, lr}
  10091e:	4b23      	ldr	r3, [pc, #140]	(1009ac <.text+0x9ac>)
  100920:	681b      	ldr	r3, [r3, #0]
  100922:	2b00      	cmp	r3, #0
  100924:	d13a      	bne	10099c <vTaskIncrementTick+0x80>
  100926:	4b22      	ldr	r3, [pc, #136]	(1009b0 <.text+0x9b0>)
  100928:	681a      	ldr	r2, [r3, #0]
  10092a:	3201      	add	r2, #1
  10092c:	601a      	str	r2, [r3, #0]
  10092e:	681b      	ldr	r3, [r3, #0]
  100930:	2b00      	cmp	r3, #0
  100932:	d128      	bne	100986 <vTaskIncrementTick+0x6a>
  100934:	4a1f      	ldr	r2, [pc, #124]	(1009b4 <.text+0x9b4>)
  100936:	4920      	ldr	r1, [pc, #128]	(1009b8 <.text+0x9b8>)
  100938:	6808      	ldr	r0, [r1, #0]
  10093a:	6813      	ldr	r3, [r2, #0]
  10093c:	600b      	str	r3, [r1, #0]
  10093e:	6010      	str	r0, [r2, #0]
  100940:	4a1e      	ldr	r2, [pc, #120]	(1009bc <.text+0x9bc>)
  100942:	6813      	ldr	r3, [r2, #0]
  100944:	3301      	add	r3, #1
  100946:	6013      	str	r3, [r2, #0]
  100948:	e01d      	b	100986 <vTaskIncrementTick+0x6a>
  10094a:	4b19      	ldr	r3, [pc, #100]	(1009b0 <.text+0x9b0>)
  10094c:	681a      	ldr	r2, [r3, #0]
  10094e:	6863      	ldr	r3, [r4, #4]
  100950:	429a      	cmp	r2, r3
  100952:	d327      	bcc	1009a4 <vTaskIncrementTick+0x88>
  100954:	1d25      	add	r5, r4, #4
  100956:	1c28      	mov	r0, r5		(add r0, r5, #0)
  100958:	fc6af000 	bl	101230 <vListRemove>
  10095c:	6aa3      	ldr	r3, [r4, #40]
  10095e:	2b00      	cmp	r3, #0
  100960:	d003      	beq	10096a <vTaskIncrementTick+0x4e>
  100962:	1c20      	mov	r0, r4		(add r0, r4, #0)
  100964:	3018      	add	r0, #24
  100966:	fc63f000 	bl	101230 <vListRemove>
  10096a:	4915      	ldr	r1, [pc, #84]	(1009c0 <.text+0x9c0>)
  10096c:	6ae2      	ldr	r2, [r4, #44]
  10096e:	680b      	ldr	r3, [r1, #0]
  100970:	429a      	cmp	r2, r3
  100972:	d900      	bls	100976 <vTaskIncrementTick+0x5a>
  100974:	600a      	str	r2, [r1, #0]
  100976:	0090      	lsl	r0, r2, #2
  100978:	1880      	add	r0, r0, r2
  10097a:	4b12      	ldr	r3, [pc, #72]	(1009c4 <.text+0x9c4>)
  10097c:	0080      	lsl	r0, r0, #2
  10097e:	18c0      	add	r0, r0, r3
  100980:	1c29      	mov	r1, r5		(add r1, r5, #0)
  100982:	fc2df000 	bl	1011e0 <vListInsertEnd>
  100986:	4a0c      	ldr	r2, [pc, #48]	(1009b8 <.text+0x9b8>)
  100988:	6813      	ldr	r3, [r2, #0]
  10098a:	681b      	ldr	r3, [r3, #0]
  10098c:	2b00      	cmp	r3, #0
  10098e:	d009      	beq	1009a4 <vTaskIncrementTick+0x88>
  100990:	6813      	ldr	r3, [r2, #0]
  100992:	68db      	ldr	r3, [r3, #12]
  100994:	68dc      	ldr	r4, [r3, #12]
  100996:	2c00      	cmp	r4, #0
  100998:	d1d7      	bne	10094a <vTaskIncrementTick+0x2e>
  10099a:	e003      	b	1009a4 <vTaskIncrementTick+0x88>
  10099c:	4a0a      	ldr	r2, [pc, #40]	(1009c8 <.text+0x9c8>)
  10099e:	6813      	ldr	r3, [r2, #0]
  1009a0:	3301      	add	r3, #1
  1009a2:	6013      	str	r3, [r2, #0]
  1009a4:	bc30      	pop	{r4, r5}
  1009a6:	bc01      	pop	{r0}
  1009a8:	4700      	bx	r0
  1009aa:	0000      	lsl	r0, r0, #0
  1009ac:	0ec8      	lsr	r0, r1, #27
  1009ae:	0020      	lsl	r0, r4, #0
  1009b0:	0ebc      	lsr	r4, r7, #26
  1009b2:	0020      	lsl	r0, r4, #0
  1009b4:	0f08      	lsr	r0, r1, #28
  1009b6:	0020      	lsl	r0, r4, #0
  1009b8:	0f0c      	lsr	r4, r1, #28
  1009ba:	0020      	lsl	r0, r4, #0
  1009bc:	0ec0      	lsr	r0, r0, #27
  1009be:	0020      	lsl	r0, r4, #0
  1009c0:	0ec4      	lsr	r4, r0, #27
  1009c2:	0020      	lsl	r0, r4, #0
  1009c4:	0f38      	lsr	r0, r7, #28
  1009c6:	0020      	lsl	r0, r4, #0
  1009c8:	0ecc      	lsr	r4, r1, #27
  1009ca:	0020      	lsl	r0, r4, #0

001009cc <xTaskResumeAll>:
  1009cc:	b570      	push	{r4, r5, r6, lr}
  1009ce:	fcd5f00a 	bl	10b37c <__vPortEnterCritical_from_thumb>
  1009d2:	4b2a      	ldr	r3, [pc, #168]	(100a7c <.text+0xa7c>)
  1009d4:	681a      	ldr	r2, [r3, #0]
  1009d6:	3a01      	sub	r2, #1
  1009d8:	601a      	str	r2, [r3, #0]
  1009da:	681b      	ldr	r3, [r3, #0]
  1009dc:	2b00      	cmp	r3, #0
  1009de:	d145      	bne	100a6c <xTaskResumeAll+0xa0>
  1009e0:	4b27      	ldr	r3, [pc, #156]	(100a80 <.text+0xa80>)
  1009e2:	681b      	ldr	r3, [r3, #0]
  1009e4:	2b00      	cmp	r3, #0
  1009e6:	d041      	beq	100a6c <xTaskResumeAll+0xa0>
  1009e8:	2600      	mov	r6, #0
  1009ea:	e01c      	b	100a26 <xTaskResumeAll+0x5a>
  1009ec:	1c20      	mov	r0, r4		(add r0, r4, #0)
  1009ee:	3018      	add	r0, #24
  1009f0:	1d25      	add	r5, r4, #4
  1009f2:	fc1df000 	bl	101230 <vListRemove>
  1009f6:	1c28      	mov	r0, r5		(add r0, r5, #0)
  1009f8:	fc1af000 	bl	101230 <vListRemove>
  1009fc:	4921      	ldr	r1, [pc, #132]	(100a84 <.text+0xa84>)
  1009fe:	6ae2      	ldr	r2, [r4, #44]
  100a00:	680b      	ldr	r3, [r1, #0]
  100a02:	429a      	cmp	r2, r3
  100a04:	d900      	bls	100a08 <xTaskResumeAll+0x3c>
  100a06:	600a      	str	r2, [r1, #0]
  100a08:	0090      	lsl	r0, r2, #2
  100a0a:	1880      	add	r0, r0, r2
  100a0c:	4b1e      	ldr	r3, [pc, #120]	(100a88 <.text+0xa88>)
  100a0e:	0080      	lsl	r0, r0, #2
  100a10:	18c0      	add	r0, r0, r3
  100a12:	1c29      	mov	r1, r5		(add r1, r5, #0)
  100a14:	fbe4f000 	bl	1011e0 <vListInsertEnd>
  100a18:	4b1c      	ldr	r3, [pc, #112]	(100a8c <.text+0xa8c>)
  100a1a:	681b      	ldr	r3, [r3, #0]
  100a1c:	6ae2      	ldr	r2, [r4, #44]
  100a1e:	6adb      	ldr	r3, [r3, #44]
  100a20:	429a      	cmp	r2, r3
  100a22:	d300      	bcc	100a26 <xTaskResumeAll+0x5a>
  100a24:	2601      	mov	r6, #1
  100a26:	4a1a      	ldr	r2, [pc, #104]	(100a90 <.text+0xa90>)
  100a28:	6813      	ldr	r3, [r2, #0]
  100a2a:	2b00      	cmp	r3, #0
  100a2c:	d003      	beq	100a36 <xTaskResumeAll+0x6a>
  100a2e:	68d3      	ldr	r3, [r2, #12]
  100a30:	68dc      	ldr	r4, [r3, #12]
  100a32:	2c00      	cmp	r4, #0
  100a34:	d1da      	bne	1009ec <xTaskResumeAll+0x20>
  100a36:	4b17      	ldr	r3, [pc, #92]	(100a94 <.text+0xa94>)
  100a38:	681b      	ldr	r3, [r3, #0]
  100a3a:	2b00      	cmp	r3, #0
  100a3c:	d105      	bne	100a4a <xTaskResumeAll+0x7e>
  100a3e:	e009      	b	100a54 <xTaskResumeAll+0x88>
  100a40:	ff6cf7ff 	bl	10091c <vTaskIncrementTick>
  100a44:	6823      	ldr	r3, [r4, #0]
  100a46:	3b01      	sub	r3, #1
  100a48:	6023      	str	r3, [r4, #0]
  100a4a:	4c12      	ldr	r4, [pc, #72]	(100a94 <.text+0xa94>)
  100a4c:	6823      	ldr	r3, [r4, #0]
  100a4e:	2b00      	cmp	r3, #0
  100a50:	d1f6      	bne	100a40 <xTaskResumeAll+0x74>
  100a52:	e005      	b	100a60 <xTaskResumeAll+0x94>
  100a54:	2e01      	cmp	r6, #1
  100a56:	d003      	beq	100a60 <xTaskResumeAll+0x94>
  100a58:	4b0f      	ldr	r3, [pc, #60]	(100a98 <.text+0xa98>)
  100a5a:	681b      	ldr	r3, [r3, #0]
  100a5c:	2b01      	cmp	r3, #1
  100a5e:	d105      	bne	100a6c <xTaskResumeAll+0xa0>
  100a60:	4a0d      	ldr	r2, [pc, #52]	(100a98 <.text+0xa98>)
  100a62:	2300      	mov	r3, #0
  100a64:	6013      	str	r3, [r2, #0]
  100a66:	df00      	swi	0
  100a68:	2401      	mov	r4, #1
  100a6a:	e000      	b	100a6e <xTaskResumeAll+0xa2>
  100a6c:	2400      	mov	r4, #0
  100a6e:	fc89f00a 	bl	10b384 <__vPortExitCritical_from_thumb>
  100a72:	1c20      	mov	r0, r4		(add r0, r4, #0)
  100a74:	bc70      	pop	{r4, r5, r6}
  100a76:	bc02      	pop	{r1}
  100a78:	4708      	bx	r1
  100a7a:	0000      	lsl	r0, r0, #0
  100a7c:	0ec8      	lsr	r0, r1, #27
  100a7e:	0020      	lsl	r0, r4, #0
  100a80:	0ed0      	lsr	r0, r2, #27
  100a82:	0020      	lsl	r0, r4, #0
  100a84:	0ec4      	lsr	r4, r0, #27
  100a86:	0020      	lsl	r0, r4, #0
  100a88:	0f38      	lsr	r0, r7, #28
  100a8a:	0020      	lsl	r0, r4, #0
  100a8c:	0eb4      	lsr	r4, r6, #26
  100a8e:	0020      	lsl	r0, r4, #0
  100a90:	0ef4      	lsr	r4, r6, #27
  100a92:	0020      	lsl	r0, r4, #0
  100a94:	0ecc      	lsr	r4, r1, #27
  100a96:	0020      	lsl	r0, r4, #0
  100a98:	0eb8      	lsr	r0, r7, #26
  100a9a:	0020      	lsl	r0, r4, #0

00100a9c <vTaskDelay>:
  100a9c:	b570      	push	{r4, r5, r6, lr}
  100a9e:	1c06      	mov	r6, r0		(add r6, r0, #0)
  100aa0:	2800      	cmp	r0, #0
  100aa2:	d01a      	beq	100ada <vTaskDelay+0x3e>
  100aa4:	ff2cf7ff 	bl	100900 <vTaskSuspendAll>
  100aa8:	4d0e      	ldr	r5, [pc, #56]	(100ae4 <.text+0xae4>)
  100aaa:	682c      	ldr	r4, [r5, #0]
  100aac:	19a4      	add	r4, r4, r6
  100aae:	4e0e      	ldr	r6, [pc, #56]	(100ae8 <.text+0xae8>)
  100ab0:	6830      	ldr	r0, [r6, #0]
  100ab2:	3004      	add	r0, #4
  100ab4:	fbbcf000 	bl	101230 <vListRemove>
  100ab8:	6833      	ldr	r3, [r6, #0]
  100aba:	605c      	str	r4, [r3, #4]
  100abc:	682b      	ldr	r3, [r5, #0]
  100abe:	429c      	cmp	r4, r3
  100ac0:	d201      	bcs	100ac6 <vTaskDelay+0x2a>
  100ac2:	4b0a      	ldr	r3, [pc, #40]	(100aec <.text+0xaec>)
  100ac4:	e000      	b	100ac8 <vTaskDelay+0x2c>
  100ac6:	4b0a      	ldr	r3, [pc, #40]	(100af0 <.text+0xaf0>)
  100ac8:	6818      	ldr	r0, [r3, #0]
  100aca:	6831      	ldr	r1, [r6, #0]
  100acc:	3104      	add	r1, #4
  100ace:	fb95f000 	bl	1011fc <vListInsert>
  100ad2:	ff7bf7ff 	bl	1009cc <xTaskResumeAll>
  100ad6:	2800      	cmp	r0, #0
  100ad8:	d100      	bne	100adc <vTaskDelay+0x40>
  100ada:	df00      	swi	0
  100adc:	bc70      	pop	{r4, r5, r6}
  100ade:	bc01      	pop	{r0}
  100ae0:	4700      	bx	r0
  100ae2:	0000      	lsl	r0, r0, #0
  100ae4:	0ebc      	lsr	r4, r7, #26
  100ae6:	0020      	lsl	r0, r4, #0
  100ae8:	0eb4      	lsr	r4, r6, #26
  100aea:	0020      	lsl	r0, r4, #0
  100aec:	0f08      	lsr	r0, r1, #28
  100aee:	0020      	lsl	r0, r4, #0
  100af0:	0f0c      	lsr	r4, r1, #28
  100af2:	0020      	lsl	r0, r4, #0

00100af4 <vTaskSwitchContext>:
  100af4:	b510      	push	{r4, lr}
  100af6:	4b24      	ldr	r3, [pc, #144]	(100b88 <.text+0xb88>)
  100af8:	681b      	ldr	r3, [r3, #0]
  100afa:	2b00      	cmp	r3, #0
  100afc:	d006      	beq	100b0c <vTaskSwitchContext+0x18>
  100afe:	4a23      	ldr	r2, [pc, #140]	(100b8c <.text+0xb8c>)
  100b00:	2301      	mov	r3, #1
  100b02:	6013      	str	r3, [r2, #0]
  100b04:	e03d      	b	100b82 <vTaskSwitchContext+0x8e>
  100b06:	6803      	ldr	r3, [r0, #0]
  100b08:	3b01      	sub	r3, #1
  100b0a:	6003      	str	r3, [r0, #0]
  100b0c:	4820      	ldr	r0, [pc, #128]	(100b90 <.text+0xb90>)
  100b0e:	6803      	ldr	r3, [r0, #0]
  100b10:	009a      	lsl	r2, r3, #2
  100b12:	18d2      	add	r2, r2, r3
  100b14:	4c1f      	ldr	r4, [pc, #124]	(100b94 <.text+0xb94>)
  100b16:	0092      	lsl	r2, r2, #2
  100b18:	1912      	add	r2, r2, r4
  100b1a:	6813      	ldr	r3, [r2, #0]
  100b1c:	2b00      	cmp	r3, #0
  100b1e:	d0f2      	beq	100b06 <vTaskSwitchContext+0x12>
  100b20:	6801      	ldr	r1, [r0, #0]
  100b22:	6802      	ldr	r2, [r0, #0]
  100b24:	0093      	lsl	r3, r2, #2
  100b26:	189b      	add	r3, r3, r2
  100b28:	009b      	lsl	r3, r3, #2
  100b2a:	191b      	add	r3, r3, r4
  100b2c:	685b      	ldr	r3, [r3, #4]
  100b2e:	685a      	ldr	r2, [r3, #4]
  100b30:	008b      	lsl	r3, r1, #2
  100b32:	185b      	add	r3, r3, r1
  100b34:	009b      	lsl	r3, r3, #2
  100b36:	191b      	add	r3, r3, r4
  100b38:	605a      	str	r2, [r3, #4]
  100b3a:	6801      	ldr	r1, [r0, #0]
  100b3c:	6803      	ldr	r3, [r0, #0]
  100b3e:	009a      	lsl	r2, r3, #2
  100b40:	18d2      	add	r2, r2, r3
  100b42:	008b      	lsl	r3, r1, #2
  100b44:	185b      	add	r3, r3, r1
  100b46:	009b      	lsl	r3, r3, #2
  100b48:	0092      	lsl	r2, r2, #2
  100b4a:	191b      	add	r3, r3, r4
  100b4c:	1912      	add	r2, r2, r4
  100b4e:	685b      	ldr	r3, [r3, #4]
  100b50:	3208      	add	r2, #8
  100b52:	4293      	cmp	r3, r2
  100b54:	d10c      	bne	100b70 <vTaskSwitchContext+0x7c>
  100b56:	6801      	ldr	r1, [r0, #0]
  100b58:	6802      	ldr	r2, [r0, #0]
  100b5a:	0093      	lsl	r3, r2, #2
  100b5c:	189b      	add	r3, r3, r2
  100b5e:	009b      	lsl	r3, r3, #2
  100b60:	191b      	add	r3, r3, r4
  100b62:	685b      	ldr	r3, [r3, #4]
  100b64:	685a      	ldr	r2, [r3, #4]
  100b66:	008b      	lsl	r3, r1, #2
  100b68:	185b      	add	r3, r3, r1
  100b6a:	009b      	lsl	r3, r3, #2
  100b6c:	191b      	add	r3, r3, r4
  100b6e:	605a      	str	r2, [r3, #4]
  100b70:	6802      	ldr	r2, [r0, #0]
  100b72:	0093      	lsl	r3, r2, #2
  100b74:	189b      	add	r3, r3, r2
  100b76:	009b      	lsl	r3, r3, #2
  100b78:	191b      	add	r3, r3, r4
  100b7a:	685b      	ldr	r3, [r3, #4]
  100b7c:	68da      	ldr	r2, [r3, #12]
  100b7e:	4b06      	ldr	r3, [pc, #24]	(100b98 <.text+0xb98>)
  100b80:	601a      	str	r2, [r3, #0]
  100b82:	bc10      	pop	{r4}
  100b84:	bc01      	pop	{r0}
  100b86:	4700      	bx	r0
  100b88:	0ec8      	lsr	r0, r1, #27
  100b8a:	0020      	lsl	r0, r4, #0
  100b8c:	0eb8      	lsr	r0, r7, #26
  100b8e:	0020      	lsl	r0, r4, #0
  100b90:	0ec4      	lsr	r4, r0, #27
  100b92:	0020      	lsl	r0, r4, #0
  100b94:	0f38      	lsr	r0, r7, #28
  100b96:	0020      	lsl	r0, r4, #0
  100b98:	0eb4      	lsr	r4, r6, #26
  100b9a:	0020      	lsl	r0, r4, #0

00100b9c <vTaskPlaceOnEventList>:
  100b9c:	b5f0      	push	{r4, r5, r6, r7, lr}
  100b9e:	4f0e      	ldr	r7, [pc, #56]	(100bd8 <.text+0xbd8>)
  100ba0:	1c0e      	mov	r6, r1		(add r6, r1, #0)
  100ba2:	6839      	ldr	r1, [r7, #0]
  100ba4:	3118      	add	r1, #24
  100ba6:	fb29f000 	bl	1011fc <vListInsert>
  100baa:	4d0c      	ldr	r5, [pc, #48]	(100bdc <.text+0xbdc>)
  100bac:	682c      	ldr	r4, [r5, #0]
  100bae:	6838      	ldr	r0, [r7, #0]
  100bb0:	3004      	add	r0, #4
  100bb2:	fb3df000 	bl	101230 <vListRemove>
  100bb6:	683b      	ldr	r3, [r7, #0]
  100bb8:	19a4      	add	r4, r4, r6
  100bba:	605c      	str	r4, [r3, #4]
  100bbc:	682b      	ldr	r3, [r5, #0]
  100bbe:	429c      	cmp	r4, r3
  100bc0:	d201      	bcs	100bc6 <vTaskPlaceOnEventList+0x2a>
  100bc2:	4b07      	ldr	r3, [pc, #28]	(100be0 <.text+0xbe0>)
  100bc4:	e000      	b	100bc8 <vTaskPlaceOnEventList+0x2c>
  100bc6:	4b07      	ldr	r3, [pc, #28]	(100be4 <.text+0xbe4>)
  100bc8:	6818      	ldr	r0, [r3, #0]
  100bca:	6839      	ldr	r1, [r7, #0]
  100bcc:	3104      	add	r1, #4
  100bce:	fb15f000 	bl	1011fc <vListInsert>
  100bd2:	bcf0      	pop	{r4, r5, r6, r7}
  100bd4:	bc01      	pop	{r0}
  100bd6:	4700      	bx	r0
  100bd8:	0eb4      	lsr	r4, r6, #26
  100bda:	0020      	lsl	r0, r4, #0
  100bdc:	0ebc      	lsr	r4, r7, #26
  100bde:	0020      	lsl	r0, r4, #0
  100be0:	0f08      	lsr	r0, r1, #28
  100be2:	0020      	lsl	r0, r4, #0
  100be4:	0f0c      	lsr	r4, r1, #28
  100be6:	0020      	lsl	r0, r4, #0

00100be8 <xTaskRemoveFromEventList>:
  100be8:	b530      	push	{r4, r5, lr}
  100bea:	6803      	ldr	r3, [r0, #0]
  100bec:	2b00      	cmp	r3, #0
  100bee:	d101      	bne	100bf4 <xTaskRemoveFromEventList+0xc>
  100bf0:	2500      	mov	r5, #0
  100bf2:	e001      	b	100bf8 <xTaskRemoveFromEventList+0x10>
  100bf4:	68c3      	ldr	r3, [r0, #12]
  100bf6:	68dd      	ldr	r5, [r3, #12]
  100bf8:	1c2c      	mov	r4, r5		(add r4, r5, #0)
  100bfa:	3418      	add	r4, #24
  100bfc:	1c20      	mov	r0, r4		(add r0, r4, #0)
  100bfe:	fb17f000 	bl	101230 <vListRemove>
  100c02:	4b11      	ldr	r3, [pc, #68]	(100c48 <.text+0xc48>)
  100c04:	681b      	ldr	r3, [r3, #0]
  100c06:	2b00      	cmp	r3, #0
  100c08:	d10f      	bne	100c2a <xTaskRemoveFromEventList+0x42>
  100c0a:	1d2c      	add	r4, r5, #4
  100c0c:	1c20      	mov	r0, r4		(add r0, r4, #0)
  100c0e:	fb0ff000 	bl	101230 <vListRemove>
  100c12:	490e      	ldr	r1, [pc, #56]	(100c4c <.text+0xc4c>)
  100c14:	6aea      	ldr	r2, [r5, #44]
  100c16:	680b      	ldr	r3, [r1, #0]
  100c18:	429a      	cmp	r2, r3
  100c1a:	d900      	bls	100c1e <xTaskRemoveFromEventList+0x36>
  100c1c:	600a      	str	r2, [r1, #0]
  100c1e:	0090      	lsl	r0, r2, #2
  100c20:	1880      	add	r0, r0, r2
  100c22:	4b0b      	ldr	r3, [pc, #44]	(100c50 <.text+0xc50>)
  100c24:	0080      	lsl	r0, r0, #2
  100c26:	18c0      	add	r0, r0, r3
  100c28:	e000      	b	100c2c <xTaskRemoveFromEventList+0x44>
  100c2a:	480a      	ldr	r0, [pc, #40]	(100c54 <.text+0xc54>)
  100c2c:	1c21      	mov	r1, r4		(add r1, r4, #0)
  100c2e:	fad7f000 	bl	1011e0 <vListInsertEnd>
  100c32:	4b09      	ldr	r3, [pc, #36]	(100c58 <.text+0xc58>)
  100c34:	681b      	ldr	r3, [r3, #0]
  100c36:	6aea      	ldr	r2, [r5, #44]
  100c38:	6adb      	ldr	r3, [r3, #44]
  100c3a:	2000      	mov	r0, #0
  100c3c:	429a      	cmp	r2, r3
  100c3e:	d300      	bcc	100c42 <xTaskRemoveFromEventList+0x5a>
  100c40:	2001      	mov	r0, #1
  100c42:	bc30      	pop	{r4, r5}
  100c44:	bc02      	pop	{r1}
  100c46:	4708      	bx	r1
  100c48:	0ec8      	lsr	r0, r1, #27
  100c4a:	0020      	lsl	r0, r4, #0
  100c4c:	0ec4      	lsr	r4, r0, #27
  100c4e:	0020      	lsl	r0, r4, #0
  100c50:	0f38      	lsr	r0, r7, #28
  100c52:	0020      	lsl	r0, r4, #0
  100c54:	0ef4      	lsr	r4, r6, #27
  100c56:	0020      	lsl	r0, r4, #0
  100c58:	0eb4      	lsr	r4, r6, #26
  100c5a:	0020      	lsl	r0, r4, #0

00100c5c <vTaskSetTimeOutState>:
  100c5c:	4b03      	ldr	r3, [pc, #12]	(100c6c <.text+0xc6c>)
  100c5e:	681b      	ldr	r3, [r3, #0]
  100c60:	6003      	str	r3, [r0, #0]
  100c62:	4b03      	ldr	r3, [pc, #12]	(100c70 <.text+0xc70>)
  100c64:	681b      	ldr	r3, [r3, #0]
  100c66:	6043      	str	r3, [r0, #4]
  100c68:	4770      	bx	lr
  100c6a:	0000      	lsl	r0, r0, #0
  100c6c:	0ec0      	lsr	r0, r0, #27
  100c6e:	0020      	lsl	r0, r4, #0
  100c70:	0ebc      	lsr	r4, r7, #26
  100c72:	0020      	lsl	r0, r4, #0

00100c74 <vTaskMissedYield>:
  100c74:	4a01      	ldr	r2, [pc, #4]	(100c7c <.text+0xc7c>)
  100c76:	2301      	mov	r3, #1
  100c78:	6013      	str	r3, [r2, #0]
  100c7a:	4770      	bx	lr
  100c7c:	0eb8      	lsr	r0, r7, #26
  100c7e:	0020      	lsl	r0, r4, #0

00100c80 <prvIdleTask>:
  100c80:	4a02      	ldr	r2, [pc, #8]	(100c8c <.text+0xc8c>)
  100c82:	6813      	ldr	r3, [r2, #0]
  100c84:	2b01      	cmp	r3, #1
  100c86:	d9fc      	bls	100c82 <prvIdleTask+0x2>
  100c88:	df00      	swi	0
  100c8a:	e7fa      	b	100c82 <prvIdleTask+0x2>
  100c8c:	0f38      	lsr	r0, r7, #28
  100c8e:	0020      	lsl	r0, r4, #0

00100c90 <xTaskCreate>:
  100c90:	b5f0      	push	{r4, r5, r6, r7, lr}
  100c92:	b084      	sub	sp, #16
  100c94:	9002      	str	r0, [sp, #8]
  100c96:	0412      	lsl	r2, r2, #16
  100c98:	204c      	mov	r0, #76
  100c9a:	9101      	str	r1, [sp, #4]
  100c9c:	9300      	str	r3, [sp, #0]
  100c9e:	9f09      	ldr	r7, [sp, #36]
  100ca0:	0c15      	lsr	r5, r2, #16
  100ca2:	fad5f000 	bl	101250 <pvPortMalloc>
  100ca6:	1c06      	mov	r6, r0		(add r6, r0, #0)
  100ca8:	2800      	cmp	r0, #0
  100caa:	d009      	beq	100cc0 <xTaskCreate+0x30>
  100cac:	00ac      	lsl	r4, r5, #2
  100cae:	1c20      	mov	r0, r4		(add r0, r4, #0)
  100cb0:	facef000 	bl	101250 <pvPortMalloc>
  100cb4:	6330      	str	r0, [r6, #48]
  100cb6:	2800      	cmp	r0, #0
  100cb8:	d105      	bne	100cc6 <xTaskCreate+0x36>
  100cba:	1c30      	mov	r0, r6		(add r0, r6, #0)
  100cbc:	fb22f000 	bl	101304 <vPortFree>
  100cc0:	2001      	mov	r0, #1
  100cc2:	4240      	neg	r0, r0
  100cc4:	e089      	b	100dda <xTaskCreate+0x14a>
  100cc6:	21a5      	mov	r1, #165
  100cc8:	1c22      	mov	r2, r4		(add r2, r4, #0)
  100cca:	fccdf001 	bl	102668 <memset>
  100cce:	1c33      	mov	r3, r6		(add r3, r6, #0)
  100cd0:	3348      	add	r3, #72
  100cd2:	1c30      	mov	r0, r6		(add r0, r6, #0)
  100cd4:	801d      	strh	r5, [r3, #0]
  100cd6:	2210      	mov	r2, #16
  100cd8:	3038      	add	r0, #56
  100cda:	9901      	ldr	r1, [sp, #4]
  100cdc:	fd8ef001 	bl	1027fc <strncpy>
  100ce0:	1c32      	mov	r2, r6		(add r2, r6, #0)
  100ce2:	3247      	add	r2, #71
  100ce4:	2300      	mov	r3, #0
  100ce6:	7013      	strb	r3, [r2, #0]
  100ce8:	2f04      	cmp	r7, #4
  100cea:	d901      	bls	100cf0 <xTaskCreate+0x60>
  100cec:	2404      	mov	r4, #4
  100cee:	e000      	b	100cf2 <xTaskCreate+0x62>
  100cf0:	1c3c      	mov	r4, r7		(add r4, r7, #0)
  100cf2:	1d33      	add	r3, r6, #4
  100cf4:	1c18      	mov	r0, r3		(add r0, r3, #0)
  100cf6:	62f4      	str	r4, [r6, #44]
  100cf8:	9303      	str	r3, [sp, #12]
  100cfa:	fa6df000 	bl	1011d8 <vListInitialiseItem>
  100cfe:	1c30      	mov	r0, r6		(add r0, r6, #0)
  100d00:	3018      	add	r0, #24
  100d02:	fa69f000 	bl	1011d8 <vListInitialiseItem>
  100d06:	2305      	mov	r3, #5
  100d08:	1b1b      	sub	r3, r3, r4
  100d0a:	61b3      	str	r3, [r6, #24]
  100d0c:	6136      	str	r6, [r6, #16]
  100d0e:	6276      	str	r6, [r6, #36]
  100d10:	1c33      	mov	r3, r6		(add r3, r6, #0)
  100d12:	3348      	add	r3, #72
  100d14:	881b      	ldrh	r3, [r3, #0]
  100d16:	6b30      	ldr	r0, [r6, #48]
  100d18:	009b      	lsl	r3, r3, #2
  100d1a:	18c0      	add	r0, r0, r3
  100d1c:	9a00      	ldr	r2, [sp, #0]
  100d1e:	9902      	ldr	r1, [sp, #8]
  100d20:	3804      	sub	r0, #4
  100d22:	fb07f000 	bl	101334 <pxPortInitialiseStack>
  100d26:	6030      	str	r0, [r6, #0]
  100d28:	fb28f00a 	bl	10b37c <__vPortEnterCritical_from_thumb>
  100d2c:	4a2d      	ldr	r2, [pc, #180]	(100de4 <.text+0xde4>)
  100d2e:	6813      	ldr	r3, [r2, #0]
  100d30:	3301      	add	r3, #1
  100d32:	6013      	str	r3, [r2, #0]
  100d34:	6813      	ldr	r3, [r2, #0]
  100d36:	2b01      	cmp	r3, #1
  100d38:	d11c      	bne	100d74 <xTaskCreate+0xe4>
  100d3a:	4b2b      	ldr	r3, [pc, #172]	(100de8 <.text+0xde8>)
  100d3c:	4c2b      	ldr	r4, [pc, #172]	(100dec <.text+0xdec>)
  100d3e:	601e      	str	r6, [r3, #0]
  100d40:	1c20      	mov	r0, r4		(add r0, r4, #0)
  100d42:	fa3df000 	bl	1011c0 <vListInitialise>
  100d46:	4b2a      	ldr	r3, [pc, #168]	(100df0 <.text+0xdf0>)
  100d48:	3414      	add	r4, #20
  100d4a:	429c      	cmp	r4, r3
  100d4c:	d1f8      	bne	100d40 <xTaskCreate+0xb0>
  100d4e:	4d29      	ldr	r5, [pc, #164]	(100df4 <.text+0xdf4>)
  100d50:	1c28      	mov	r0, r5		(add r0, r5, #0)
  100d52:	fa35f000 	bl	1011c0 <vListInitialise>
  100d56:	4c28      	ldr	r4, [pc, #160]	(100df8 <.text+0xdf8>)
  100d58:	1c20      	mov	r0, r4		(add r0, r4, #0)
  100d5a:	fa31f000 	bl	1011c0 <vListInitialise>
  100d5e:	4827      	ldr	r0, [pc, #156]	(100dfc <.text+0xdfc>)
  100d60:	fa2ef000 	bl	1011c0 <vListInitialise>
  100d64:	4826      	ldr	r0, [pc, #152]	(100e00 <.text+0xe00>)
  100d66:	fa2bf000 	bl	1011c0 <vListInitialise>
  100d6a:	4b26      	ldr	r3, [pc, #152]	(100e04 <.text+0xe04>)
  100d6c:	601d      	str	r5, [r3, #0]
  100d6e:	4b26      	ldr	r3, [pc, #152]	(100e08 <.text+0xe08>)
  100d70:	601c      	str	r4, [r3, #0]
  100d72:	e009      	b	100d88 <xTaskCreate+0xf8>
  100d74:	4b25      	ldr	r3, [pc, #148]	(100e0c <.text+0xe0c>)
  100d76:	681b      	ldr	r3, [r3, #0]
  100d78:	2b00      	cmp	r3, #0
  100d7a:	d105      	bne	100d88 <xTaskCreate+0xf8>
  100d7c:	4a1a      	ldr	r2, [pc, #104]	(100de8 <.text+0xde8>)
  100d7e:	6813      	ldr	r3, [r2, #0]
  100d80:	6adb      	ldr	r3, [r3, #44]
  100d82:	42bb      	cmp	r3, r7
  100d84:	d800      	bhi	100d88 <xTaskCreate+0xf8>
  100d86:	6016      	str	r6, [r2, #0]
  100d88:	4a21      	ldr	r2, [pc, #132]	(100e10 <.text+0xe10>)
  100d8a:	6af1      	ldr	r1, [r6, #44]
  100d8c:	6813      	ldr	r3, [r2, #0]
  100d8e:	4299      	cmp	r1, r3
  100d90:	d900      	bls	100d94 <xTaskCreate+0x104>
  100d92:	6011      	str	r1, [r2, #0]
  100d94:	4b1f      	ldr	r3, [pc, #124]	(100e14 <.text+0xe14>)
  100d96:	681a      	ldr	r2, [r3, #0]
  100d98:	6372      	str	r2, [r6, #52]
  100d9a:	3201      	add	r2, #1
  100d9c:	601a      	str	r2, [r3, #0]
  100d9e:	4a1e      	ldr	r2, [pc, #120]	(100e18 <.text+0xe18>)
  100da0:	6813      	ldr	r3, [r2, #0]
  100da2:	4299      	cmp	r1, r3
  100da4:	d900      	bls	100da8 <xTaskCreate+0x118>
  100da6:	6011      	str	r1, [r2, #0]
  100da8:	0088      	lsl	r0, r1, #2
  100daa:	4b10      	ldr	r3, [pc, #64]	(100dec <.text+0xdec>)
  100dac:	1840      	add	r0, r0, r1
  100dae:	0080      	lsl	r0, r0, #2
  100db0:	18c0      	add	r0, r0, r3
  100db2:	9903      	ldr	r1, [sp, #12]
  100db4:	fa14f000 	bl	1011e0 <vListInsertEnd>
  100db8:	fae4f00a 	bl	10b384 <__vPortExitCritical_from_thumb>
  100dbc:	9b0a      	ldr	r3, [sp, #40]
  100dbe:	2b00      	cmp	r3, #0
  100dc0:	d000      	beq	100dc4 <xTaskCreate+0x134>
  100dc2:	601e      	str	r6, [r3, #0]
  100dc4:	4b11      	ldr	r3, [pc, #68]	(100e0c <.text+0xe0c>)
  100dc6:	681b      	ldr	r3, [r3, #0]
  100dc8:	2b00      	cmp	r3, #0
  100dca:	d005      	beq	100dd8 <xTaskCreate+0x148>
  100dcc:	4b06      	ldr	r3, [pc, #24]	(100de8 <.text+0xde8>)
  100dce:	681b      	ldr	r3, [r3, #0]
  100dd0:	6adb      	ldr	r3, [r3, #44]
  100dd2:	42bb      	cmp	r3, r7
  100dd4:	d200      	bcs	100dd8 <xTaskCreate+0x148>
  100dd6:	df00      	swi	0
  100dd8:	2001      	mov	r0, #1
  100dda:	b004      	add	sp, #16
  100ddc:	bcf0      	pop	{r4, r5, r6, r7}
  100dde:	bc02      	pop	{r1}
  100de0:	4708      	bx	r1
  100de2:	0000      	lsl	r0, r0, #0
  100de4:	0ed0      	lsr	r0, r2, #27
  100de6:	0020      	lsl	r0, r4, #0
  100de8:	0eb4      	lsr	r4, r6, #26
  100dea:	0020      	lsl	r0, r4, #0
  100dec:	0f38      	lsr	r0, r7, #28
  100dee:	0020      	lsl	r0, r4, #0
  100df0:	0f9c      	lsr	r4, r3, #30
  100df2:	0020      	lsl	r0, r4, #0
  100df4:	0f24      	lsr	r4, r4, #28
  100df6:	0020      	lsl	r0, r4, #0
  100df8:	0f10      	lsr	r0, r2, #28
  100dfa:	0020      	lsl	r0, r4, #0
  100dfc:	0ef4      	lsr	r4, r6, #27
  100dfe:	0020      	lsl	r0, r4, #0
  100e00:	0ee0      	lsr	r0, r4, #27
  100e02:	0020      	lsl	r0, r4, #0
  100e04:	0f0c      	lsr	r4, r1, #28
  100e06:	0020      	lsl	r0, r4, #0
  100e08:	0f08      	lsr	r0, r1, #28
  100e0a:	0020      	lsl	r0, r4, #0
  100e0c:	0ed4      	lsr	r4, r2, #27
  100e0e:	0020      	lsl	r0, r4, #0
  100e10:	0ed8      	lsr	r0, r3, #27
  100e12:	0020      	lsl	r0, r4, #0
  100e14:	0edc      	lsr	r4, r3, #27
  100e16:	0020      	lsl	r0, r4, #0
  100e18:	0ec4      	lsr	r4, r0, #27
  100e1a:	0020      	lsl	r0, r4, #0

00100e1c <vTaskStartScheduler>:
  100e1c:	b530      	push	{r4, r5, lr}
  100e1e:	b082      	sub	sp, #8
  100e20:	2500      	mov	r5, #0
  100e22:	490b      	ldr	r1, [pc, #44]	(100e50 <.text+0xe50>)
  100e24:	480b      	ldr	r0, [pc, #44]	(100e54 <.text+0xe54>)
  100e26:	2264      	mov	r2, #100
  100e28:	2300      	mov	r3, #0
  100e2a:	9500      	str	r5, [sp, #0]
  100e2c:	9501      	str	r5, [sp, #4]
  100e2e:	ff2ff7ff 	bl	100c90 <xTaskCreate>
  100e32:	1c04      	mov	r4, r0		(add r4, r0, #0)
  100e34:	2801      	cmp	r0, #1
  100e36:	d107      	bne	100e48 <vTaskStartScheduler+0x2c>
  100e38:	faa8f00a 	bl	10b38c <__vPortDisableInterruptsFromThumb_from_thumb>
  100e3c:	4b06      	ldr	r3, [pc, #24]	(100e58 <.text+0xe58>)
  100e3e:	601c      	str	r4, [r3, #0]
  100e40:	4b06      	ldr	r3, [pc, #24]	(100e5c <.text+0xe5c>)
  100e42:	601d      	str	r5, [r3, #0]
  100e44:	fac8f000 	bl	1013d8 <xPortStartScheduler>
  100e48:	b002      	add	sp, #8
  100e4a:	bc30      	pop	{r4, r5}
  100e4c:	bc01      	pop	{r0}
  100e4e:	4700      	bx	r0
  100e50:	b40c      	push	{r2, r3}
  100e52:	0010      	lsl	r0, r2, #0
  100e54:	0c81      	lsr	r1, r0, #18
  100e56:	0010      	lsl	r0, r2, #0
  100e58:	0ed4      	lsr	r4, r2, #27
  100e5a:	0020      	lsl	r0, r4, #0
  100e5c:	0ebc      	lsr	r4, r7, #26
  100e5e:	0020      	lsl	r0, r4, #0

00100e60 <xTaskCheckForTimeOut>:
  100e60:	b570      	push	{r4, r5, r6, lr}
  100e62:	4e10      	ldr	r6, [pc, #64]	(100ea4 <.text+0xea4>)
  100e64:	6803      	ldr	r3, [r0, #0]
  100e66:	6832      	ldr	r2, [r6, #0]
  100e68:	1c04      	mov	r4, r0		(add r4, r0, #0)
  100e6a:	1c0d      	mov	r5, r1		(add r5, r1, #0)
  100e6c:	429a      	cmp	r2, r3
  100e6e:	d004      	beq	100e7a <xTaskCheckForTimeOut+0x1a>
  100e70:	4b0d      	ldr	r3, [pc, #52]	(100ea8 <.text+0xea8>)
  100e72:	681a      	ldr	r2, [r3, #0]
  100e74:	6843      	ldr	r3, [r0, #4]
  100e76:	429a      	cmp	r2, r3
  100e78:	d810      	bhi	100e9c <xTaskCheckForTimeOut+0x3c>
  100e7a:	4a0b      	ldr	r2, [pc, #44]	(100ea8 <.text+0xea8>)
  100e7c:	6860      	ldr	r0, [r4, #4]
  100e7e:	6813      	ldr	r3, [r2, #0]
  100e80:	6829      	ldr	r1, [r5, #0]
  100e82:	1a1b      	sub	r3, r3, r0
  100e84:	428b      	cmp	r3, r1
  100e86:	d209      	bcs	100e9c <xTaskCheckForTimeOut+0x3c>
  100e88:	6813      	ldr	r3, [r2, #0]
  100e8a:	1a1b      	sub	r3, r3, r0
  100e8c:	1acb      	sub	r3, r1, r3
  100e8e:	602b      	str	r3, [r5, #0]
  100e90:	6833      	ldr	r3, [r6, #0]
  100e92:	6023      	str	r3, [r4, #0]
  100e94:	6813      	ldr	r3, [r2, #0]
  100e96:	2000      	mov	r0, #0
  100e98:	6063      	str	r3, [r4, #4]
  100e9a:	e000      	b	100e9e <xTaskCheckForTimeOut+0x3e>
  100e9c:	2001      	mov	r0, #1
  100e9e:	bc70      	pop	{r4, r5, r6}
  100ea0:	bc02      	pop	{r1}
  100ea2:	4708      	bx	r1
  100ea4:	0ec0      	lsr	r0, r0, #27
  100ea6:	0020      	lsl	r0, r4, #0
  100ea8:	0ebc      	lsr	r4, r7, #26
  100eaa:	0020      	lsl	r0, r4, #0

00100eac <xQueueCreate>:
  100eac:	b5f0      	push	{r4, r5, r6, r7, lr}
  100eae:	1c05      	mov	r5, r0		(add r5, r0, #0)
  100eb0:	1c0f      	mov	r7, r1		(add r7, r1, #0)
  100eb2:	2800      	cmp	r0, #0
  100eb4:	d028      	beq	100f08 <xQueueCreate+0x5c>
  100eb6:	204c      	mov	r0, #76
  100eb8:	f9caf000 	bl	101250 <pvPortMalloc>
  100ebc:	1c04      	mov	r4, r0		(add r4, r0, #0)
  100ebe:	2800      	cmp	r0, #0
  100ec0:	d022      	beq	100f08 <xQueueCreate+0x5c>
  100ec2:	1c3e      	mov	r6, r7		(add r6, r7, #0)
  100ec4:	436e      	mul	r6, r5
  100ec6:	1c70      	add	r0, r6, #1
  100ec8:	f9c2f000 	bl	101250 <pvPortMalloc>
  100ecc:	6020      	str	r0, [r4, #0]
  100ece:	2800      	cmp	r0, #0
  100ed0:	d017      	beq	100f02 <xQueueCreate+0x56>
  100ed2:	1983      	add	r3, r0, r6
  100ed4:	6063      	str	r3, [r4, #4]
  100ed6:	2300      	mov	r3, #0
  100ed8:	63a3      	str	r3, [r4, #56]
  100eda:	1e6b      	sub	r3, r5, #1
  100edc:	437b      	mul	r3, r7
  100ede:	18c3      	add	r3, r0, r3
  100ee0:	60e3      	str	r3, [r4, #12]
  100ee2:	2301      	mov	r3, #1
  100ee4:	425b      	neg	r3, r3
  100ee6:	60a0      	str	r0, [r4, #8]
  100ee8:	1c20      	mov	r0, r4		(add r0, r4, #0)
  100eea:	63e5      	str	r5, [r4, #60]
  100eec:	6427      	str	r7, [r4, #64]
  100eee:	6463      	str	r3, [r4, #68]
  100ef0:	64a3      	str	r3, [r4, #72]
  100ef2:	3010      	add	r0, #16
  100ef4:	f964f000 	bl	1011c0 <vListInitialise>
  100ef8:	1c20      	mov	r0, r4		(add r0, r4, #0)
  100efa:	3024      	add	r0, #36
  100efc:	f960f000 	bl	1011c0 <vListInitialise>
  100f00:	e003      	b	100f0a <xQueueCreate+0x5e>
  100f02:	1c20      	mov	r0, r4		(add r0, r4, #0)
  100f04:	f9fef000 	bl	101304 <vPortFree>
  100f08:	2400      	mov	r4, #0
  100f0a:	1c20      	mov	r0, r4		(add r0, r4, #0)
  100f0c:	bcf0      	pop	{r4, r5, r6, r7}
  100f0e:	bc02      	pop	{r1}
  100f10:	4708      	bx	r1
  100f12:	46c0      	nop			(mov r8, r8)

00100f14 <xQueueSendFromISR>:
  100f14:	b530      	push	{r4, r5, lr}
  100f16:	1c15      	mov	r5, r2		(add r5, r2, #0)
  100f18:	6bc3      	ldr	r3, [r0, #60]
  100f1a:	6b82      	ldr	r2, [r0, #56]
  100f1c:	1c04      	mov	r4, r0		(add r4, r0, #0)
  100f1e:	429a      	cmp	r2, r3
  100f20:	d223      	bcs	100f6a <xQueueSendFromISR+0x56>
  100f22:	6c22      	ldr	r2, [r4, #64]
  100f24:	6880      	ldr	r0, [r0, #8]
  100f26:	fb6bf001 	bl	102600 <memcpy>
  100f2a:	6ba3      	ldr	r3, [r4, #56]
  100f2c:	3301      	add	r3, #1
  100f2e:	6c22      	ldr	r2, [r4, #64]
  100f30:	63a3      	str	r3, [r4, #56]
  100f32:	68a3      	ldr	r3, [r4, #8]
  100f34:	189b      	add	r3, r3, r2
  100f36:	6862      	ldr	r2, [r4, #4]
  100f38:	60a3      	str	r3, [r4, #8]
  100f3a:	4293      	cmp	r3, r2
  100f3c:	d301      	bcc	100f42 <xQueueSendFromISR+0x2e>
  100f3e:	6823      	ldr	r3, [r4, #0]
  100f40:	60a3      	str	r3, [r4, #8]
  100f42:	6ca3      	ldr	r3, [r4, #72]
  100f44:	1c5a      	add	r2, r3, #1
  100f46:	d10c      	bne	100f62 <xQueueSendFromISR+0x4e>
  100f48:	2d00      	cmp	r5, #0
  100f4a:	d10e      	bne	100f6a <xQueueSendFromISR+0x56>
  100f4c:	6a63      	ldr	r3, [r4, #36]
  100f4e:	2b00      	cmp	r3, #0
  100f50:	d00a      	beq	100f68 <xQueueSendFromISR+0x54>
  100f52:	1c20      	mov	r0, r4		(add r0, r4, #0)
  100f54:	3024      	add	r0, #36
  100f56:	fe47f7ff 	bl	100be8 <xTaskRemoveFromEventList>
  100f5a:	2800      	cmp	r0, #0
  100f5c:	d004      	beq	100f68 <xQueueSendFromISR+0x54>
  100f5e:	2501      	mov	r5, #1
  100f60:	e003      	b	100f6a <xQueueSendFromISR+0x56>
  100f62:	3301      	add	r3, #1
  100f64:	64a3      	str	r3, [r4, #72]
  100f66:	e000      	b	100f6a <xQueueSendFromISR+0x56>
  100f68:	2500      	mov	r5, #0
  100f6a:	1c28      	mov	r0, r5		(add r0, r5, #0)
  100f6c:	bc30      	pop	{r4, r5}
  100f6e:	bc02      	pop	{r1}
  100f70:	4708      	bx	r1
  100f72:	46c0      	nop			(mov r8, r8)

00100f74 <uxQueueMessagesWaiting>:
  100f74:	b510      	push	{r4, lr}
  100f76:	1c04      	mov	r4, r0		(add r4, r0, #0)
  100f78:	fa00f00a 	bl	10b37c <__vPortEnterCritical_from_thumb>
  100f7c:	6ba4      	ldr	r4, [r4, #56]
  100f7e:	fa01f00a 	bl	10b384 <__vPortExitCritical_from_thumb>
  100f82:	1c20      	mov	r0, r4		(add r0, r4, #0)
  100f84:	bc10      	pop	{r4}
  100f86:	bc02      	pop	{r1}
  100f88:	4708      	bx	r1
  100f8a:	46c0      	nop			(mov r8, r8)

00100f8c <prvUnlockQueue>:
  100f8c:	b510      	push	{r4, lr}
  100f8e:	1c04      	mov	r4, r0		(add r4, r0, #0)
  100f90:	f9f4f00a 	bl	10b37c <__vPortEnterCritical_from_thumb>
  100f94:	6ca3      	ldr	r3, [r4, #72]
  100f96:	3b01      	sub	r3, #1
  100f98:	64a3      	str	r3, [r4, #72]
  100f9a:	3301      	add	r3, #1
  100f9c:	dd0d      	ble	100fba <prvUnlockQueue+0x2e>
  100f9e:	2301      	mov	r3, #1
  100fa0:	425b      	neg	r3, r3
  100fa2:	64a3      	str	r3, [r4, #72]
  100fa4:	6a63      	ldr	r3, [r4, #36]
  100fa6:	2b00      	cmp	r3, #0
  100fa8:	d007      	beq	100fba <prvUnlockQueue+0x2e>
  100faa:	1c20      	mov	r0, r4		(add r0, r4, #0)
  100fac:	3024      	add	r0, #36
  100fae:	fe1bf7ff 	bl	100be8 <xTaskRemoveFromEventList>
  100fb2:	2800      	cmp	r0, #0
  100fb4:	d001      	beq	100fba <prvUnlockQueue+0x2e>
  100fb6:	fe5df7ff 	bl	100c74 <vTaskMissedYield>
  100fba:	f9e3f00a 	bl	10b384 <__vPortExitCritical_from_thumb>
  100fbe:	f9ddf00a 	bl	10b37c <__vPortEnterCritical_from_thumb>
  100fc2:	6c63      	ldr	r3, [r4, #68]
  100fc4:	3b01      	sub	r3, #1
  100fc6:	6463      	str	r3, [r4, #68]
  100fc8:	3301      	add	r3, #1
  100fca:	dd0d      	ble	100fe8 <prvUnlockQueue+0x5c>
  100fcc:	2301      	mov	r3, #1
  100fce:	425b      	neg	r3, r3
  100fd0:	6463      	str	r3, [r4, #68]
  100fd2:	6923      	ldr	r3, [r4, #16]
  100fd4:	2b00      	cmp	r3, #0
  100fd6:	d007      	beq	100fe8 <prvUnlockQueue+0x5c>
  100fd8:	1c20      	mov	r0, r4		(add r0, r4, #0)
  100fda:	3010      	add	r0, #16
  100fdc:	fe04f7ff 	bl	100be8 <xTaskRemoveFromEventList>
  100fe0:	2800      	cmp	r0, #0
  100fe2:	d001      	beq	100fe8 <prvUnlockQueue+0x5c>
  100fe4:	fe46f7ff 	bl	100c74 <vTaskMissedYield>
  100fe8:	f9ccf00a 	bl	10b384 <__vPortExitCritical_from_thumb>
  100fec:	bc10      	pop	{r4}
  100fee:	bc01      	pop	{r0}
  100ff0:	4700      	bx	r0
  100ff2:	46c0      	nop			(mov r8, r8)

00100ff4 <xQueueReceive>:
  100ff4:	b570      	push	{r4, r5, r6, lr}
  100ff6:	b083      	sub	sp, #12
  100ff8:	1c05      	mov	r5, r0		(add r5, r0, #0)
  100ffa:	1c0e      	mov	r6, r1		(add r6, r1, #0)
  100ffc:	9200      	str	r2, [sp, #0]
  100ffe:	fc7ff7ff 	bl	100900 <vTaskSuspendAll>
  101002:	a801      	add	r0, sp, #4
  101004:	fe2af7ff 	bl	100c5c <vTaskSetTimeOutState>
  101008:	f9b8f00a 	bl	10b37c <__vPortEnterCritical_from_thumb>
  10100c:	6c6b      	ldr	r3, [r5, #68]
  10100e:	3301      	add	r3, #1
  101010:	646b      	str	r3, [r5, #68]
  101012:	6cab      	ldr	r3, [r5, #72]
  101014:	3301      	add	r3, #1
  101016:	64ab      	str	r3, [r5, #72]
  101018:	f9b4f00a 	bl	10b384 <__vPortExitCritical_from_thumb>
  10101c:	f9aef00a 	bl	10b37c <__vPortEnterCritical_from_thumb>
  101020:	6bac      	ldr	r4, [r5, #56]
  101022:	f9aff00a 	bl	10b384 <__vPortExitCritical_from_thumb>
  101026:	2c00      	cmp	r4, #0
  101028:	d11e      	bne	101068 <xQueueReceive+0x74>
  10102a:	9900      	ldr	r1, [sp, #0]
  10102c:	2900      	cmp	r1, #0
  10102e:	d01b      	beq	101068 <xQueueReceive+0x74>
  101030:	1c28      	mov	r0, r5		(add r0, r5, #0)
  101032:	3024      	add	r0, #36
  101034:	fdb2f7ff 	bl	100b9c <vTaskPlaceOnEventList>
  101038:	f9a0f00a 	bl	10b37c <__vPortEnterCritical_from_thumb>
  10103c:	1c28      	mov	r0, r5		(add r0, r5, #0)
  10103e:	ffa5f7ff 	bl	100f8c <prvUnlockQueue>
  101042:	fcc3f7ff 	bl	1009cc <xTaskResumeAll>
  101046:	2800      	cmp	r0, #0
  101048:	d100      	bne	10104c <xQueueReceive+0x58>
  10104a:	df00      	swi	0
  10104c:	fc58f7ff 	bl	100900 <vTaskSuspendAll>
  101050:	f994f00a 	bl	10b37c <__vPortEnterCritical_from_thumb>
  101054:	6c6b      	ldr	r3, [r5, #68]
  101056:	3301      	add	r3, #1
  101058:	646b      	str	r3, [r5, #68]
  10105a:	6cab      	ldr	r3, [r5, #72]
  10105c:	3301      	add	r3, #1
  10105e:	64ab      	str	r3, [r5, #72]
  101060:	f990f00a 	bl	10b384 <__vPortExitCritical_from_thumb>
  101064:	f98ef00a 	bl	10b384 <__vPortExitCritical_from_thumb>
  101068:	f988f00a 	bl	10b37c <__vPortEnterCritical_from_thumb>
  10106c:	6bab      	ldr	r3, [r5, #56]
  10106e:	2b00      	cmp	r3, #0
  101070:	d101      	bne	101076 <xQueueReceive+0x82>
  101072:	2400      	mov	r4, #0
  101074:	e014      	b	1010a0 <xQueueReceive+0xac>
  101076:	68eb      	ldr	r3, [r5, #12]
  101078:	6c2a      	ldr	r2, [r5, #64]
  10107a:	189b      	add	r3, r3, r2
  10107c:	686a      	ldr	r2, [r5, #4]
  10107e:	60eb      	str	r3, [r5, #12]
  101080:	4293      	cmp	r3, r2
  101082:	d301      	bcc	101088 <xQueueReceive+0x94>
  101084:	682b      	ldr	r3, [r5, #0]
  101086:	60eb      	str	r3, [r5, #12]
  101088:	6bab      	ldr	r3, [r5, #56]
  10108a:	3b01      	sub	r3, #1
  10108c:	63ab      	str	r3, [r5, #56]
  10108e:	68e9      	ldr	r1, [r5, #12]
  101090:	6c2a      	ldr	r2, [r5, #64]
  101092:	1c30      	mov	r0, r6		(add r0, r6, #0)
  101094:	fab4f001 	bl	102600 <memcpy>
  101098:	6c6b      	ldr	r3, [r5, #68]
  10109a:	3301      	add	r3, #1
  10109c:	646b      	str	r3, [r5, #68]
  10109e:	2401      	mov	r4, #1
  1010a0:	f970f00a 	bl	10b384 <__vPortExitCritical_from_thumb>
  1010a4:	2c00      	cmp	r4, #0
  1010a6:	d109      	bne	1010bc <xQueueReceive+0xc8>
  1010a8:	9b00      	ldr	r3, [sp, #0]
  1010aa:	2b00      	cmp	r3, #0
  1010ac:	d009      	beq	1010c2 <xQueueReceive+0xce>
  1010ae:	a801      	add	r0, sp, #4
  1010b0:	4669      	mov	r1, sp
  1010b2:	fed5f7ff 	bl	100e60 <xTaskCheckForTimeOut>
  1010b6:	2800      	cmp	r0, #0
  1010b8:	d0b0      	beq	10101c <xQueueReceive+0x28>
  1010ba:	e002      	b	1010c2 <xQueueReceive+0xce>
  1010bc:	1c63      	add	r3, r4, #1
  1010be:	d0ad      	beq	10101c <xQueueReceive+0x28>
  1010c0:	e000      	b	1010c4 <xQueueReceive+0xd0>
  1010c2:	2400      	mov	r4, #0
  1010c4:	1c28      	mov	r0, r5		(add r0, r5, #0)
  1010c6:	ff61f7ff 	bl	100f8c <prvUnlockQueue>
  1010ca:	fc7ff7ff 	bl	1009cc <xTaskResumeAll>
  1010ce:	1c20      	mov	r0, r4		(add r0, r4, #0)
  1010d0:	b003      	add	sp, #12
  1010d2:	bc70      	pop	{r4, r5, r6}
  1010d4:	bc02      	pop	{r1}
  1010d6:	4708      	bx	r1

001010d8 <xQueueSend>:
  1010d8:	b5f0      	push	{r4, r5, r6, r7, lr}
  1010da:	b083      	sub	sp, #12
  1010dc:	1c06      	mov	r6, r0		(add r6, r0, #0)
  1010de:	1c0f      	mov	r7, r1		(add r7, r1, #0)
  1010e0:	9200      	str	r2, [sp, #0]
  1010e2:	fc0df7ff 	bl	100900 <vTaskSuspendAll>
  1010e6:	a801      	add	r0, sp, #4
  1010e8:	fdb8f7ff 	bl	100c5c <vTaskSetTimeOutState>
  1010ec:	f946f00a 	bl	10b37c <__vPortEnterCritical_from_thumb>
  1010f0:	6c73      	ldr	r3, [r6, #68]
  1010f2:	3301      	add	r3, #1
  1010f4:	6473      	str	r3, [r6, #68]
  1010f6:	6cb3      	ldr	r3, [r6, #72]
  1010f8:	3301      	add	r3, #1
  1010fa:	64b3      	str	r3, [r6, #72]
  1010fc:	f942f00a 	bl	10b384 <__vPortExitCritical_from_thumb>
  101100:	f93cf00a 	bl	10b37c <__vPortEnterCritical_from_thumb>
  101104:	6bb5      	ldr	r5, [r6, #56]
  101106:	6bf4      	ldr	r4, [r6, #60]
  101108:	f93cf00a 	bl	10b384 <__vPortExitCritical_from_thumb>
  10110c:	42a5      	cmp	r5, r4
  10110e:	d11e      	bne	10114e <xQueueSend+0x76>
  101110:	9900      	ldr	r1, [sp, #0]
  101112:	2900      	cmp	r1, #0
  101114:	d01b      	beq	10114e <xQueueSend+0x76>
  101116:	1c30      	mov	r0, r6		(add r0, r6, #0)
  101118:	3010      	add	r0, #16
  10111a:	fd3ff7ff 	bl	100b9c <vTaskPlaceOnEventList>
  10111e:	f92df00a 	bl	10b37c <__vPortEnterCritical_from_thumb>
  101122:	1c30      	mov	r0, r6		(add r0, r6, #0)
  101124:	ff32f7ff 	bl	100f8c <prvUnlockQueue>
  101128:	fc50f7ff 	bl	1009cc <xTaskResumeAll>
  10112c:	2800      	cmp	r0, #0
  10112e:	d100      	bne	101132 <xQueueSend+0x5a>
  101130:	df00      	swi	0
  101132:	fbe5f7ff 	bl	100900 <vTaskSuspendAll>
  101136:	f921f00a 	bl	10b37c <__vPortEnterCritical_from_thumb>
  10113a:	6c73      	ldr	r3, [r6, #68]
  10113c:	3301      	add	r3, #1
  10113e:	6473      	str	r3, [r6, #68]
  101140:	6cb3      	ldr	r3, [r6, #72]
  101142:	3301      	add	r3, #1
  101144:	64b3      	str	r3, [r6, #72]
  101146:	f91df00a 	bl	10b384 <__vPortExitCritical_from_thumb>
  10114a:	f91bf00a 	bl	10b384 <__vPortExitCritical_from_thumb>
  10114e:	f915f00a 	bl	10b37c <__vPortEnterCritical_from_thumb>
  101152:	6bb2      	ldr	r2, [r6, #56]
  101154:	6bf3      	ldr	r3, [r6, #60]
  101156:	429a      	cmp	r2, r3
  101158:	d301      	bcc	10115e <xQueueSend+0x86>
  10115a:	2400      	mov	r4, #0
  10115c:	e014      	b	101188 <xQueueSend+0xb0>
  10115e:	6c32      	ldr	r2, [r6, #64]
  101160:	68b0      	ldr	r0, [r6, #8]
  101162:	1c39      	mov	r1, r7		(add r1, r7, #0)
  101164:	fa4cf001 	bl	102600 <memcpy>
  101168:	6bb3      	ldr	r3, [r6, #56]
  10116a:	3301      	add	r3, #1
  10116c:	6c32      	ldr	r2, [r6, #64]
  10116e:	63b3      	str	r3, [r6, #56]
  101170:	68b3      	ldr	r3, [r6, #8]
  101172:	189b      	add	r3, r3, r2
  101174:	6872      	ldr	r2, [r6, #4]
  101176:	60b3      	str	r3, [r6, #8]
  101178:	4293      	cmp	r3, r2
  10117a:	d301      	bcc	101180 <xQueueSend+0xa8>
  10117c:	6833      	ldr	r3, [r6, #0]
  10117e:	60b3      	str	r3, [r6, #8]
  101180:	6cb3      	ldr	r3, [r6, #72]
  101182:	3301      	add	r3, #1
  101184:	64b3      	str	r3, [r6, #72]
  101186:	2401      	mov	r4, #1
  101188:	f8fcf00a 	bl	10b384 <__vPortExitCritical_from_thumb>
  10118c:	2c00      	cmp	r4, #0
  10118e:	d109      	bne	1011a4 <xQueueSend+0xcc>
  101190:	9b00      	ldr	r3, [sp, #0]
  101192:	2b00      	cmp	r3, #0
  101194:	d009      	beq	1011aa <xQueueSend+0xd2>
  101196:	a801      	add	r0, sp, #4
  101198:	4669      	mov	r1, sp
  10119a:	fe61f7ff 	bl	100e60 <xTaskCheckForTimeOut>
  10119e:	2800      	cmp	r0, #0
  1011a0:	d0ae      	beq	101100 <xQueueSend+0x28>
  1011a2:	e002      	b	1011aa <xQueueSend+0xd2>
  1011a4:	1c63      	add	r3, r4, #1
  1011a6:	d0ab      	beq	101100 <xQueueSend+0x28>
  1011a8:	e000      	b	1011ac <xQueueSend+0xd4>
  1011aa:	2400      	mov	r4, #0
  1011ac:	1c30      	mov	r0, r6		(add r0, r6, #0)
  1011ae:	feedf7ff 	bl	100f8c <prvUnlockQueue>
  1011b2:	fc0bf7ff 	bl	1009cc <xTaskResumeAll>
  1011b6:	1c20      	mov	r0, r4		(add r0, r4, #0)
  1011b8:	b003      	add	sp, #12
  1011ba:	bcf0      	pop	{r4, r5, r6, r7}
  1011bc:	bc02      	pop	{r1}
  1011be:	4708      	bx	r1

001011c0 <vListInitialise>:
  1011c0:	2301      	mov	r3, #1
  1011c2:	1c02      	mov	r2, r0		(add r2, r0, #0)
  1011c4:	425b      	neg	r3, r3
  1011c6:	6083      	str	r3, [r0, #8]
  1011c8:	3208      	add	r2, #8
  1011ca:	2300      	mov	r3, #0
  1011cc:	60c2      	str	r2, [r0, #12]
  1011ce:	6102      	str	r2, [r0, #16]
  1011d0:	6042      	str	r2, [r0, #4]
  1011d2:	6003      	str	r3, [r0, #0]
  1011d4:	4770      	bx	lr
  1011d6:	46c0      	nop			(mov r8, r8)

001011d8 <vListInitialiseItem>:
  1011d8:	2300      	mov	r3, #0
  1011da:	6103      	str	r3, [r0, #16]
  1011dc:	4770      	bx	lr
  1011de:	46c0      	nop			(mov r8, r8)

001011e0 <vListInsertEnd>:
  1011e0:	6842      	ldr	r2, [r0, #4]
  1011e2:	6853      	ldr	r3, [r2, #4]
  1011e4:	604b      	str	r3, [r1, #4]
  1011e6:	6853      	ldr	r3, [r2, #4]
  1011e8:	608a      	str	r2, [r1, #8]
  1011ea:	6099      	str	r1, [r3, #8]
  1011ec:	6051      	str	r1, [r2, #4]
  1011ee:	6803      	ldr	r3, [r0, #0]
  1011f0:	3301      	add	r3, #1
  1011f2:	6041      	str	r1, [r0, #4]
  1011f4:	6108      	str	r0, [r1, #16]
  1011f6:	6003      	str	r3, [r0, #0]
  1011f8:	4770      	bx	lr
  1011fa:	46c0      	nop			(mov r8, r8)

001011fc <vListInsert>:
  1011fc:	b510      	push	{r4, lr}
  1011fe:	680c      	ldr	r4, [r1, #0]
  101200:	1c63      	add	r3, r4, #1
  101202:	d101      	bne	101208 <vListInsert+0xc>
  101204:	6902      	ldr	r2, [r0, #16]
  101206:	e007      	b	101218 <vListInsert+0x1c>
  101208:	1c02      	mov	r2, r0		(add r2, r0, #0)
  10120a:	3208      	add	r2, #8
  10120c:	e000      	b	101210 <vListInsert+0x14>
  10120e:	6852      	ldr	r2, [r2, #4]
  101210:	6853      	ldr	r3, [r2, #4]
  101212:	681b      	ldr	r3, [r3, #0]
  101214:	42a3      	cmp	r3, r4
  101216:	d9fa      	bls	10120e <vListInsert+0x12>
  101218:	6853      	ldr	r3, [r2, #4]
  10121a:	6099      	str	r1, [r3, #8]
  10121c:	604b      	str	r3, [r1, #4]
  10121e:	6051      	str	r1, [r2, #4]
  101220:	6803      	ldr	r3, [r0, #0]
  101222:	3301      	add	r3, #1
  101224:	608a      	str	r2, [r1, #8]
  101226:	6108      	str	r0, [r1, #16]
  101228:	6003      	str	r3, [r0, #0]
  10122a:	bc10      	pop	{r4}
  10122c:	bc01      	pop	{r0}
  10122e:	4700      	bx	r0

00101230 <vListRemove>:
  101230:	6843      	ldr	r3, [r0, #4]
  101232:	6882      	ldr	r2, [r0, #8]
  101234:	609a      	str	r2, [r3, #8]
  101236:	6881      	ldr	r1, [r0, #8]
  101238:	6902      	ldr	r2, [r0, #16]
  10123a:	604b      	str	r3, [r1, #4]
  10123c:	6853      	ldr	r3, [r2, #4]
  10123e:	4283      	cmp	r3, r0
  101240:	d100      	bne	101244 <vListRemove+0x14>
  101242:	6051      	str	r1, [r2, #4]
  101244:	2300      	mov	r3, #0
  101246:	6103      	str	r3, [r0, #16]
  101248:	6813      	ldr	r3, [r2, #0]
  10124a:	3b01      	sub	r3, #1
  10124c:	6013      	str	r3, [r2, #0]
  10124e:	4770      	bx	lr

00101250 <pvPortMalloc>:
  101250:	b530      	push	{r4, r5, lr}
  101252:	1c04      	mov	r4, r0		(add r4, r0, #0)
  101254:	fb54f7ff 	bl	100900 <vTaskSuspendAll>
  101258:	4d24      	ldr	r5, [pc, #144]	(1012ec <.text+0x12ec>)
  10125a:	6828      	ldr	r0, [r5, #0]
  10125c:	2800      	cmp	r0, #0
  10125e:	d10b      	bne	101278 <pvPortMalloc+0x28>
  101260:	4923      	ldr	r1, [pc, #140]	(1012f0 <.text+0x12f0>)
  101262:	4b24      	ldr	r3, [pc, #144]	(1012f4 <.text+0x12f4>)
  101264:	4a24      	ldr	r2, [pc, #144]	(1012f8 <.text+0x12f8>)
  101266:	6019      	str	r1, [r3, #0]
  101268:	6058      	str	r0, [r3, #4]
  10126a:	4b24      	ldr	r3, [pc, #144]	(1012fc <.text+0x12fc>)
  10126c:	605a      	str	r2, [r3, #4]
  10126e:	6018      	str	r0, [r3, #0]
  101270:	600b      	str	r3, [r1, #0]
  101272:	2301      	mov	r3, #1
  101274:	604a      	str	r2, [r1, #4]
  101276:	602b      	str	r3, [r5, #0]
  101278:	2c00      	cmp	r4, #0
  10127a:	d005      	beq	101288 <pvPortMalloc+0x38>
  10127c:	3408      	add	r4, #8
  10127e:	2303      	mov	r3, #3
  101280:	421c      	tst	r4, r3
  101282:	d001      	beq	101288 <pvPortMalloc+0x38>
  101284:	439c      	bic	r4, r3
  101286:	3404      	add	r4, #4
  101288:	4b1d      	ldr	r3, [pc, #116]	(101300 <.text+0x1300>)
  10128a:	1e62      	sub	r2, r4, #1
  10128c:	429a      	cmp	r2, r3
  10128e:	d825      	bhi	1012dc <pvPortMalloc+0x8c>
  101290:	4b18      	ldr	r3, [pc, #96]	(1012f4 <.text+0x12f4>)
  101292:	681a      	ldr	r2, [r3, #0]
  101294:	1c19      	mov	r1, r3		(add r1, r3, #0)
  101296:	6853      	ldr	r3, [r2, #4]
  101298:	42a3      	cmp	r3, r4
  10129a:	d205      	bcs	1012a8 <pvPortMalloc+0x58>
  10129c:	6813      	ldr	r3, [r2, #0]
  10129e:	2b00      	cmp	r3, #0
  1012a0:	d002      	beq	1012a8 <pvPortMalloc+0x58>
  1012a2:	1c11      	mov	r1, r2		(add r1, r2, #0)
  1012a4:	1c1a      	mov	r2, r3		(add r2, r3, #0)
  1012a6:	e7f6      	b	101296 <pvPortMalloc+0x46>
  1012a8:	4b14      	ldr	r3, [pc, #80]	(1012fc <.text+0x12fc>)
  1012aa:	429a      	cmp	r2, r3
  1012ac:	d016      	beq	1012dc <pvPortMalloc+0x8c>
  1012ae:	680b      	ldr	r3, [r1, #0]
  1012b0:	1c1d      	mov	r5, r3		(add r5, r3, #0)
  1012b2:	6813      	ldr	r3, [r2, #0]
  1012b4:	600b      	str	r3, [r1, #0]
  1012b6:	6853      	ldr	r3, [r2, #4]
  1012b8:	1b1b      	sub	r3, r3, r4
  1012ba:	3508      	add	r5, #8
  1012bc:	2b10      	cmp	r3, #16
  1012be:	d90e      	bls	1012de <pvPortMalloc+0x8e>
  1012c0:	1910      	add	r0, r2, r4
  1012c2:	6043      	str	r3, [r0, #4]
  1012c4:	6054      	str	r4, [r2, #4]
  1012c6:	490b      	ldr	r1, [pc, #44]	(1012f4 <.text+0x12f4>)
  1012c8:	6844      	ldr	r4, [r0, #4]
  1012ca:	680a      	ldr	r2, [r1, #0]
  1012cc:	6853      	ldr	r3, [r2, #4]
  1012ce:	42a3      	cmp	r3, r4
  1012d0:	d201      	bcs	1012d6 <pvPortMalloc+0x86>
  1012d2:	1c11      	mov	r1, r2		(add r1, r2, #0)
  1012d4:	e7f9      	b	1012ca <pvPortMalloc+0x7a>
  1012d6:	6002      	str	r2, [r0, #0]
  1012d8:	6008      	str	r0, [r1, #0]
  1012da:	e000      	b	1012de <pvPortMalloc+0x8e>
  1012dc:	2500      	mov	r5, #0
  1012de:	fb75f7ff 	bl	1009cc <xTaskResumeAll>
  1012e2:	1c28      	mov	r0, r5		(add r0, r5, #0)
  1012e4:	bc30      	pop	{r4, r5}
  1012e6:	bc02      	pop	{r1}
  1012e8:	4708      	bx	r1
  1012ea:	0000      	lsl	r0, r0, #0
  1012ec:	0f9c      	lsr	r4, r3, #30
  1012ee:	0020      	lsl	r0, r4, #0
  1012f0:	0fb4      	lsr	r4, r6, #30
  1012f2:	0020      	lsl	r0, r4, #0
  1012f4:	0fa8      	lsr	r0, r5, #30
  1012f6:	0020      	lsl	r0, r4, #0
  1012f8:	2710      	mov	r7, #16
  1012fa:	0000      	lsl	r0, r0, #0
  1012fc:	0fa0      	lsr	r0, r4, #30
  1012fe:	0020      	lsl	r0, r4, #0
  101300:	270e      	mov	r7, #14
	...

00101304 <vPortFree>:
  101304:	b510      	push	{r4, lr}
  101306:	2800      	cmp	r0, #0
  101308:	d00f      	beq	10132a <vPortFree+0x26>
  10130a:	1c04      	mov	r4, r0		(add r4, r0, #0)
  10130c:	3c08      	sub	r4, #8
  10130e:	faf7f7ff 	bl	100900 <vTaskSuspendAll>
  101312:	6860      	ldr	r0, [r4, #4]
  101314:	4906      	ldr	r1, [pc, #24]	(101330 <.text+0x1330>)
  101316:	680a      	ldr	r2, [r1, #0]
  101318:	6853      	ldr	r3, [r2, #4]
  10131a:	4283      	cmp	r3, r0
  10131c:	d201      	bcs	101322 <vPortFree+0x1e>
  10131e:	1c11      	mov	r1, r2		(add r1, r2, #0)
  101320:	e7f9      	b	101316 <vPortFree+0x12>
  101322:	6022      	str	r2, [r4, #0]
  101324:	600c      	str	r4, [r1, #0]
  101326:	fb51f7ff 	bl	1009cc <xTaskResumeAll>
  10132a:	bc10      	pop	{r4}
  10132c:	bc01      	pop	{r0}
  10132e:	4700      	bx	r0
  101330:	0fa8      	lsr	r0, r5, #30
  101332:	0020      	lsl	r0, r4, #0

00101334 <pxPortInitialiseStack>:
  101334:	3104      	add	r1, #4
  101336:	4b1b      	ldr	r3, [pc, #108]	(1013a4 <.text+0x13a4>)
  101338:	6001      	str	r1, [r0, #0]
  10133a:	1f01      	sub	r1, r0, #4
  10133c:	600b      	str	r3, [r1, #0]
  10133e:	1c03      	mov	r3, r0		(add r3, r0, #0)
  101340:	3b08      	sub	r3, #8
  101342:	6018      	str	r0, [r3, #0]
  101344:	4b18      	ldr	r3, [pc, #96]	(1013a8 <.text+0x13a8>)
  101346:	3908      	sub	r1, #8
  101348:	600b      	str	r3, [r1, #0]
  10134a:	4b18      	ldr	r3, [pc, #96]	(1013ac <.text+0x13ac>)
  10134c:	3904      	sub	r1, #4
  10134e:	600b      	str	r3, [r1, #0]
  101350:	4b17      	ldr	r3, [pc, #92]	(1013b0 <.text+0x13b0>)
  101352:	3904      	sub	r1, #4
  101354:	600b      	str	r3, [r1, #0]
  101356:	4b17      	ldr	r3, [pc, #92]	(1013b4 <.text+0x13b4>)
  101358:	3904      	sub	r1, #4
  10135a:	600b      	str	r3, [r1, #0]
  10135c:	4b16      	ldr	r3, [pc, #88]	(1013b8 <.text+0x13b8>)
  10135e:	3904      	sub	r1, #4
  101360:	600b      	str	r3, [r1, #0]
  101362:	4b16      	ldr	r3, [pc, #88]	(1013bc <.text+0x13bc>)
  101364:	3904      	sub	r1, #4
  101366:	600b      	str	r3, [r1, #0]
  101368:	4b15      	ldr	r3, [pc, #84]	(1013c0 <.text+0x13c0>)
  10136a:	3904      	sub	r1, #4
  10136c:	600b      	str	r3, [r1, #0]
  10136e:	4b15      	ldr	r3, [pc, #84]	(1013c4 <.text+0x13c4>)
  101370:	3904      	sub	r1, #4
  101372:	600b      	str	r3, [r1, #0]
  101374:	4b14      	ldr	r3, [pc, #80]	(1013c8 <.text+0x13c8>)
  101376:	3904      	sub	r1, #4
  101378:	600b      	str	r3, [r1, #0]
  10137a:	4b14      	ldr	r3, [pc, #80]	(1013cc <.text+0x13cc>)
  10137c:	3904      	sub	r1, #4
  10137e:	600b      	str	r3, [r1, #0]
  101380:	4b13      	ldr	r3, [pc, #76]	(1013d0 <.text+0x13d0>)
  101382:	3904      	sub	r1, #4
  101384:	600b      	str	r3, [r1, #0]
  101386:	4b13      	ldr	r3, [pc, #76]	(1013d4 <.text+0x13d4>)
  101388:	3904      	sub	r1, #4
  10138a:	600b      	str	r3, [r1, #0]
  10138c:	1c03      	mov	r3, r0		(add r3, r0, #0)
  10138e:	3b3c      	sub	r3, #60
  101390:	601a      	str	r2, [r3, #0]
  101392:	1c02      	mov	r2, r0		(add r2, r0, #0)
  101394:	3a40      	sub	r2, #64
  101396:	233f      	mov	r3, #63
  101398:	6013      	str	r3, [r2, #0]
  10139a:	3844      	sub	r0, #68
  10139c:	2300      	mov	r3, #0
  10139e:	6003      	str	r3, [r0, #0]
  1013a0:	4770      	bx	lr
  1013a2:	0000      	lsl	r0, r0, #0
  1013a4:	aaaa      	add	r2, sp, #680
  1013a6:	aaaa      	add	r2, sp, #680
  1013a8:	1212      	asr	r2, r2, #8
  1013aa:	1212      	asr	r2, r2, #8
  1013ac:	1111      	asr	r1, r2, #4
  1013ae:	1111      	asr	r1, r2, #4
  1013b0:	1010      	asr	r0, r2, #0
  1013b2:	1010      	asr	r0, r2, #0
  1013b4:	0909      	lsr	r1, r1, #4
  1013b6:	0909      	lsr	r1, r1, #4
  1013b8:	0808      	lsr	r0, r1, #0
  1013ba:	0808      	lsr	r0, r1, #0
  1013bc:	0707      	lsl	r7, r0, #28
  1013be:	0707      	lsl	r7, r0, #28
  1013c0:	0606      	lsl	r6, r0, #24
  1013c2:	0606      	lsl	r6, r0, #24
  1013c4:	0505      	lsl	r5, r0, #20
  1013c6:	0505      	lsl	r5, r0, #20
  1013c8:	0404      	lsl	r4, r0, #16
  1013ca:	0404      	lsl	r4, r0, #16
  1013cc:	0303      	lsl	r3, r0, #12
  1013ce:	0303      	lsl	r3, r0, #12
  1013d0:	0202      	lsl	r2, r0, #8
  1013d2:	0202      	lsl	r2, r0, #8
  1013d4:	0101      	lsl	r1, r0, #4
  1013d6:	0101      	lsl	r1, r0, #4

001013d8 <xPortStartScheduler>:
  1013d8:	b510      	push	{r4, lr}
  1013da:	4b0b      	ldr	r3, [pc, #44]	(101408 <.text+0x1408>)
  1013dc:	4c0b      	ldr	r4, [pc, #44]	(10140c <.text+0x140c>)
  1013de:	b081      	sub	sp, #4
  1013e0:	9300      	str	r3, [sp, #0]
  1013e2:	2101      	mov	r1, #1
  1013e4:	1c20      	mov	r0, r4		(add r0, r4, #0)
  1013e6:	2207      	mov	r2, #7
  1013e8:	2300      	mov	r3, #0
  1013ea:	fa23f7ff 	bl	100834 <AT91F_AIC_ConfigureIt>
  1013ee:	4a08      	ldr	r2, [pc, #32]	(101410 <.text+0x1410>)
  1013f0:	4b08      	ldr	r3, [pc, #32]	(101414 <.text+0x1414>)
  1013f2:	34fc      	add	r4, #252
  1013f4:	601a      	str	r2, [r3, #0]
  1013f6:	2302      	mov	r3, #2
  1013f8:	6263      	str	r3, [r4, #36]
  1013fa:	ffcbf009 	bl	10b394 <__vPortISRStartFirstTask_from_thumb>
  1013fe:	2000      	mov	r0, #0
  101400:	b001      	add	sp, #4
  101402:	bc10      	pop	{r4}
  101404:	bc02      	pop	{r1}
  101406:	4708      	bx	r1
  101408:	02b8      	lsl	r0, r7, #10
  10140a:	0010      	lsl	r0, r2, #0
  10140c:	fffff000 	bl	10240e <spi_init_chip_select+0x6>
  101410:	2eeb      	cmp	r6, #235
  101412:	0300      	lsl	r0, r0, #12
  101414:	fd30      	second half of BL instruction 0xfd30
  101416:	ffff      	second half of BL instruction 0xffff

00101418 <SendString>:
  101418:	b510      	push	{r4, lr}
  10141a:	1c04      	mov	r4, r0		(add r4, r0, #0)
  10141c:	e002      	b	101424 <SendString+0xc>
  10141e:	3401      	add	r4, #1
  101420:	f97af000 	bl	101718 <vUSBSendByte>
  101424:	7820      	ldrb	r0, [r4, #0]
  101426:	2800      	cmp	r0, #0
  101428:	d1f9      	bne	10141e <SendString+0x6>
  10142a:	bc10      	pop	{r4}
  10142c:	bc01      	pop	{r0}
  10142e:	4700      	bx	r0

00101430 <ListFile>:
  101430:	b530      	push	{r4, r5, lr}
  101432:	4c28      	ldr	r4, [pc, #160]	(1014d4 <.text+0x14d4>)
  101434:	44a5      	add	sp, r4
  101436:	1c04      	mov	r4, r0		(add r4, r0, #0)
  101438:	4827      	ldr	r0, [pc, #156]	(1014d8 <.text+0x14d8>)
  10143a:	ffedf7ff 	bl	101418 <SendString>
  10143e:	4668      	mov	r0, sp
  101440:	2100      	mov	r1, #0
  101442:	f9d9f007 	bl	1087f8 <efs_init>
  101446:	0600      	lsl	r0, r0, #24
  101448:	1602      	asr	r2, r0, #24
  10144a:	2800      	cmp	r0, #0
  10144c:	d007      	beq	10145e <ListFile+0x2e>
  10144e:	4c23      	ldr	r4, [pc, #140]	(1014dc <.text+0x14dc>)
  101450:	446c      	add	r4, sp
  101452:	4923      	ldr	r1, [pc, #140]	(1014e0 <.text+0x14e0>)
  101454:	1c20      	mov	r0, r4		(add r0, r4, #0)
  101456:	f95bf001 	bl	102710 <sprintf>
  10145a:	1c20      	mov	r0, r4		(add r0, r4, #0)
  10145c:	e031      	b	1014c2 <ListFile+0x92>
  10145e:	4d21      	ldr	r5, [pc, #132]	(1014e4 <.text+0x14e4>)
  101460:	20cf      	mov	r0, #207
  101462:	446d      	add	r5, sp
  101464:	00c0      	lsl	r0, r0, #3
  101466:	4468      	add	r0, sp
  101468:	1c29      	mov	r1, r5		(add r1, r5, #0)
  10146a:	1c22      	mov	r2, r4		(add r2, r4, #0)
  10146c:	2372      	mov	r3, #114
  10146e:	fc3df008 	bl	109cec <file_fopen>
  101472:	0600      	lsl	r0, r0, #24
  101474:	2800      	cmp	r0, #0
  101476:	d00e      	beq	101496 <ListFile+0x66>
  101478:	4818      	ldr	r0, [pc, #96]	(1014dc <.text+0x14dc>)
  10147a:	491b      	ldr	r1, [pc, #108]	(1014e8 <.text+0x14e8>)
  10147c:	4468      	add	r0, sp
  10147e:	1c22      	mov	r2, r4		(add r2, r4, #0)
  101480:	f946f001 	bl	102710 <sprintf>
  101484:	1c28      	mov	r0, r5		(add r0, r5, #0)
  101486:	fc87f007 	bl	108d98 <fs_umount>
  10148a:	e01c      	b	1014c6 <ListFile+0x96>
  10148c:	2300      	mov	r3, #0
  10148e:	5423      	strb	r3, [r4, r0]
  101490:	1c20      	mov	r0, r4		(add r0, r4, #0)
  101492:	ffc1f7ff 	bl	101418 <SendString>
  101496:	25cf      	mov	r5, #207
  101498:	4c14      	ldr	r4, [pc, #80]	(1014ec <.text+0x14ec>)
  10149a:	00ed      	lsl	r5, r5, #3
  10149c:	446d      	add	r5, sp
  10149e:	446c      	add	r4, sp
  1014a0:	1c28      	mov	r0, r5		(add r0, r5, #0)
  1014a2:	2101      	mov	r1, #1
  1014a4:	1c22      	mov	r2, r4		(add r2, r4, #0)
  1014a6:	fb2bf008 	bl	109b00 <file_read>
  1014aa:	0400      	lsl	r0, r0, #16
  1014ac:	0c00      	lsr	r0, r0, #16
  1014ae:	2800      	cmp	r0, #0
  1014b0:	d1ec      	bne	10148c <ListFile+0x5c>
  1014b2:	1c28      	mov	r0, r5		(add r0, r5, #0)
  1014b4:	fbe4f008 	bl	109c80 <file_fclose>
  1014b8:	480a      	ldr	r0, [pc, #40]	(1014e4 <.text+0x14e4>)
  1014ba:	4468      	add	r0, sp
  1014bc:	fc6cf007 	bl	108d98 <fs_umount>
  1014c0:	480b      	ldr	r0, [pc, #44]	(1014f0 <.text+0x14f0>)
  1014c2:	ffa9f7ff 	bl	101418 <SendString>
  1014c6:	23d9      	mov	r3, #217
  1014c8:	00db      	lsl	r3, r3, #3
  1014ca:	449d      	add	sp, r3
  1014cc:	bc30      	pop	{r4, r5}
  1014ce:	bc01      	pop	{r0}
  1014d0:	4700      	bx	r0
  1014d2:	0000      	lsl	r0, r0, #0
  1014d4:	f938      	second half of BL instruction 0xf938
  1014d6:	ffff      	second half of BL instruction 0xffff
  1014d8:	b414      	push	{r2, r4}
  1014da:	0010      	lsl	r0, r2, #0
  1014dc:	04e7      	lsl	r7, r4, #19
  1014de:	0000      	lsl	r0, r0, #0
  1014e0:	b424      	push	{r2, r5}
  1014e2:	0010      	lsl	r0, r2, #0
  1014e4:	04a4      	lsl	r4, r4, #18
  1014e6:	0000      	lsl	r0, r0, #0
  1014e8:	b438      	push	{r3, r4, r5}
  1014ea:	0010      	lsl	r0, r2, #0
  1014ec:	0613      	lsl	r3, r2, #24
  1014ee:	0000      	lsl	r0, r0, #0
  1014f0:	b454      	push	{r2, r4, r6}
  1014f2:	0010      	lsl	r0, r2, #0

001014f4 <SendBytes>:
  1014f4:	b570      	push	{r4, r5, r6, lr}
  1014f6:	1c04      	mov	r4, r0		(add r4, r0, #0)
  1014f8:	1c0e      	mov	r6, r1		(add r6, r1, #0)
  1014fa:	2500      	mov	r5, #0
  1014fc:	e004      	b	101508 <SendBytes+0x14>
  1014fe:	7820      	ldrb	r0, [r4, #0]
  101500:	f90af000 	bl	101718 <vUSBSendByte>
  101504:	3401      	add	r4, #1
  101506:	3501      	add	r5, #1
  101508:	42b5      	cmp	r5, r6
  10150a:	d1f8      	bne	1014fe <SendBytes+0xa>
  10150c:	bc70      	pop	{r4, r5, r6}
  10150e:	bc01      	pop	{r0}
  101510:	4700      	bx	r0
  101512:	46c0      	nop			(mov r8, r8)

00101514 <onUSBCommTask>:
  101514:	b5f0      	push	{r4, r5, r6, r7, lr}
  101516:	b0da      	sub	sp, #360
  101518:	e002      	b	101520 <onUSBCommTask+0xc>
  10151a:	2001      	mov	r0, #1
  10151c:	fabef7ff 	bl	100a9c <vTaskDelay>
  101520:	f8f4f000 	bl	10170c <vUSBIsInitialized>
  101524:	2800      	cmp	r0, #0
  101526:	d0f8      	beq	10151a <onUSBCommTask+0x6>
  101528:	4e6f      	ldr	r6, [pc, #444]	(1016e8 <.text+0x16e8>)
  10152a:	446e      	add	r6, sp
  10152c:	1c30      	mov	r0, r6		(add r0, r6, #0)
  10152e:	f903f000 	bl	101738 <vUSBReceiveByte>
  101532:	7833      	ldrb	r3, [r6, #0]
  101534:	2b56      	cmp	r3, #86
  101536:	d108      	bne	10154a <onUSBCommTask+0x36>
  101538:	a806      	add	r0, sp, #24
  10153a:	2203      	mov	r2, #3
  10153c:	2302      	mov	r3, #2
  10153e:	7002      	strb	r2, [r0, #0]
  101540:	7043      	strb	r3, [r0, #1]
  101542:	7082      	strb	r2, [r0, #2]
  101544:	2103      	mov	r1, #3
  101546:	ffd5f7ff 	bl	1014f4 <SendBytes>
  10154a:	7833      	ldrb	r3, [r6, #0]
  10154c:	2b21      	cmp	r3, #33
  10154e:	d10b      	bne	101568 <onUSBCommTask+0x54>
  101550:	ac06      	add	r4, sp, #24
  101552:	4966      	ldr	r1, [pc, #408]	(1016ec <.text+0x16ec>)
  101554:	1c20      	mov	r0, r4		(add r0, r4, #0)
  101556:	f8fdf001 	bl	102754 <strcpy>
  10155a:	1c20      	mov	r0, r4		(add r0, r4, #0)
  10155c:	f92af001 	bl	1027b4 <strlen>
  101560:	1c01      	mov	r1, r0		(add r1, r0, #0)
  101562:	1c20      	mov	r0, r4		(add r0, r4, #0)
  101564:	ffc6f7ff 	bl	1014f4 <SendBytes>
  101568:	7833      	ldrb	r3, [r6, #0]
  10156a:	2b64      	cmp	r3, #100
  10156c:	d101      	bne	101572 <onUSBCommTask+0x5e>
  10156e:	fec9f000 	bl	102304 <ListRootDir>
  101572:	7833      	ldrb	r3, [r6, #0]
  101574:	2b72      	cmp	r3, #114
  101576:	d102      	bne	10157e <onUSBCommTask+0x6a>
  101578:	485d      	ldr	r0, [pc, #372]	(1016f0 <.text+0x16f0>)
  10157a:	ff59f7ff 	bl	101430 <ListFile>
  10157e:	7833      	ldrb	r3, [r6, #0]
  101580:	2b7a      	cmp	r3, #122
  101582:	d115      	bne	1015b0 <onUSBCommTask+0x9c>
  101584:	4d5b      	ldr	r5, [pc, #364]	(1016f4 <.text+0x16f4>)
  101586:	882a      	ldrh	r2, [r5, #0]
  101588:	3a01      	sub	r2, #1
  10158a:	0412      	lsl	r2, r2, #16
  10158c:	0c12      	lsr	r2, r2, #16
  10158e:	ac06      	add	r4, sp, #24
  101590:	802a      	strh	r2, [r5, #0]
  101592:	4959      	ldr	r1, [pc, #356]	(1016f8 <.text+0x16f8>)
  101594:	1c20      	mov	r0, r4		(add r0, r4, #0)
  101596:	f8bbf001 	bl	102710 <sprintf>
  10159a:	1c20      	mov	r0, r4		(add r0, r4, #0)
  10159c:	f90af001 	bl	1027b4 <strlen>
  1015a0:	1c01      	mov	r1, r0		(add r1, r0, #0)
  1015a2:	1c20      	mov	r0, r4		(add r0, r4, #0)
  1015a4:	ffa6f7ff 	bl	1014f4 <SendBytes>
  1015a8:	8829      	ldrh	r1, [r5, #0]
  1015aa:	2000      	mov	r0, #0
  1015ac:	fbfcf000 	bl	101da8 <PWM_SetDutyCycle>
  1015b0:	7833      	ldrb	r3, [r6, #0]
  1015b2:	2b78      	cmp	r3, #120
  1015b4:	d115      	bne	1015e2 <onUSBCommTask+0xce>
  1015b6:	4d4f      	ldr	r5, [pc, #316]	(1016f4 <.text+0x16f4>)
  1015b8:	882a      	ldrh	r2, [r5, #0]
  1015ba:	3201      	add	r2, #1
  1015bc:	0412      	lsl	r2, r2, #16
  1015be:	0c12      	lsr	r2, r2, #16
  1015c0:	ac06      	add	r4, sp, #24
  1015c2:	802a      	strh	r2, [r5, #0]
  1015c4:	494c      	ldr	r1, [pc, #304]	(1016f8 <.text+0x16f8>)
  1015c6:	1c20      	mov	r0, r4		(add r0, r4, #0)
  1015c8:	f8a2f001 	bl	102710 <sprintf>
  1015cc:	1c20      	mov	r0, r4		(add r0, r4, #0)
  1015ce:	f8f1f001 	bl	1027b4 <strlen>
  1015d2:	1c01      	mov	r1, r0		(add r1, r0, #0)
  1015d4:	1c20      	mov	r0, r4		(add r0, r4, #0)
  1015d6:	ff8df7ff 	bl	1014f4 <SendBytes>
  1015da:	8829      	ldrh	r1, [r5, #0]
  1015dc:	2000      	mov	r0, #0
  1015de:	fbe3f000 	bl	101da8 <PWM_SetDutyCycle>
  1015e2:	7833      	ldrb	r3, [r6, #0]
  1015e4:	2b63      	cmp	r3, #99
  1015e6:	d117      	bne	101618 <onUSBCommTask+0x104>
  1015e8:	2401      	mov	r4, #1
  1015ea:	2001      	mov	r0, #1
  1015ec:	fa56f7ff 	bl	100a9c <vTaskDelay>
  1015f0:	1c21      	mov	r1, r4		(add r1, r4, #0)
  1015f2:	2000      	mov	r0, #0
  1015f4:	fbd8f000 	bl	101da8 <PWM_SetDutyCycle>
  1015f8:	23fa      	mov	r3, #250
  1015fa:	3401      	add	r4, #1
  1015fc:	009b      	lsl	r3, r3, #2
  1015fe:	429c      	cmp	r4, r3
  101600:	d1f3      	bne	1015ea <onUSBCommTask+0xd6>
  101602:	4c3e      	ldr	r4, [pc, #248]	(1016fc <.text+0x16fc>)
  101604:	2001      	mov	r0, #1
  101606:	fa49f7ff 	bl	100a9c <vTaskDelay>
  10160a:	1c21      	mov	r1, r4		(add r1, r4, #0)
  10160c:	2000      	mov	r0, #0
  10160e:	3c01      	sub	r4, #1
  101610:	fbcaf000 	bl	101da8 <PWM_SetDutyCycle>
  101614:	2c00      	cmp	r4, #0
  101616:	d1f5      	bne	101604 <onUSBCommTask+0xf0>
  101618:	4f33      	ldr	r7, [pc, #204]	(1016e8 <.text+0x16e8>)
  10161a:	446f      	add	r7, sp
  10161c:	783b      	ldrb	r3, [r7, #0]
  10161e:	2b69      	cmp	r3, #105
  101620:	d101      	bne	101626 <onUSBCommTask+0x112>
  101622:	ff4bf000 	bl	1024bc <accel_init>
  101626:	783b      	ldrb	r3, [r7, #0]
  101628:	2b79      	cmp	r3, #121
  10162a:	d101      	bne	101630 <onUSBCommTask+0x11c>
  10162c:	ff64f000 	bl	1024f8 <accel_setup>
  101630:	783b      	ldrb	r3, [r7, #0]
  101632:	2b6b      	cmp	r3, #107
  101634:	d119      	bne	10166a <onUSBCommTask+0x156>
  101636:	2000      	mov	r0, #0
  101638:	ff88f000 	bl	10254c <accel_readAxis>
  10163c:	1c06      	mov	r6, r0		(add r6, r0, #0)
  10163e:	2001      	mov	r0, #1
  101640:	ff84f000 	bl	10254c <accel_readAxis>
  101644:	1c05      	mov	r5, r0		(add r5, r0, #0)
  101646:	2002      	mov	r0, #2
  101648:	ff80f000 	bl	10254c <accel_readAxis>
  10164c:	ac06      	add	r4, sp, #24
  10164e:	492c      	ldr	r1, [pc, #176]	(101700 <.text+0x1700>)
  101650:	9000      	str	r0, [sp, #0]
  101652:	1c32      	mov	r2, r6		(add r2, r6, #0)
  101654:	1c2b      	mov	r3, r5		(add r3, r5, #0)
  101656:	1c20      	mov	r0, r4		(add r0, r4, #0)
  101658:	f85af001 	bl	102710 <sprintf>
  10165c:	1c20      	mov	r0, r4		(add r0, r4, #0)
  10165e:	f8a9f001 	bl	1027b4 <strlen>
  101662:	1c01      	mov	r1, r0		(add r1, r0, #0)
  101664:	1c20      	mov	r0, r4		(add r0, r4, #0)
  101666:	ff45f7ff 	bl	1014f4 <SendBytes>
  10166a:	783b      	ldrb	r3, [r7, #0]
  10166c:	2b62      	cmp	r3, #98
  10166e:	d10e      	bne	10168e <onUSBCommTask+0x17a>
  101670:	ff5af000 	bl	102528 <accel_readControlRegister>
  101674:	ac06      	add	r4, sp, #24
  101676:	1c02      	mov	r2, r0		(add r2, r0, #0)
  101678:	4922      	ldr	r1, [pc, #136]	(101704 <.text+0x1704>)
  10167a:	1c20      	mov	r0, r4		(add r0, r4, #0)
  10167c:	f848f001 	bl	102710 <sprintf>
  101680:	1c20      	mov	r0, r4		(add r0, r4, #0)
  101682:	f897f001 	bl	1027b4 <strlen>
  101686:	1c01      	mov	r1, r0		(add r1, r0, #0)
  101688:	1c20      	mov	r0, r4		(add r0, r4, #0)
  10168a:	ff33f7ff 	bl	1014f4 <SendBytes>
  10168e:	783b      	ldrb	r3, [r7, #0]
  101690:	2b61      	cmp	r3, #97
  101692:	d000      	beq	101696 <onUSBCommTask+0x182>
  101694:	e748      	b	101528 <onUSBCommTask+0x14>
  101696:	ab54      	add	r3, sp, #336
  101698:	9300      	str	r3, [sp, #0]
  10169a:	ab53      	add	r3, sp, #332
  10169c:	9301      	str	r3, [sp, #4]
  10169e:	ab52      	add	r3, sp, #328
  1016a0:	9302      	str	r3, [sp, #8]
  1016a2:	ab51      	add	r3, sp, #324
  1016a4:	9303      	str	r3, [sp, #12]
  1016a6:	a858      	add	r0, sp, #352
  1016a8:	a957      	add	r1, sp, #348
  1016aa:	aa56      	add	r2, sp, #344
  1016ac:	ab55      	add	r3, sp, #340
  1016ae:	fbb3f000 	bl	101e18 <ReadAllADC>
  1016b2:	9956      	ldr	r1, [sp, #344]
  1016b4:	9100      	str	r1, [sp, #0]
  1016b6:	9955      	ldr	r1, [sp, #340]
  1016b8:	9101      	str	r1, [sp, #4]
  1016ba:	9954      	ldr	r1, [sp, #336]
  1016bc:	9102      	str	r1, [sp, #8]
  1016be:	9953      	ldr	r1, [sp, #332]
  1016c0:	9103      	str	r1, [sp, #12]
  1016c2:	9952      	ldr	r1, [sp, #328]
  1016c4:	9104      	str	r1, [sp, #16]
  1016c6:	9951      	ldr	r1, [sp, #324]
  1016c8:	ac06      	add	r4, sp, #24
  1016ca:	9a58      	ldr	r2, [sp, #352]
  1016cc:	9b57      	ldr	r3, [sp, #348]
  1016ce:	9105      	str	r1, [sp, #20]
  1016d0:	1c20      	mov	r0, r4		(add r0, r4, #0)
  1016d2:	490d      	ldr	r1, [pc, #52]	(101708 <.text+0x1708>)
  1016d4:	f81cf001 	bl	102710 <sprintf>
  1016d8:	1c20      	mov	r0, r4		(add r0, r4, #0)
  1016da:	f86bf001 	bl	1027b4 <strlen>
  1016de:	1c01      	mov	r1, r0		(add r1, r0, #0)
  1016e0:	1c20      	mov	r0, r4		(add r0, r4, #0)
  1016e2:	ff07f7ff 	bl	1014f4 <SendBytes>
  1016e6:	e71f      	b	101528 <onUSBCommTask+0x14>
  1016e8:	0167      	lsl	r7, r4, #5
  1016ea:	0000      	lsl	r0, r0, #0
  1016ec:	b460      	push	{r5, r6}
  1016ee:	0010      	lsl	r0, r2, #0
  1016f0:	b46c      	push	{r2, r3, r5, r6}
  1016f2:	0010      	lsl	r0, r2, #0
  1016f4:	0884      	lsr	r4, r0, #2
  1016f6:	0020      	lsl	r0, r4, #0
  1016f8:	b474      	push	{r2, r4, r5, r6}
  1016fa:	0010      	lsl	r0, r2, #0
  1016fc:	03e7      	lsl	r7, r4, #15
  1016fe:	0000      	lsl	r0, r0, #0
  101700:	b480      	push	{r7}
  101702:	0010      	lsl	r0, r2, #0
  101704:	b494      	push	{r2, r4, r7}
  101706:	0010      	lsl	r0, r2, #0
  101708:	b4a8      	push	{r3, r5, r7}
  10170a:	0010      	lsl	r0, r2, #0

0010170c <vUSBIsInitialized>:
  10170c:	4b01      	ldr	r3, [pc, #4]	(101714 <.text+0x1714>)
  10170e:	6818      	ldr	r0, [r3, #0]
  101710:	4770      	bx	lr
  101712:	0000      	lsl	r0, r0, #0
  101714:	36c4      	add	r6, #196
  101716:	0020      	lsl	r0, r4, #0

00101718 <vUSBSendByte>:
  101718:	b500      	push	{lr}
  10171a:	b081      	sub	sp, #4
  10171c:	4b05      	ldr	r3, [pc, #20]	(101734 <.text+0x1734>)
  10171e:	4669      	mov	r1, sp
  101720:	2201      	mov	r2, #1
  101722:	7008      	strb	r0, [r1, #0]
  101724:	4252      	neg	r2, r2
  101726:	6818      	ldr	r0, [r3, #0]
  101728:	fcd6f7ff 	bl	1010d8 <xQueueSend>
  10172c:	b001      	add	sp, #4
  10172e:	bc01      	pop	{r0}
  101730:	4700      	bx	r0
  101732:	0000      	lsl	r0, r0, #0
  101734:	36e4      	add	r6, #228
  101736:	0020      	lsl	r0, r4, #0

00101738 <vUSBReceiveByte>:
  101738:	b500      	push	{lr}
  10173a:	4b04      	ldr	r3, [pc, #16]	(10174c <.text+0x174c>)
  10173c:	2201      	mov	r2, #1
  10173e:	1c01      	mov	r1, r0		(add r1, r0, #0)
  101740:	4252      	neg	r2, r2
  101742:	6818      	ldr	r0, [r3, #0]
  101744:	fc56f7ff 	bl	100ff4 <xQueueReceive>
  101748:	bc02      	pop	{r1}
  10174a:	4708      	bx	r1
  10174c:	36e8      	add	r6, #232
  10174e:	0020      	lsl	r0, r4, #0

00101750 <prvSendZLP>:
  101750:	b530      	push	{r4, r5, lr}
  101752:	e002      	b	10175a <prvSendZLP+0xa>
  101754:	2001      	mov	r0, #1
  101756:	f9a1f7ff 	bl	100a9c <vTaskDelay>
  10175a:	4c0c      	ldr	r4, [pc, #48]	(10178c <.text+0x178c>)
  10175c:	6b23      	ldr	r3, [r4, #48]
  10175e:	2510      	mov	r5, #16
  101760:	422b      	tst	r3, r5
  101762:	d1f7      	bne	101754 <prvSendZLP+0x4>
  101764:	fe0af009 	bl	10b37c <__vPortEnterCritical_from_thumb>
  101768:	4b09      	ldr	r3, [pc, #36]	(101790 <.text+0x1790>)
  10176a:	1c1a      	mov	r2, r3		(add r2, r3, #0)
  10176c:	3304      	add	r3, #4
  10176e:	6fdb      	ldr	r3, [r3, #124]
  101770:	3208      	add	r2, #8
  101772:	67d3      	str	r3, [r2, #124]
  101774:	6b23      	ldr	r3, [r4, #48]
  101776:	224f      	mov	r2, #79
  101778:	4313      	orr	r3, r2
  10177a:	2230      	mov	r2, #48
  10177c:	4393      	bic	r3, r2
  10177e:	432b      	orr	r3, r5
  101780:	6323      	str	r3, [r4, #48]
  101782:	fdfff009 	bl	10b384 <__vPortExitCritical_from_thumb>
  101786:	bc30      	pop	{r4, r5}
  101788:	bc01      	pop	{r0}
  10178a:	4700      	bx	r0
  10178c:	0000      	lsl	r0, r0, #0
  10178e:	fffb      	second half of BL instruction 0xfffb
  101790:	3774      	add	r7, #116
  101792:	0020      	lsl	r0, r4, #0

00101794 <prvSendStall>:
  101794:	b500      	push	{lr}
  101796:	fdf1f009 	bl	10b37c <__vPortEnterCritical_from_thumb>
  10179a:	4906      	ldr	r1, [pc, #24]	(1017b4 <.text+0x17b4>)
  10179c:	6b0b      	ldr	r3, [r1, #48]
  10179e:	224f      	mov	r2, #79
  1017a0:	4313      	orr	r3, r2
  1017a2:	2230      	mov	r2, #48
  1017a4:	4393      	bic	r3, r2
  1017a6:	2220      	mov	r2, #32
  1017a8:	4313      	orr	r3, r2
  1017aa:	630b      	str	r3, [r1, #48]
  1017ac:	fdeaf009 	bl	10b384 <__vPortExitCritical_from_thumb>
  1017b0:	bc01      	pop	{r0}
  1017b2:	4700      	bx	r0
  1017b4:	0000      	lsl	r0, r0, #0
  1017b6:	fffb      	second half of BL instruction 0xfffb

001017b8 <prvSendNextSegment>:
  1017b8:	b510      	push	{r4, lr}
  1017ba:	4b25      	ldr	r3, [pc, #148]	(101850 <.text+0x1850>)
  1017bc:	1c1a      	mov	r2, r3		(add r2, r3, #0)
  1017be:	3208      	add	r2, #8
  1017c0:	3304      	add	r3, #4
  1017c2:	6fd2      	ldr	r2, [r2, #124]
  1017c4:	6fdb      	ldr	r3, [r3, #124]
  1017c6:	b083      	sub	sp, #12
  1017c8:	429a      	cmp	r2, r3
  1017ca:	d935      	bls	101838 <prvSendNextSegment+0x80>
  1017cc:	1ad3      	sub	r3, r2, r3
  1017ce:	9300      	str	r3, [sp, #0]
  1017d0:	9b00      	ldr	r3, [sp, #0]
  1017d2:	2b08      	cmp	r3, #8
  1017d4:	d901      	bls	1017da <prvSendNextSegment+0x22>
  1017d6:	2308      	mov	r3, #8
  1017d8:	e000      	b	1017dc <prvSendNextSegment+0x24>
  1017da:	9b00      	ldr	r3, [sp, #0]
  1017dc:	9302      	str	r3, [sp, #8]
  1017de:	e002      	b	1017e6 <prvSendNextSegment+0x2e>
  1017e0:	2001      	mov	r0, #1
  1017e2:	f95bf7ff 	bl	100a9c <vTaskDelay>
  1017e6:	4b1b      	ldr	r3, [pc, #108]	(101854 <.text+0x1854>)
  1017e8:	6b1b      	ldr	r3, [r3, #48]
  1017ea:	06da      	lsl	r2, r3, #27
  1017ec:	d4f8      	bmi	1017e0 <prvSendNextSegment+0x28>
  1017ee:	4c18      	ldr	r4, [pc, #96]	(101850 <.text+0x1850>)
  1017f0:	e009      	b	101806 <prvSendNextSegment+0x4e>
  1017f2:	1d20      	add	r0, r4, #4
  1017f4:	6fc2      	ldr	r2, [r0, #124]
  1017f6:	4b17      	ldr	r3, [pc, #92]	(101854 <.text+0x1854>)
  1017f8:	5ca1      	ldrb	r1, [r4, r2]
  1017fa:	6519      	str	r1, [r3, #80]
  1017fc:	9b02      	ldr	r3, [sp, #8]
  1017fe:	3201      	add	r2, #1
  101800:	3b01      	sub	r3, #1
  101802:	9302      	str	r3, [sp, #8]
  101804:	67c2      	str	r2, [r0, #124]
  101806:	9b02      	ldr	r3, [sp, #8]
  101808:	2b00      	cmp	r3, #0
  10180a:	d1f2      	bne	1017f2 <prvSendNextSegment+0x3a>
  10180c:	fdb6f009 	bl	10b37c <__vPortEnterCritical_from_thumb>
  101810:	4910      	ldr	r1, [pc, #64]	(101854 <.text+0x1854>)
  101812:	6b0b      	ldr	r3, [r1, #48]
  101814:	9301      	str	r3, [sp, #4]
  101816:	9b01      	ldr	r3, [sp, #4]
  101818:	224f      	mov	r2, #79
  10181a:	4313      	orr	r3, r2
  10181c:	9301      	str	r3, [sp, #4]
  10181e:	9b01      	ldr	r3, [sp, #4]
  101820:	2230      	mov	r2, #48
  101822:	4393      	bic	r3, r2
  101824:	9301      	str	r3, [sp, #4]
  101826:	9b01      	ldr	r3, [sp, #4]
  101828:	2210      	mov	r2, #16
  10182a:	4313      	orr	r3, r2
  10182c:	9301      	str	r3, [sp, #4]
  10182e:	9b01      	ldr	r3, [sp, #4]
  101830:	630b      	str	r3, [r1, #48]
  101832:	fda7f009 	bl	10b384 <__vPortExitCritical_from_thumb>
  101836:	e007      	b	101848 <prvSendNextSegment+0x90>
  101838:	4c07      	ldr	r4, [pc, #28]	(101858 <.text+0x1858>)
  10183a:	6823      	ldr	r3, [r4, #0]
  10183c:	2b04      	cmp	r3, #4
  10183e:	d103      	bne	101848 <prvSendNextSegment+0x90>
  101840:	ff86f7ff 	bl	101750 <prvSendZLP>
  101844:	2300      	mov	r3, #0
  101846:	6023      	str	r3, [r4, #0]
  101848:	b003      	add	sp, #12
  10184a:	bc10      	pop	{r4}
  10184c:	bc01      	pop	{r0}
  10184e:	4700      	bx	r0
  101850:	3774      	add	r7, #116
  101852:	0020      	lsl	r0, r4, #0
  101854:	0000      	lsl	r0, r0, #0
  101856:	fffb      	second half of BL instruction 0xfffb
  101858:	36c8      	add	r6, #200
  10185a:	0020      	lsl	r0, r4, #0

0010185c <prvSendControlData>:
  10185c:	b570      	push	{r4, r5, r6, lr}
  10185e:	0409      	lsl	r1, r1, #16
  101860:	1c15      	mov	r5, r2		(add r5, r2, #0)
  101862:	0c09      	lsr	r1, r1, #16
  101864:	1c06      	mov	r6, r0		(add r6, r0, #0)
  101866:	42a9      	cmp	r1, r5
  101868:	d201      	bcs	10186e <prvSendControlData+0x12>
  10186a:	1c0d      	mov	r5, r1		(add r5, r1, #0)
  10186c:	e009      	b	101882 <prvSendControlData+0x26>
  10186e:	428a      	cmp	r2, r1
  101870:	d207      	bcs	101882 <prvSendControlData+0x26>
  101872:	2b00      	cmp	r3, #0
  101874:	d005      	beq	101882 <prvSendControlData+0x26>
  101876:	2307      	mov	r3, #7
  101878:	421a      	tst	r2, r3
  10187a:	d102      	bne	101882 <prvSendControlData+0x26>
  10187c:	4a09      	ldr	r2, [pc, #36]	(1018a4 <.text+0x18a4>)
  10187e:	2304      	mov	r3, #4
  101880:	6013      	str	r3, [r2, #0]
  101882:	4c09      	ldr	r4, [pc, #36]	(1018a8 <.text+0x18a8>)
  101884:	1c31      	mov	r1, r6		(add r1, r6, #0)
  101886:	1c2a      	mov	r2, r5		(add r2, r5, #0)
  101888:	1c20      	mov	r0, r4		(add r0, r4, #0)
  10188a:	feb9f000 	bl	102600 <memcpy>
  10188e:	1c23      	mov	r3, r4		(add r3, r4, #0)
  101890:	3308      	add	r3, #8
  101892:	67dd      	str	r5, [r3, #124]
  101894:	3404      	add	r4, #4
  101896:	2300      	mov	r3, #0
  101898:	67e3      	str	r3, [r4, #124]
  10189a:	ff8df7ff 	bl	1017b8 <prvSendNextSegment>
  10189e:	bc70      	pop	{r4, r5, r6}
  1018a0:	bc01      	pop	{r0}
  1018a2:	4700      	bx	r0
  1018a4:	36c8      	add	r6, #200
  1018a6:	0020      	lsl	r0, r4, #0
  1018a8:	3774      	add	r7, #116
  1018aa:	0020      	lsl	r0, r4, #0

001018ac <vUSBCDCTask>:
  1018ac:	b5f0      	push	{r4, r5, r6, r7, lr}
  1018ae:	b085      	sub	sp, #20
  1018b0:	fd64f009 	bl	10b37c <__vPortEnterCritical_from_thumb>
  1018b4:	fd66f009 	bl	10b384 <__vPortExitCritical_from_thumb>
  1018b8:	20f0      	mov	r0, #240
  1018ba:	f8eff7ff 	bl	100a9c <vTaskDelay>
  1018be:	fd5df009 	bl	10b37c <__vPortEnterCritical_from_thumb>
  1018c2:	2104      	mov	r1, #4
  1018c4:	2004      	mov	r0, #4
  1018c6:	faf1f7ff 	bl	100eac <xQueueCreate>
  1018ca:	4cca      	ldr	r4, [pc, #808]	(101bf4 <.text+0x1bf4>)
  1018cc:	2101      	mov	r1, #1
  1018ce:	6020      	str	r0, [r4, #0]
  1018d0:	20c8      	mov	r0, #200
  1018d2:	faebf7ff 	bl	100eac <xQueueCreate>
  1018d6:	4dc8      	ldr	r5, [pc, #800]	(101bf8 <.text+0x1bf8>)
  1018d8:	2101      	mov	r1, #1
  1018da:	6028      	str	r0, [r5, #0]
  1018dc:	20c9      	mov	r0, #201
  1018de:	fae5f7ff 	bl	100eac <xQueueCreate>
  1018e2:	4bc6      	ldr	r3, [pc, #792]	(101bfc <.text+0x1bfc>)
  1018e4:	6018      	str	r0, [r3, #0]
  1018e6:	6823      	ldr	r3, [r4, #0]
  1018e8:	2b00      	cmp	r3, #0
  1018ea:	d004      	beq	1018f6 <vUSBCDCTask+0x4a>
  1018ec:	682b      	ldr	r3, [r5, #0]
  1018ee:	2b00      	cmp	r3, #0
  1018f0:	d001      	beq	1018f6 <vUSBCDCTask+0x4a>
  1018f2:	2800      	cmp	r0, #0
  1018f4:	d106      	bne	101904 <vUSBCDCTask+0x58>
  1018f6:	2004      	mov	r0, #4
  1018f8:	fae8f000 	bl	101ecc <ToggleLED>
  1018fc:	2064      	mov	r0, #100
  1018fe:	f8cdf7ff 	bl	100a9c <vTaskDelay>
  101902:	e7f8      	b	1018f6 <vUSBCDCTask+0x4a>
  101904:	4bbe      	ldr	r3, [pc, #760]	(101c00 <.text+0x1c00>)
  101906:	2100      	mov	r1, #0
  101908:	3304      	add	r3, #4
  10190a:	67d9      	str	r1, [r3, #124]
  10190c:	4bbd      	ldr	r3, [pc, #756]	(101c04 <.text+0x1c04>)
  10190e:	3304      	add	r3, #4
  101910:	67d9      	str	r1, [r3, #124]
  101912:	4bbd      	ldr	r3, [pc, #756]	(101c08 <.text+0x1c08>)
  101914:	7019      	strb	r1, [r3, #0]
  101916:	4bbd      	ldr	r3, [pc, #756]	(101c0c <.text+0x1c0c>)
  101918:	6019      	str	r1, [r3, #0]
  10191a:	4bbd      	ldr	r3, [pc, #756]	(101c10 <.text+0x1c10>)
  10191c:	4abd      	ldr	r2, [pc, #756]	(101c14 <.text+0x1c14>)
  10191e:	7019      	strb	r1, [r3, #0]
  101920:	2302      	mov	r3, #2
  101922:	6013      	str	r3, [r2, #0]
  101924:	48bc      	ldr	r0, [pc, #752]	(101c18 <.text+0x1c18>)
  101926:	2380      	mov	r3, #128
  101928:	68c2      	ldr	r2, [r0, #12]
  10192a:	055b      	lsl	r3, r3, #21
  10192c:	431a      	orr	r2, r3
  10192e:	60c2      	str	r2, [r0, #12]
  101930:	2480      	mov	r4, #128
  101932:	4aba      	ldr	r2, [pc, #744]	(101c1c <.text+0x1c1c>)
  101934:	2380      	mov	r3, #128
  101936:	0124      	lsl	r4, r4, #4
  101938:	6013      	str	r3, [r2, #0]
  10193a:	6114      	str	r4, [r2, #16]
  10193c:	2301      	mov	r3, #1
  10193e:	4ab8      	ldr	r2, [pc, #736]	(101c20 <.text+0x1c20>)
  101940:	425b      	neg	r3, r3
  101942:	6153      	str	r3, [r2, #20]
  101944:	6213      	str	r3, [r2, #32]
  101946:	4bb7      	ldr	r3, [pc, #732]	(101c24 <.text+0x1c24>)
  101948:	6019      	str	r1, [r3, #0]
  10194a:	4bb7      	ldr	r3, [pc, #732]	(101c28 <.text+0x1c28>)
  10194c:	6311      	str	r1, [r2, #48]
  10194e:	6351      	str	r1, [r2, #52]
  101950:	6391      	str	r1, [r2, #56]
  101952:	63d1      	str	r1, [r2, #60]
  101954:	6051      	str	r1, [r2, #4]
  101956:	6091      	str	r1, [r2, #8]
  101958:	9302      	str	r3, [sp, #8]
  10195a:	4bb4      	ldr	r3, [pc, #720]	(101c2c <.text+0x1c2c>)
  10195c:	2203      	mov	r2, #3
  10195e:	9300      	str	r3, [sp, #0]
  101960:	9802      	ldr	r0, [sp, #8]
  101962:	2300      	mov	r3, #0
  101964:	210b      	mov	r1, #11
  101966:	ff65f7fe 	bl	100834 <AT91F_AIC_ConfigureIt>
  10196a:	4bb1      	ldr	r3, [pc, #708]	(101c30 <.text+0x1c30>)
  10196c:	4ab1      	ldr	r2, [pc, #708]	(101c34 <.text+0x1c34>)
  10196e:	625c      	str	r4, [r3, #36]
  101970:	2301      	mov	r3, #1
  101972:	6013      	str	r3, [r2, #0]
  101974:	fd06f009 	bl	10b384 <__vPortExitCritical_from_thumb>
  101978:	4b9e      	ldr	r3, [pc, #632]	(101bf4 <.text+0x1bf4>)
  10197a:	a903      	add	r1, sp, #12
  10197c:	6818      	ldr	r0, [r3, #0]
  10197e:	2201      	mov	r2, #1
  101980:	fb38f7ff 	bl	100ff4 <xQueueReceive>
  101984:	2800      	cmp	r0, #0
  101986:	d100      	bne	10198a <vUSBCDCTask+0xde>
  101988:	e193      	b	101cb2 <.text+0x1cb2>
  10198a:	9e03      	ldr	r6, [sp, #12]
  10198c:	6833      	ldr	r3, [r6, #0]
  10198e:	2101      	mov	r1, #1
  101990:	420b      	tst	r3, r1
  101992:	d100      	bne	101996 <vUSBCDCTask+0xea>
  101994:	e16a      	b	101c6c <.text+0x1c6c>
  101996:	6872      	ldr	r2, [r6, #4]
  101998:	0153      	lsl	r3, r2, #5
  10199a:	0d5f      	lsr	r7, r3, #21
  10199c:	420a      	tst	r2, r1
  10199e:	d03d      	beq	101a1c <vUSBCDCTask+0x170>
  1019a0:	4a9a      	ldr	r2, [pc, #616]	(101c0c <.text+0x1c0c>)
  1019a2:	6815      	ldr	r5, [r2, #0]
  1019a4:	9201      	str	r2, [sp, #4]
  1019a6:	2d02      	cmp	r5, #2
  1019a8:	d122      	bne	1019f0 <vUSBCDCTask+0x144>
  1019aa:	4c9d      	ldr	r4, [pc, #628]	(101c20 <.text+0x1c20>)
  1019ac:	6065      	str	r5, [r4, #4]
  1019ae:	fce5f009 	bl	10b37c <__vPortEnterCritical_from_thumb>
  1019b2:	6b62      	ldr	r2, [r4, #52]
  1019b4:	204f      	mov	r0, #79
  1019b6:	2130      	mov	r1, #48
  1019b8:	4302      	orr	r2, r0
  1019ba:	2382      	mov	r3, #130
  1019bc:	438a      	bic	r2, r1
  1019be:	021b      	lsl	r3, r3, #8
  1019c0:	431a      	orr	r2, r3
  1019c2:	6362      	str	r2, [r4, #52]
  1019c4:	6125      	str	r5, [r4, #16]
  1019c6:	6ba3      	ldr	r3, [r4, #56]
  1019c8:	2286      	mov	r2, #134
  1019ca:	4303      	orr	r3, r0
  1019cc:	438b      	bic	r3, r1
  1019ce:	0212      	lsl	r2, r2, #8
  1019d0:	4313      	orr	r3, r2
  1019d2:	63a3      	str	r3, [r4, #56]
  1019d4:	2304      	mov	r3, #4
  1019d6:	6123      	str	r3, [r4, #16]
  1019d8:	6be3      	ldr	r3, [r4, #60]
  1019da:	2287      	mov	r2, #135
  1019dc:	4303      	orr	r3, r0
  1019de:	0212      	lsl	r2, r2, #8
  1019e0:	438b      	bic	r3, r1
  1019e2:	4313      	orr	r3, r2
  1019e4:	63e3      	str	r3, [r4, #60]
  1019e6:	fccdf009 	bl	10b384 <__vPortExitCritical_from_thumb>
  1019ea:	9a01      	ldr	r2, [sp, #4]
  1019ec:	2305      	mov	r3, #5
  1019ee:	e011      	b	101a14 <vUSBCDCTask+0x168>
  1019f0:	2d03      	cmp	r5, #3
  1019f2:	d111      	bne	101a18 <vUSBCDCTask+0x16c>
  1019f4:	4b90      	ldr	r3, [pc, #576]	(101c38 <.text+0x1c38>)
  1019f6:	681a      	ldr	r2, [r3, #0]
  1019f8:	2a00      	cmp	r2, #0
  1019fa:	d002      	beq	101a02 <vUSBCDCTask+0x156>
  1019fc:	4b88      	ldr	r3, [pc, #544]	(101c20 <.text+0x1c20>)
  1019fe:	6059      	str	r1, [r3, #4]
  101a00:	e001      	b	101a06 <vUSBCDCTask+0x15a>
  101a02:	4b87      	ldr	r3, [pc, #540]	(101c20 <.text+0x1c20>)
  101a04:	605a      	str	r2, [r3, #4]
  101a06:	2380      	mov	r3, #128
  101a08:	005b      	lsl	r3, r3, #1
  101a0a:	431a      	orr	r2, r3
  101a0c:	4b84      	ldr	r3, [pc, #528]	(101c20 <.text+0x1c20>)
  101a0e:	609a      	str	r2, [r3, #8]
  101a10:	4a7e      	ldr	r2, [pc, #504]	(101c0c <.text+0x1c0c>)
  101a12:	2300      	mov	r3, #0
  101a14:	6013      	str	r3, [r2, #0]
  101a16:	e001      	b	101a1c <vUSBCDCTask+0x170>
  101a18:	fecef7ff 	bl	1017b8 <prvSendNextSegment>
  101a1c:	6873      	ldr	r3, [r6, #4]
  101a1e:	079a      	lsl	r2, r3, #30
  101a20:	d51c      	bpl	101a5c <vUSBCDCTask+0x1b0>
  101a22:	4b77      	ldr	r3, [pc, #476]	(101c00 <.text+0x1c00>)
  101a24:	1d1a      	add	r2, r3, #4
  101a26:	3308      	add	r3, #8
  101a28:	6fdb      	ldr	r3, [r3, #124]
  101a2a:	4876      	ldr	r0, [pc, #472]	(101c04 <.text+0x1c04>)
  101a2c:	67d3      	str	r3, [r2, #124]
  101a2e:	1c03      	mov	r3, r0		(add r3, r0, #0)
  101a30:	3308      	add	r3, #8
  101a32:	1d05      	add	r5, r0, #4
  101a34:	6fdb      	ldr	r3, [r3, #124]
  101a36:	6fea      	ldr	r2, [r5, #124]
  101a38:	1a9b      	sub	r3, r3, r2
  101a3a:	061b      	lsl	r3, r3, #24
  101a3c:	0e1c      	lsr	r4, r3, #24
  101a3e:	42bc      	cmp	r4, r7
  101a40:	d901      	bls	101a46 <vUSBCDCTask+0x19a>
  101a42:	063b      	lsl	r3, r7, #24
  101a44:	0e1c      	lsr	r4, r3, #24
  101a46:	2c00      	cmp	r4, #0
  101a48:	d100      	bne	101a4c <vUSBCDCTask+0x1a0>
  101a4a:	e10f      	b	101c6c <.text+0x1c6c>
  101a4c:	1c31      	mov	r1, r6		(add r1, r6, #0)
  101a4e:	3108      	add	r1, #8
  101a50:	1c22      	mov	r2, r4		(add r2, r4, #0)
  101a52:	fdd5f000 	bl	102600 <memcpy>
  101a56:	6feb      	ldr	r3, [r5, #124]
  101a58:	191b      	add	r3, r3, r4
  101a5a:	67eb      	str	r3, [r5, #124]
  101a5c:	6873      	ldr	r3, [r6, #4]
  101a5e:	075a      	lsl	r2, r3, #29
  101a60:	d52a      	bpl	101ab8 <vUSBCDCTask+0x20c>
  101a62:	2f07      	cmp	r7, #7
  101a64:	d928      	bls	101ab8 <vUSBCDCTask+0x20c>
  101a66:	7a30      	ldrb	r0, [r6, #8]
  101a68:	4974      	ldr	r1, [pc, #464]	(101c3c <.text+0x1c3c>)
  101a6a:	7008      	strb	r0, [r1, #0]
  101a6c:	7a73      	ldrb	r3, [r6, #9]
  101a6e:	704b      	strb	r3, [r1, #1]
  101a70:	7af3      	ldrb	r3, [r6, #11]
  101a72:	021b      	lsl	r3, r3, #8
  101a74:	804b      	strh	r3, [r1, #2]
  101a76:	7ab2      	ldrb	r2, [r6, #10]
  101a78:	4313      	orr	r3, r2
  101a7a:	804b      	strh	r3, [r1, #2]
  101a7c:	7b73      	ldrb	r3, [r6, #13]
  101a7e:	021b      	lsl	r3, r3, #8
  101a80:	808b      	strh	r3, [r1, #4]
  101a82:	7b32      	ldrb	r2, [r6, #12]
  101a84:	4313      	orr	r3, r2
  101a86:	808b      	strh	r3, [r1, #4]
  101a88:	7bf3      	ldrb	r3, [r6, #15]
  101a8a:	021b      	lsl	r3, r3, #8
  101a8c:	80cb      	strh	r3, [r1, #6]
  101a8e:	7bb2      	ldrb	r2, [r6, #14]
  101a90:	1c1c      	mov	r4, r3		(add r4, r3, #0)
  101a92:	4314      	orr	r4, r2
  101a94:	4a5b      	ldr	r2, [pc, #364]	(101c04 <.text+0x1c04>)
  101a96:	80cc      	strh	r4, [r1, #6]
  101a98:	1d13      	add	r3, r2, #4
  101a9a:	2100      	mov	r1, #0
  101a9c:	0600      	lsl	r0, r0, #24
  101a9e:	67d9      	str	r1, [r3, #124]
  101aa0:	2800      	cmp	r0, #0
  101aa2:	db06      	blt	101ab2 <vUSBCDCTask+0x206>
  101aa4:	2c80      	cmp	r4, #128
  101aa6:	d900      	bls	101aaa <vUSBCDCTask+0x1fe>
  101aa8:	e0de      	b	101c68 <.text+0x1c68>
  101aaa:	1c13      	mov	r3, r2		(add r3, r2, #0)
  101aac:	3308      	add	r3, #8
  101aae:	67dc      	str	r4, [r3, #124]
  101ab0:	e002      	b	101ab8 <vUSBCDCTask+0x20c>
  101ab2:	1c13      	mov	r3, r2		(add r3, r2, #0)
  101ab4:	3308      	add	r3, #8
  101ab6:	67d9      	str	r1, [r3, #124]
  101ab8:	6872      	ldr	r2, [r6, #4]
  101aba:	2306      	mov	r3, #6
  101abc:	421a      	tst	r2, r3
  101abe:	d100      	bne	101ac2 <vUSBCDCTask+0x216>
  101ac0:	e0d4      	b	101c6c <.text+0x1c6c>
  101ac2:	4d50      	ldr	r5, [pc, #320]	(101c04 <.text+0x1c04>)
  101ac4:	1c2a      	mov	r2, r5		(add r2, r5, #0)
  101ac6:	1d2b      	add	r3, r5, #4
  101ac8:	3208      	add	r2, #8
  101aca:	6fd9      	ldr	r1, [r3, #124]
  101acc:	6fd3      	ldr	r3, [r2, #124]
  101ace:	4299      	cmp	r1, r3
  101ad0:	d200      	bcs	101ad4 <vUSBCDCTask+0x228>
  101ad2:	e0cb      	b	101c6c <.text+0x1c6c>
  101ad4:	4c59      	ldr	r4, [pc, #356]	(101c3c <.text+0x1c3c>)
  101ad6:	7821      	ldrb	r1, [r4, #0]
  101ad8:	2360      	mov	r3, #96
  101ada:	400b      	and	r3, r1
  101adc:	2203      	mov	r2, #3
  101ade:	10db      	asr	r3, r3, #3
  101ae0:	4011      	and	r1, r2
  101ae2:	430b      	orr	r3, r1
  101ae4:	2b01      	cmp	r3, #1
  101ae6:	d05f      	beq	101ba8 <vUSBCDCTask+0x2fc>
  101ae8:	2b01      	cmp	r3, #1
  101aea:	d306      	bcc	101afa <vUSBCDCTask+0x24e>
  101aec:	2b02      	cmp	r3, #2
  101aee:	d100      	bne	101af2 <vUSBCDCTask+0x246>
  101af0:	e0ba      	b	101c68 <.text+0x1c68>
  101af2:	2b05      	cmp	r3, #5
  101af4:	d000      	beq	101af8 <vUSBCDCTask+0x24c>
  101af6:	e0b7      	b	101c68 <.text+0x1c68>
  101af8:	e05f      	b	101bba <vUSBCDCTask+0x30e>
  101afa:	ab04      	add	r3, sp, #16
  101afc:	2200      	mov	r2, #0
  101afe:	801a      	strh	r2, [r3, #0]
  101b00:	7863      	ldrb	r3, [r4, #1]
  101b02:	2b09      	cmp	r3, #9
  101b04:	d900      	bls	101b08 <vUSBCDCTask+0x25c>
  101b06:	e0af      	b	101c68 <.text+0x1c68>
  101b08:	4a4d      	ldr	r2, [pc, #308]	(101c40 <.text+0x1c40>)
  101b0a:	009b      	lsl	r3, r3, #2
  101b0c:	589b      	ldr	r3, [r3, r2]
  101b0e:	469f      	mov	pc, r3
  101b10:	a804      	add	r0, sp, #16
  101b12:	e04f      	b	101bb4 <vUSBCDCTask+0x308>
  101b14:	4949      	ldr	r1, [pc, #292]	(101c3c <.text+0x1c3c>)
  101b16:	884a      	ldrh	r2, [r1, #2]
  101b18:	0a13      	lsr	r3, r2, #8
  101b1a:	2b02      	cmp	r3, #2
  101b1c:	d00a      	beq	101b34 <vUSBCDCTask+0x288>
  101b1e:	2b03      	cmp	r3, #3
  101b20:	d00c      	beq	101b3c <vUSBCDCTask+0x290>
  101b22:	2b01      	cmp	r3, #1
  101b24:	d000      	beq	101b28 <vUSBCDCTask+0x27c>
  101b26:	e09f      	b	101c68 <.text+0x1c68>
  101b28:	4846      	ldr	r0, [pc, #280]	(101c44 <.text+0x1c44>)
  101b2a:	88c9      	ldrh	r1, [r1, #6]
  101b2c:	2212      	mov	r2, #18
  101b2e:	fe95f7ff 	bl	10185c <prvSendControlData>
  101b32:	e09b      	b	101c6c <.text+0x1c6c>
  101b34:	4844      	ldr	r0, [pc, #272]	(101c48 <.text+0x1c48>)
  101b36:	88c9      	ldrh	r1, [r1, #6]
  101b38:	2243      	mov	r2, #67
  101b3a:	e01b      	b	101b74 <vUSBCDCTask+0x2c8>
  101b3c:	23ff      	mov	r3, #255
  101b3e:	4013      	and	r3, r2
  101b40:	2b04      	cmp	r3, #4
  101b42:	d900      	bls	101b46 <vUSBCDCTask+0x29a>
  101b44:	e090      	b	101c68 <.text+0x1c68>
  101b46:	4a41      	ldr	r2, [pc, #260]	(101c4c <.text+0x1c4c>)
  101b48:	009b      	lsl	r3, r3, #2
  101b4a:	589b      	ldr	r3, [r3, r2]
  101b4c:	469f      	mov	pc, r3
  101b4e:	4840      	ldr	r0, [pc, #256]	(101c50 <.text+0x1c50>)
  101b50:	88c9      	ldrh	r1, [r1, #6]
  101b52:	2204      	mov	r2, #4
  101b54:	e00e      	b	101b74 <vUSBCDCTask+0x2c8>
  101b56:	483f      	ldr	r0, [pc, #252]	(101c54 <.text+0x1c54>)
  101b58:	88c9      	ldrh	r1, [r1, #6]
  101b5a:	2212      	mov	r2, #18
  101b5c:	e00a      	b	101b74 <vUSBCDCTask+0x2c8>
  101b5e:	483e      	ldr	r0, [pc, #248]	(101c58 <.text+0x1c58>)
  101b60:	88c9      	ldrh	r1, [r1, #6]
  101b62:	2224      	mov	r2, #36
  101b64:	e006      	b	101b74 <vUSBCDCTask+0x2c8>
  101b66:	483d      	ldr	r0, [pc, #244]	(101c5c <.text+0x1c5c>)
  101b68:	88c9      	ldrh	r1, [r1, #6]
  101b6a:	2226      	mov	r2, #38
  101b6c:	e002      	b	101b74 <vUSBCDCTask+0x2c8>
  101b6e:	483c      	ldr	r0, [pc, #240]	(101c60 <.text+0x1c60>)
  101b70:	88c9      	ldrh	r1, [r1, #6]
  101b72:	221e      	mov	r2, #30
  101b74:	2301      	mov	r3, #1
  101b76:	e7da      	b	101b2e <vUSBCDCTask+0x282>
  101b78:	4823      	ldr	r0, [pc, #140]	(101c08 <.text+0x1c08>)
  101b7a:	2101      	mov	r1, #1
  101b7c:	2201      	mov	r2, #1
  101b7e:	e031      	b	101be4 <vUSBCDCTask+0x338>
  101b80:	fde6f7ff 	bl	101750 <prvSendZLP>
  101b84:	4a21      	ldr	r2, [pc, #132]	(101c0c <.text+0x1c0c>)
  101b86:	2303      	mov	r3, #3
  101b88:	6013      	str	r3, [r2, #0]
  101b8a:	4b2c      	ldr	r3, [pc, #176]	(101c3c <.text+0x1c3c>)
  101b8c:	4a2a      	ldr	r2, [pc, #168]	(101c38 <.text+0x1c38>)
  101b8e:	885b      	ldrh	r3, [r3, #2]
  101b90:	6013      	str	r3, [r2, #0]
  101b92:	e06b      	b	101c6c <.text+0x1c6c>
  101b94:	4b29      	ldr	r3, [pc, #164]	(101c3c <.text+0x1c3c>)
  101b96:	4a1c      	ldr	r2, [pc, #112]	(101c08 <.text+0x1c08>)
  101b98:	885b      	ldrh	r3, [r3, #2]
  101b9a:	7013      	strb	r3, [r2, #0]
  101b9c:	4a1b      	ldr	r2, [pc, #108]	(101c0c <.text+0x1c0c>)
  101b9e:	2302      	mov	r3, #2
  101ba0:	6013      	str	r3, [r2, #0]
  101ba2:	fdd5f7ff 	bl	101750 <prvSendZLP>
  101ba6:	e061      	b	101c6c <.text+0x1c6c>
  101ba8:	2300      	mov	r3, #0
  101baa:	a804      	add	r0, sp, #16
  101bac:	8003      	strh	r3, [r0, #0]
  101bae:	7863      	ldrb	r3, [r4, #1]
  101bb0:	2b00      	cmp	r3, #0
  101bb2:	d159      	bne	101c68 <.text+0x1c68>
  101bb4:	2102      	mov	r1, #2
  101bb6:	2202      	mov	r2, #2
  101bb8:	e014      	b	101be4 <vUSBCDCTask+0x338>
  101bba:	7863      	ldrb	r3, [r4, #1]
  101bbc:	2b20      	cmp	r3, #32
  101bbe:	d006      	beq	101bce <vUSBCDCTask+0x322>
  101bc0:	2b20      	cmp	r3, #32
  101bc2:	d951      	bls	101c68 <.text+0x1c68>
  101bc4:	2b21      	cmp	r3, #33
  101bc6:	d00a      	beq	101bde <vUSBCDCTask+0x332>
  101bc8:	2b22      	cmp	r3, #34
  101bca:	d14d      	bne	101c68 <.text+0x1c68>
  101bcc:	e00c      	b	101be8 <vUSBCDCTask+0x33c>
  101bce:	fdbff7ff 	bl	101750 <prvSendZLP>
  101bd2:	1c29      	mov	r1, r5		(add r1, r5, #0)
  101bd4:	2207      	mov	r2, #7
  101bd6:	4823      	ldr	r0, [pc, #140]	(101c64 <.text+0x1c64>)
  101bd8:	fd12f000 	bl	102600 <memcpy>
  101bdc:	e046      	b	101c6c <.text+0x1c6c>
  101bde:	4821      	ldr	r0, [pc, #132]	(101c64 <.text+0x1c64>)
  101be0:	88e1      	ldrh	r1, [r4, #6]
  101be2:	2207      	mov	r2, #7
  101be4:	2300      	mov	r3, #0
  101be6:	e7a2      	b	101b2e <vUSBCDCTask+0x282>
  101be8:	fdb2f7ff 	bl	101750 <prvSendZLP>
  101bec:	4a08      	ldr	r2, [pc, #32]	(101c10 <.text+0x1c10>)
  101bee:	8863      	ldrh	r3, [r4, #2]
  101bf0:	7013      	strb	r3, [r2, #0]
  101bf2:	e03b      	b	101c6c <.text+0x1c6c>
  101bf4:	096c      	lsr	r4, r5, #5
  101bf6:	0020      	lsl	r0, r4, #0
  101bf8:	36e8      	add	r6, #232
  101bfa:	0020      	lsl	r0, r4, #0
  101bfc:	36e4      	add	r6, #228
  101bfe:	0020      	lsl	r0, r4, #0
  101c00:	3774      	add	r7, #116
  101c02:	0020      	lsl	r0, r4, #0
  101c04:	36ec      	add	r6, #236
  101c06:	0020      	lsl	r0, r4, #0
  101c08:	36cc      	add	r6, #204
  101c0a:	0020      	lsl	r0, r4, #0
  101c0c:	36c8      	add	r6, #200
  101c0e:	0020      	lsl	r0, r4, #0
  101c10:	36e0      	add	r6, #224
  101c12:	0020      	lsl	r0, r4, #0
  101c14:	36dc      	add	r6, #220
  101c16:	0020      	lsl	r0, r4, #0
  101c18:	fc20      	second half of BL instruction 0xfc20
  101c1a:	ffff      	second half of BL instruction 0xffff
  101c1c:	fc00      	second half of BL instruction 0xfc00
  101c1e:	ffff      	second half of BL instruction 0xffff
  101c20:	0000      	lsl	r0, r0, #0
  101c22:	fffb      	second half of BL instruction 0xfffb
  101c24:	0074      	lsl	r4, r6, #1
  101c26:	fffb      	second half of BL instruction 0xfffb
  101c28:	fffff000 	bl	102c2a <_vfprintf_r+0x38a>
  101c2c:	0400      	lsl	r0, r0, #16
  101c2e:	0010      	lsl	r0, r2, #0
  101c30:	fffff0fc 	bl	1fec32 <PMC_PLLR_Val+0x6d02d>
  101c34:	36c4      	add	r6, #196
  101c36:	0020      	lsl	r0, r4, #0
  101c38:	36d0      	add	r6, #208
  101c3a:	0020      	lsl	r0, r4, #0
  101c3c:	36d4      	add	r6, #212
  101c3e:	0020      	lsl	r0, r4, #0
  101c40:	b5d0      	push	{r4, r6, r7, lr}
  101c42:	0010      	lsl	r0, r2, #0
  101c44:	b538      	push	{r3, r4, r5, lr}
  101c46:	0010      	lsl	r0, r2, #0
  101c48:	b4f5      	push	{r0, r2, r4, r5, r6, r7}
  101c4a:	0010      	lsl	r0, r2, #0
  101c4c:	b5f8      	push	{r3, r4, r5, r6, r7, lr}
  101c4e:	0010      	lsl	r0, r2, #0
  101c50:	b5c4      	push	{r2, r6, r7, lr}
  101c52:	0010      	lsl	r0, r2, #0
  101c54:	b5b2      	push	{r1, r4, r5, r7, lr}
  101c56:	0010      	lsl	r0, r2, #0
  101c58:	b58e      	push	{r1, r2, r3, r7, lr}
  101c5a:	0010      	lsl	r0, r2, #0
  101c5c:	b568      	push	{r3, r5, r6, lr}
  101c5e:	0010      	lsl	r0, r2, #0
  101c60:	b54a      	push	{r1, r3, r6, lr}
  101c62:	0010      	lsl	r0, r2, #0
  101c64:	b5c8      	push	{r3, r6, r7, lr}
  101c66:	0010      	lsl	r0, r2, #0
  101c68:	fd94f7ff 	bl	101794 <prvSendStall>
  101c6c:	9b03      	ldr	r3, [sp, #12]
  101c6e:	681b      	ldr	r3, [r3, #0]
  101c70:	04da      	lsl	r2, r3, #19
  101c72:	d51e      	bpl	101cb2 <.text+0x1cb2>
  101c74:	4b40      	ldr	r3, [pc, #256]	(101d78 <.text+0x1d78>)
  101c76:	4a41      	ldr	r2, [pc, #260]	(101d7c <.text+0x1d7c>)
  101c78:	2501      	mov	r5, #1
  101c7a:	4c41      	ldr	r4, [pc, #260]	(101d80 <.text+0x1d80>)
  101c7c:	601d      	str	r5, [r3, #0]
  101c7e:	2300      	mov	r3, #0
  101c80:	7013      	strb	r3, [r2, #0]
  101c82:	230f      	mov	r3, #15
  101c84:	62a3      	str	r3, [r4, #40]
  101c86:	2300      	mov	r3, #0
  101c88:	62a3      	str	r3, [r4, #40]
  101c8a:	2380      	mov	r3, #128
  101c8c:	005b      	lsl	r3, r3, #1
  101c8e:	60a3      	str	r3, [r4, #8]
  101c90:	fb74f009 	bl	10b37c <__vPortEnterCritical_from_thumb>
  101c94:	6b22      	ldr	r2, [r4, #48]
  101c96:	234f      	mov	r3, #79
  101c98:	431a      	orr	r2, r3
  101c9a:	2330      	mov	r3, #48
  101c9c:	439a      	bic	r2, r3
  101c9e:	2380      	mov	r3, #128
  101ca0:	021b      	lsl	r3, r3, #8
  101ca2:	431a      	orr	r2, r3
  101ca4:	6322      	str	r2, [r4, #48]
  101ca6:	6125      	str	r5, [r4, #16]
  101ca8:	fb6cf009 	bl	10b384 <__vPortExitCritical_from_thumb>
  101cac:	4a35      	ldr	r2, [pc, #212]	(101d84 <.text+0x1d84>)
  101cae:	2302      	mov	r3, #2
  101cb0:	6013      	str	r3, [r2, #0]
  101cb2:	4b31      	ldr	r3, [pc, #196]	(101d78 <.text+0x1d78>)
  101cb4:	681b      	ldr	r3, [r3, #0]
  101cb6:	2b05      	cmp	r3, #5
  101cb8:	d000      	beq	101cbc <.text+0x1cbc>
  101cba:	e65d      	b	101978 <vUSBCDCTask+0xcc>
  101cbc:	4b2f      	ldr	r3, [pc, #188]	(101d7c <.text+0x1d7c>)
  101cbe:	781b      	ldrb	r3, [r3, #0]
  101cc0:	2b00      	cmp	r3, #0
  101cc2:	d100      	bne	101cc6 <.text+0x1cc6>
  101cc4:	e658      	b	101978 <vUSBCDCTask+0xcc>
  101cc6:	4b2e      	ldr	r3, [pc, #184]	(101d80 <.text+0x1d80>)
  101cc8:	6b9b      	ldr	r3, [r3, #56]
  101cca:	06da      	lsl	r2, r3, #27
  101ccc:	d44e      	bmi	101d6c <.text+0x1d6c>
  101cce:	4b2e      	ldr	r3, [pc, #184]	(101d88 <.text+0x1d88>)
  101cd0:	6818      	ldr	r0, [r3, #0]
  101cd2:	f94ff7ff 	bl	100f74 <uxQueueMessagesWaiting>
  101cd6:	2800      	cmp	r0, #0
  101cd8:	d048      	beq	101d6c <.text+0x1d6c>
  101cda:	2400      	mov	r4, #0
  101cdc:	4b2a      	ldr	r3, [pc, #168]	(101d88 <.text+0x1d88>)
  101cde:	466d      	mov	r5, sp
  101ce0:	3513      	add	r5, #19
  101ce2:	6818      	ldr	r0, [r3, #0]
  101ce4:	1c29      	mov	r1, r5		(add r1, r5, #0)
  101ce6:	2200      	mov	r2, #0
  101ce8:	f984f7ff 	bl	100ff4 <xQueueReceive>
  101cec:	2800      	cmp	r0, #0
  101cee:	d005      	beq	101cfc <.text+0x1cfc>
  101cf0:	782a      	ldrb	r2, [r5, #0]
  101cf2:	4b23      	ldr	r3, [pc, #140]	(101d80 <.text+0x1d80>)
  101cf4:	3401      	add	r4, #1
  101cf6:	659a      	str	r2, [r3, #88]
  101cf8:	2c40      	cmp	r4, #64
  101cfa:	d1ef      	bne	101cdc <.text+0x1cdc>
  101cfc:	4b20      	ldr	r3, [pc, #128]	(101d80 <.text+0x1d80>)
  101cfe:	6b9a      	ldr	r2, [r3, #56]
  101d00:	2110      	mov	r1, #16
  101d02:	430a      	orr	r2, r1
  101d04:	639a      	str	r2, [r3, #56]
  101d06:	e031      	b	101d6c <.text+0x1d6c>
  101d08:	6b4b      	ldr	r3, [r1, #52]
  101d0a:	015b      	lsl	r3, r3, #5
  101d0c:	0d5d      	lsr	r5, r3, #21
  101d0e:	4b1f      	ldr	r3, [pc, #124]	(101d8c <.text+0x1d8c>)
  101d10:	6818      	ldr	r0, [r3, #0]
  101d12:	f92ff7ff 	bl	100f74 <uxQueueMessagesWaiting>
  101d16:	23c8      	mov	r3, #200
  101d18:	1a1b      	sub	r3, r3, r0
  101d1a:	429d      	cmp	r5, r3
  101d1c:	d300      	bcc	101d20 <.text+0x1d20>
  101d1e:	e62b      	b	101978 <vUSBCDCTask+0xcc>
  101d20:	2400      	mov	r4, #0
  101d22:	e00a      	b	101d3a <.text+0x1d3a>
  101d24:	4b16      	ldr	r3, [pc, #88]	(101d80 <.text+0x1d80>)
  101d26:	4669      	mov	r1, sp
  101d28:	6d5b      	ldr	r3, [r3, #84]
  101d2a:	3113      	add	r1, #19
  101d2c:	700b      	strb	r3, [r1, #0]
  101d2e:	4b17      	ldr	r3, [pc, #92]	(101d8c <.text+0x1d8c>)
  101d30:	2200      	mov	r2, #0
  101d32:	6818      	ldr	r0, [r3, #0]
  101d34:	f9d0f7ff 	bl	1010d8 <xQueueSend>
  101d38:	3401      	add	r4, #1
  101d3a:	42ac      	cmp	r4, r5
  101d3c:	d1f2      	bne	101d24 <.text+0x1d24>
  101d3e:	4c10      	ldr	r4, [pc, #64]	(101d80 <.text+0x1d80>)
  101d40:	fb1cf009 	bl	10b37c <__vPortEnterCritical_from_thumb>
  101d44:	6b63      	ldr	r3, [r4, #52]
  101d46:	4d0f      	ldr	r5, [pc, #60]	(101d84 <.text+0x1d84>)
  101d48:	224f      	mov	r2, #79
  101d4a:	4313      	orr	r3, r2
  101d4c:	2230      	mov	r2, #48
  101d4e:	4393      	bic	r3, r2
  101d50:	682a      	ldr	r2, [r5, #0]
  101d52:	4393      	bic	r3, r2
  101d54:	6363      	str	r3, [r4, #52]
  101d56:	fb15f009 	bl	10b384 <__vPortExitCritical_from_thumb>
  101d5a:	2202      	mov	r2, #2
  101d5c:	6122      	str	r2, [r4, #16]
  101d5e:	682b      	ldr	r3, [r5, #0]
  101d60:	2b02      	cmp	r3, #2
  101d62:	d102      	bne	101d6a <.text+0x1d6a>
  101d64:	2340      	mov	r3, #64
  101d66:	602b      	str	r3, [r5, #0]
  101d68:	e000      	b	101d6c <.text+0x1d6c>
  101d6a:	602a      	str	r2, [r5, #0]
  101d6c:	4904      	ldr	r1, [pc, #16]	(101d80 <.text+0x1d80>)
  101d6e:	6b4a      	ldr	r2, [r1, #52]
  101d70:	2342      	mov	r3, #66
  101d72:	421a      	tst	r2, r3
  101d74:	d1c8      	bne	101d08 <.text+0x1d08>
  101d76:	e5ff      	b	101978 <vUSBCDCTask+0xcc>
  101d78:	36c8      	add	r6, #200
  101d7a:	0020      	lsl	r0, r4, #0
  101d7c:	36e0      	add	r6, #224
  101d7e:	0020      	lsl	r0, r4, #0
  101d80:	0000      	lsl	r0, r0, #0
  101d82:	fffb      	second half of BL instruction 0xfffb
  101d84:	36dc      	add	r6, #220
  101d86:	0020      	lsl	r0, r4, #0
  101d88:	36e4      	add	r6, #228
  101d8a:	0020      	lsl	r0, r4, #0
  101d8c:	36e8      	add	r6, #232
  101d8e:	0020      	lsl	r0, r4, #0

00101d90 <InitGPIO>:
  101d90:	b500      	push	{lr}
  101d92:	4803      	ldr	r0, [pc, #12]	(101da0 <.text+0x1da0>)
  101d94:	4903      	ldr	r1, [pc, #12]	(101da4 <.text+0x1da4>)
  101d96:	fd71f7fe 	bl	10087c <AT91F_PIO_CfgOutput>
  101d9a:	bc01      	pop	{r0}
  101d9c:	4700      	bx	r0
  101d9e:	0000      	lsl	r0, r0, #0
  101da0:	fffff400 	bl	ffd02da2 <PMC_USBDIV+0xcfd02da2>
  101da4:	0110      	lsl	r0, r2, #4
  101da6:	0801      	lsr	r1, r0, #0

00101da8 <PWM_SetDutyCycle>:
  101da8:	b510      	push	{r4, lr}
  101daa:	4b0c      	ldr	r3, [pc, #48]	(101ddc <.text+0x1ddc>)
  101dac:	0600      	lsl	r0, r0, #24
  101dae:	0e00      	lsr	r0, r0, #24
  101db0:	68da      	ldr	r2, [r3, #12]
  101db2:	2301      	mov	r3, #1
  101db4:	0409      	lsl	r1, r1, #16
  101db6:	4083      	lsl	r3, r0
  101db8:	0c0c      	lsr	r4, r1, #16
  101dba:	0140      	lsl	r0, r0, #5
  101dbc:	421a      	tst	r2, r3
  101dbe:	d101      	bne	101dc4 <PWM_SetDutyCycle+0x1c>
  101dc0:	4a07      	ldr	r2, [pc, #28]	(101de0 <.text+0x1de0>)
  101dc2:	e006      	b	101dd2 <PWM_SetDutyCycle+0x2a>
  101dc4:	4b07      	ldr	r3, [pc, #28]	(101de4 <.text+0x1de4>)
  101dc6:	18c1      	add	r1, r0, r3
  101dc8:	680b      	ldr	r3, [r1, #0]
  101dca:	4a07      	ldr	r2, [pc, #28]	(101de8 <.text+0x1de8>)
  101dcc:	4013      	and	r3, r2
  101dce:	600b      	str	r3, [r1, #0]
  101dd0:	4a06      	ldr	r2, [pc, #24]	(101dec <.text+0x1dec>)
  101dd2:	1883      	add	r3, r0, r2
  101dd4:	601c      	str	r4, [r3, #0]
  101dd6:	bc10      	pop	{r4}
  101dd8:	bc01      	pop	{r0}
  101dda:	4700      	bx	r0
  101ddc:	c000      	stmia	r0!,{}
  101dde:	fffc      	second half of BL instruction 0xfffc
  101de0:	c204      	stmia	r2!,{r2}
  101de2:	fffc      	second half of BL instruction 0xfffc
  101de4:	c200      	stmia	r2!,{}
  101de6:	fffc      	second half of BL instruction 0xfffc
  101de8:	fbff      	second half of BL instruction 0xfbff
  101dea:	ffff      	second half of BL instruction 0xffff
  101dec:	c210      	stmia	r2!,{r4}
  101dee:	fffc      	second half of BL instruction 0xfffc

00101df0 <InitADC>:
  101df0:	b510      	push	{r4, lr}
  101df2:	4c07      	ldr	r4, [pc, #28]	(101e10 <.text+0x1e10>)
  101df4:	1c20      	mov	r0, r4		(add r0, r4, #0)
  101df6:	fd6ff7fe 	bl	1008d8 <AT91F_ADC_SoftReset>
  101dfa:	1c20      	mov	r0, r4		(add r0, r4, #0)
  101dfc:	4905      	ldr	r1, [pc, #20]	(101e14 <.text+0x1e14>)
  101dfe:	fd63f7fe 	bl	1008c8 <AT91F_ADC_CfgModeReg>
  101e02:	1c20      	mov	r0, r4		(add r0, r4, #0)
  101e04:	21ff      	mov	r1, #255
  101e06:	fd61f7fe 	bl	1008cc <AT91F_ADC_EnableChannel>
  101e0a:	bc10      	pop	{r4}
  101e0c:	bc01      	pop	{r0}
  101e0e:	4700      	bx	r0
  101e10:	8000      	strh	r0, [r0, #0]
  101e12:	fffd      	second half of BL instruction 0xfffd
  101e14:	0400      	lsl	r0, r0, #16
  101e16:	030c      	lsl	r4, r1, #12

00101e18 <ReadAllADC>:
  101e18:	b5f0      	push	{r4, r5, r6, r7, lr}
  101e1a:	1c04      	mov	r4, r0		(add r4, r0, #0)
  101e1c:	4818      	ldr	r0, [pc, #96]	(101e80 <.text+0x1e80>)
  101e1e:	1c0d      	mov	r5, r1		(add r5, r1, #0)
  101e20:	1c16      	mov	r6, r2		(add r6, r2, #0)
  101e22:	1c1f      	mov	r7, r3		(add r7, r3, #0)
  101e24:	fd54f7fe 	bl	1008d0 <AT91F_ADC_StartConversion>
  101e28:	4815      	ldr	r0, [pc, #84]	(101e80 <.text+0x1e80>)
  101e2a:	fd4bf7fe 	bl	1008c4 <AT91F_ADC_GetStatus>
  101e2e:	0603      	lsl	r3, r0, #24
  101e30:	d5fa      	bpl	101e28 <ReadAllADC+0x10>
  101e32:	4813      	ldr	r0, [pc, #76]	(101e80 <.text+0x1e80>)
  101e34:	fd54f7fe 	bl	1008e0 <AT91F_ADC_GetConvertedDataCH0>
  101e38:	6020      	str	r0, [r4, #0]
  101e3a:	4811      	ldr	r0, [pc, #68]	(101e80 <.text+0x1e80>)
  101e3c:	fd52f7fe 	bl	1008e4 <AT91F_ADC_GetConvertedDataCH1>
  101e40:	6028      	str	r0, [r5, #0]
  101e42:	480f      	ldr	r0, [pc, #60]	(101e80 <.text+0x1e80>)
  101e44:	fd50f7fe 	bl	1008e8 <AT91F_ADC_GetConvertedDataCH2>
  101e48:	6030      	str	r0, [r6, #0]
  101e4a:	480d      	ldr	r0, [pc, #52]	(101e80 <.text+0x1e80>)
  101e4c:	fd4ef7fe 	bl	1008ec <AT91F_ADC_GetConvertedDataCH3>
  101e50:	6038      	str	r0, [r7, #0]
  101e52:	480b      	ldr	r0, [pc, #44]	(101e80 <.text+0x1e80>)
  101e54:	fd4cf7fe 	bl	1008f0 <AT91F_ADC_GetConvertedDataCH4>
  101e58:	9b05      	ldr	r3, [sp, #20]
  101e5a:	6018      	str	r0, [r3, #0]
  101e5c:	4808      	ldr	r0, [pc, #32]	(101e80 <.text+0x1e80>)
  101e5e:	fd49f7fe 	bl	1008f4 <AT91F_ADC_GetConvertedDataCH5>
  101e62:	9b06      	ldr	r3, [sp, #24]
  101e64:	6018      	str	r0, [r3, #0]
  101e66:	4806      	ldr	r0, [pc, #24]	(101e80 <.text+0x1e80>)
  101e68:	fd46f7fe 	bl	1008f8 <AT91F_ADC_GetConvertedDataCH6>
  101e6c:	9b07      	ldr	r3, [sp, #28]
  101e6e:	6018      	str	r0, [r3, #0]
  101e70:	4803      	ldr	r0, [pc, #12]	(101e80 <.text+0x1e80>)
  101e72:	fd43f7fe 	bl	1008fc <AT91F_ADC_GetConvertedDataCH7>
  101e76:	9b08      	ldr	r3, [sp, #32]
  101e78:	6018      	str	r0, [r3, #0]
  101e7a:	bcf0      	pop	{r4, r5, r6, r7}
  101e7c:	bc01      	pop	{r0}
  101e7e:	4700      	bx	r0
  101e80:	8000      	strh	r0, [r0, #0]
  101e82:	fffd      	second half of BL instruction 0xfffd

00101e84 <InitLEDs>:
  101e84:	b510      	push	{r4, lr}
  101e86:	4c06      	ldr	r4, [pc, #24]	(101ea0 <.text+0x1ea0>)
  101e88:	2106      	mov	r1, #6
  101e8a:	1c20      	mov	r0, r4		(add r0, r4, #0)
  101e8c:	fcf6f7fe 	bl	10087c <AT91F_PIO_CfgOutput>
  101e90:	1c20      	mov	r0, r4		(add r0, r4, #0)
  101e92:	2106      	mov	r1, #6
  101e94:	fd08f7fe 	bl	1008a8 <AT91F_PIO_SetOutput>
  101e98:	bc10      	pop	{r4}
  101e9a:	bc01      	pop	{r0}
  101e9c:	4700      	bx	r0
  101e9e:	0000      	lsl	r0, r0, #0
  101ea0:	fffff400 	bl	ffd02ea2 <PMC_USBDIV+0xcfd02ea2>

00101ea4 <EnableLED>:
  101ea4:	b500      	push	{lr}
  101ea6:	1c01      	mov	r1, r0		(add r1, r0, #0)
  101ea8:	4802      	ldr	r0, [pc, #8]	(101eb4 <.text+0x1eb4>)
  101eaa:	fcfff7fe 	bl	1008ac <AT91F_PIO_ClearOutput>
  101eae:	bc01      	pop	{r0}
  101eb0:	4700      	bx	r0
  101eb2:	0000      	lsl	r0, r0, #0
  101eb4:	fffff400 	bl	ffd02eb6 <PMC_USBDIV+0xcfd02eb6>

00101eb8 <DisableLED>:
  101eb8:	b500      	push	{lr}
  101eba:	1c01      	mov	r1, r0		(add r1, r0, #0)
  101ebc:	4802      	ldr	r0, [pc, #8]	(101ec8 <.text+0x1ec8>)
  101ebe:	fcf3f7fe 	bl	1008a8 <AT91F_PIO_SetOutput>
  101ec2:	bc01      	pop	{r0}
  101ec4:	4700      	bx	r0
  101ec6:	0000      	lsl	r0, r0, #0
  101ec8:	fffff400 	bl	ffd02eca <PMC_USBDIV+0xcfd02eca>

00101ecc <ToggleLED>:
  101ecc:	b510      	push	{r4, lr}
  101ece:	1c04      	mov	r4, r0		(add r4, r0, #0)
  101ed0:	4808      	ldr	r0, [pc, #32]	(101ef4 <.text+0x1ef4>)
  101ed2:	fce7f7fe 	bl	1008a4 <AT91F_PIO_GetInput>
  101ed6:	4020      	and	r0, r4
  101ed8:	42a0      	cmp	r0, r4
  101eda:	d104      	bne	101ee6 <ToggleLED+0x1a>
  101edc:	4805      	ldr	r0, [pc, #20]	(101ef4 <.text+0x1ef4>)
  101ede:	1c21      	mov	r1, r4		(add r1, r4, #0)
  101ee0:	fce4f7fe 	bl	1008ac <AT91F_PIO_ClearOutput>
  101ee4:	e003      	b	101eee <ToggleLED+0x22>
  101ee6:	4803      	ldr	r0, [pc, #12]	(101ef4 <.text+0x1ef4>)
  101ee8:	1c21      	mov	r1, r4		(add r1, r4, #0)
  101eea:	fcddf7fe 	bl	1008a8 <AT91F_PIO_SetOutput>
  101eee:	bc10      	pop	{r4}
  101ef0:	bc01      	pop	{r0}
  101ef2:	4700      	bx	r0
  101ef4:	fffff400 	bl	ffd02ef6 <PMC_USBDIV+0xcfd02ef6>

00101ef8 <createGPIOTasks>:
  101ef8:	b530      	push	{r4, r5, lr}
  101efa:	b082      	sub	sp, #8
  101efc:	2001      	mov	r0, #1
  101efe:	2100      	mov	r1, #0
  101f00:	ffd4f7fe 	bl	100eac <xQueueCreate>
  101f04:	4b3a      	ldr	r3, [pc, #232]	(101ff0 <.text+0x1ff0>)
  101f06:	6018      	str	r0, [r3, #0]
  101f08:	2800      	cmp	r0, #0
  101f0a:	d003      	beq	101f14 <createGPIOTasks+0x1c>
  101f0c:	2100      	mov	r1, #0
  101f0e:	2200      	mov	r2, #0
  101f10:	f8e2f7ff 	bl	1010d8 <xQueueSend>
  101f14:	2001      	mov	r0, #1
  101f16:	2100      	mov	r1, #0
  101f18:	ffc8f7fe 	bl	100eac <xQueueCreate>
  101f1c:	4b35      	ldr	r3, [pc, #212]	(101ff4 <.text+0x1ff4>)
  101f1e:	6018      	str	r0, [r3, #0]
  101f20:	2800      	cmp	r0, #0
  101f22:	d003      	beq	101f2c <createGPIOTasks+0x34>
  101f24:	2100      	mov	r1, #0
  101f26:	2200      	mov	r2, #0
  101f28:	f8d6f7ff 	bl	1010d8 <xQueueSend>
  101f2c:	2001      	mov	r0, #1
  101f2e:	2100      	mov	r1, #0
  101f30:	ffbcf7fe 	bl	100eac <xQueueCreate>
  101f34:	4b30      	ldr	r3, [pc, #192]	(101ff8 <.text+0x1ff8>)
  101f36:	6018      	str	r0, [r3, #0]
  101f38:	2800      	cmp	r0, #0
  101f3a:	d003      	beq	101f44 <createGPIOTasks+0x4c>
  101f3c:	2100      	mov	r1, #0
  101f3e:	2200      	mov	r2, #0
  101f40:	f8caf7ff 	bl	1010d8 <xQueueSend>
  101f44:	2001      	mov	r0, #1
  101f46:	2100      	mov	r1, #0
  101f48:	ffb0f7fe 	bl	100eac <xQueueCreate>
  101f4c:	4b2b      	ldr	r3, [pc, #172]	(101ffc <.text+0x1ffc>)
  101f4e:	6018      	str	r0, [r3, #0]
  101f50:	2800      	cmp	r0, #0
  101f52:	d003      	beq	101f5c <createGPIOTasks+0x64>
  101f54:	2100      	mov	r1, #0
  101f56:	2200      	mov	r2, #0
  101f58:	f8bef7ff 	bl	1010d8 <xQueueSend>
  101f5c:	2501      	mov	r5, #1
  101f5e:	2400      	mov	r4, #0
  101f60:	4927      	ldr	r1, [pc, #156]	(102000 <.text+0x2000>)
  101f62:	2264      	mov	r2, #100
  101f64:	2300      	mov	r3, #0
  101f66:	4827      	ldr	r0, [pc, #156]	(102004 <.text+0x2004>)
  101f68:	9500      	str	r5, [sp, #0]
  101f6a:	9401      	str	r4, [sp, #4]
  101f6c:	fe90f7fe 	bl	100c90 <xTaskCreate>
  101f70:	4925      	ldr	r1, [pc, #148]	(102008 <.text+0x2008>)
  101f72:	2264      	mov	r2, #100
  101f74:	2300      	mov	r3, #0
  101f76:	4825      	ldr	r0, [pc, #148]	(10200c <.text+0x200c>)
  101f78:	9500      	str	r5, [sp, #0]
  101f7a:	9401      	str	r4, [sp, #4]
  101f7c:	fe88f7fe 	bl	100c90 <xTaskCreate>
  101f80:	4923      	ldr	r1, [pc, #140]	(102010 <.text+0x2010>)
  101f82:	2264      	mov	r2, #100
  101f84:	2300      	mov	r3, #0
  101f86:	4823      	ldr	r0, [pc, #140]	(102014 <.text+0x2014>)
  101f88:	9500      	str	r5, [sp, #0]
  101f8a:	9401      	str	r4, [sp, #4]
  101f8c:	fe80f7fe 	bl	100c90 <xTaskCreate>
  101f90:	2264      	mov	r2, #100
  101f92:	2300      	mov	r3, #0
  101f94:	4920      	ldr	r1, [pc, #128]	(102018 <.text+0x2018>)
  101f96:	4821      	ldr	r0, [pc, #132]	(10201c <.text+0x201c>)
  101f98:	9500      	str	r5, [sp, #0]
  101f9a:	9401      	str	r4, [sp, #4]
  101f9c:	fe78f7fe 	bl	100c90 <xTaskCreate>
  101fa0:	f9ecf009 	bl	10b37c <__vPortEnterCritical_from_thumb>
  101fa4:	481e      	ldr	r0, [pc, #120]	(102020 <.text+0x2020>)
  101fa6:	491f      	ldr	r1, [pc, #124]	(102024 <.text+0x2024>)
  101fa8:	fc6cf7fe 	bl	100884 <AT91F_PIO_CfgInput>
  101fac:	481c      	ldr	r0, [pc, #112]	(102020 <.text+0x2020>)
  101fae:	491d      	ldr	r1, [pc, #116]	(102024 <.text+0x2024>)
  101fb0:	fc70f7fe 	bl	100894 <AT91F_PIO_CfgPullup>
  101fb4:	481a      	ldr	r0, [pc, #104]	(102020 <.text+0x2020>)
  101fb6:	491b      	ldr	r1, [pc, #108]	(102024 <.text+0x2024>)
  101fb8:	fc70f7fe 	bl	10089c <AT91F_PIO_CfgInputFilter>
  101fbc:	4818      	ldr	r0, [pc, #96]	(102020 <.text+0x2020>)
  101fbe:	4919      	ldr	r1, [pc, #100]	(102024 <.text+0x2024>)
  101fc0:	fc64f7fe 	bl	10088c <AT91F_PIO_CfgOpendrain>
  101fc4:	4816      	ldr	r0, [pc, #88]	(102020 <.text+0x2020>)
  101fc6:	4917      	ldr	r1, [pc, #92]	(102024 <.text+0x2024>)
  101fc8:	fc72f7fe 	bl	1008b0 <AT91F_PIO_InterruptEnable>
  101fcc:	4b16      	ldr	r3, [pc, #88]	(102028 <.text+0x2028>)
  101fce:	2206      	mov	r2, #6
  101fd0:	9300      	str	r3, [sp, #0]
  101fd2:	2102      	mov	r1, #2
  101fd4:	2300      	mov	r3, #0
  101fd6:	4815      	ldr	r0, [pc, #84]	(10202c <.text+0x202c>)
  101fd8:	fc2cf7fe 	bl	100834 <AT91F_AIC_ConfigureIt>
  101fdc:	4813      	ldr	r0, [pc, #76]	(10202c <.text+0x202c>)
  101fde:	2102      	mov	r1, #2
  101fe0:	fc3cf7fe 	bl	10085c <AT91F_AIC_EnableIt>
  101fe4:	f9cef009 	bl	10b384 <__vPortExitCritical_from_thumb>
  101fe8:	b002      	add	sp, #8
  101fea:	bc30      	pop	{r4, r5}
  101fec:	bc01      	pop	{r0}
  101fee:	4700      	bx	r0
  101ff0:	097c      	lsr	r4, r7, #5
  101ff2:	0020      	lsl	r0, r4, #0
  101ff4:	0978      	lsr	r0, r7, #5
  101ff6:	0020      	lsl	r0, r4, #0
  101ff8:	0970      	lsr	r0, r6, #5
  101ffa:	0020      	lsl	r0, r4, #0
  101ffc:	0974      	lsr	r4, r6, #5
  101ffe:	0020      	lsl	r0, r4, #0
  102000:	b60c      	undefined instruction 0xb60c
  102002:	0010      	lsl	r0, r2, #0
  102004:	2031      	mov	r0, #49
  102006:	0010      	lsl	r0, r2, #0
  102008:	b61c      	undefined instruction 0xb61c
  10200a:	0010      	lsl	r0, r2, #0
  10200c:	2081      	mov	r0, #129
  10200e:	0010      	lsl	r0, r2, #0
  102010:	b628      	undefined instruction 0xb628
  102012:	0010      	lsl	r0, r2, #0
  102014:	2099      	mov	r0, #153
  102016:	0010      	lsl	r0, r2, #0
  102018:	b634      	undefined instruction 0xb634
  10201a:	0010      	lsl	r0, r2, #0
  10201c:	20b1      	mov	r0, #177
  10201e:	0010      	lsl	r0, r2, #0
  102020:	fffff400 	bl	ffd03022 <PMC_USBDIV+0xcfd03022>
  102024:	0110      	lsl	r0, r2, #4
  102026:	0801      	lsr	r1, r0, #0
  102028:	063c      	lsl	r4, r7, #24
  10202a:	0010      	lsl	r0, r2, #0
  10202c:	fffff000 	bl	10302e <.text+0x302e>

00102030 <onPushbuttonTask>:
  102030:	b500      	push	{lr}
  102032:	4b0f      	ldr	r3, [pc, #60]	(102070 <.text+0x2070>)
  102034:	2201      	mov	r2, #1
  102036:	6818      	ldr	r0, [r3, #0]
  102038:	2100      	mov	r1, #0
  10203a:	4252      	neg	r2, r2
  10203c:	ffdaf7fe 	bl	100ff4 <xQueueReceive>
  102040:	2801      	cmp	r0, #1
  102042:	d1f6      	bne	102032 <onPushbuttonTask+0x2>
  102044:	2007      	mov	r0, #7
  102046:	fd29f7fe 	bl	100a9c <vTaskDelay>
  10204a:	480a      	ldr	r0, [pc, #40]	(102074 <.text+0x2074>)
  10204c:	fc2af7fe 	bl	1008a4 <AT91F_PIO_GetInput>
  102050:	2310      	mov	r3, #16
  102052:	4018      	and	r0, r3
  102054:	d1ed      	bne	102032 <onPushbuttonTask+0x2>
  102056:	4a08      	ldr	r2, [pc, #32]	(102078 <.text+0x2078>)
  102058:	6813      	ldr	r3, [r2, #0]
  10205a:	2b00      	cmp	r3, #0
  10205c:	d001      	beq	102062 <onPushbuttonTask+0x32>
  10205e:	6010      	str	r0, [r2, #0]
  102060:	e7e7      	b	102032 <onPushbuttonTask+0x2>
  102062:	4b06      	ldr	r3, [pc, #24]	(10207c <.text+0x207c>)
  102064:	2100      	mov	r1, #0
  102066:	6818      	ldr	r0, [r3, #0]
  102068:	2200      	mov	r2, #0
  10206a:	f835f7ff 	bl	1010d8 <xQueueSend>
  10206e:	e7e0      	b	102032 <onPushbuttonTask+0x2>
  102070:	097c      	lsr	r4, r7, #5
  102072:	0020      	lsl	r0, r4, #0
  102074:	fffff400 	bl	ffd03076 <PMC_USBDIV+0xcfd03076>
  102078:	0980      	lsr	r0, r0, #6
  10207a:	0020      	lsl	r0, r4, #0
  10207c:	0984      	lsr	r4, r0, #6
  10207e:	0020      	lsl	r0, r4, #0

00102080 <onGPI1Task>:
  102080:	b500      	push	{lr}
  102082:	4b04      	ldr	r3, [pc, #16]	(102094 <.text+0x2094>)
  102084:	2201      	mov	r2, #1
  102086:	6818      	ldr	r0, [r3, #0]
  102088:	2100      	mov	r1, #0
  10208a:	4252      	neg	r2, r2
  10208c:	ffb2f7fe 	bl	100ff4 <xQueueReceive>
  102090:	e7f7      	b	102082 <onGPI1Task+0x2>
  102092:	0000      	lsl	r0, r0, #0
  102094:	0978      	lsr	r0, r7, #5
  102096:	0020      	lsl	r0, r4, #0

00102098 <onGPI2Task>:
  102098:	b500      	push	{lr}
  10209a:	4b04      	ldr	r3, [pc, #16]	(1020ac <.text+0x20ac>)
  10209c:	2201      	mov	r2, #1
  10209e:	6818      	ldr	r0, [r3, #0]
  1020a0:	2100      	mov	r1, #0
  1020a2:	4252      	neg	r2, r2
  1020a4:	ffa6f7fe 	bl	100ff4 <xQueueReceive>
  1020a8:	e7f7      	b	10209a <onGPI2Task+0x2>
  1020aa:	0000      	lsl	r0, r0, #0
  1020ac:	0970      	lsr	r0, r6, #5
  1020ae:	0020      	lsl	r0, r4, #0

001020b0 <onGPI3Task>:
  1020b0:	b500      	push	{lr}
  1020b2:	4b04      	ldr	r3, [pc, #16]	(1020c4 <.text+0x20c4>)
  1020b4:	2201      	mov	r2, #1
  1020b6:	6818      	ldr	r0, [r3, #0]
  1020b8:	2100      	mov	r1, #0
  1020ba:	4252      	neg	r2, r2
  1020bc:	ff9af7fe 	bl	100ff4 <xQueueReceive>
  1020c0:	e7f7      	b	1020b2 <onGPI3Task+0x2>
  1020c2:	0000      	lsl	r0, r0, #0
  1020c4:	0974      	lsr	r4, r6, #5
  1020c6:	0020      	lsl	r0, r4, #0

001020c8 <createLoggerTask>:
  1020c8:	b530      	push	{r4, r5, lr}
  1020ca:	4b11      	ldr	r3, [pc, #68]	(102110 <.text+0x2110>)
  1020cc:	2500      	mov	r5, #0
  1020ce:	b082      	sub	sp, #8
  1020d0:	601d      	str	r5, [r3, #0]
  1020d2:	2001      	mov	r0, #1
  1020d4:	2100      	mov	r1, #0
  1020d6:	fee9f7fe 	bl	100eac <xQueueCreate>
  1020da:	4c0e      	ldr	r4, [pc, #56]	(102114 <.text+0x2114>)
  1020dc:	6020      	str	r0, [r4, #0]
  1020de:	2800      	cmp	r0, #0
  1020e0:	d003      	beq	1020ea <createLoggerTask+0x22>
  1020e2:	2100      	mov	r1, #0
  1020e4:	2200      	mov	r2, #0
  1020e6:	fff7f7fe 	bl	1010d8 <xQueueSend>
  1020ea:	6820      	ldr	r0, [r4, #0]
  1020ec:	2100      	mov	r1, #0
  1020ee:	2201      	mov	r2, #1
  1020f0:	ff80f7fe 	bl	100ff4 <xQueueReceive>
  1020f4:	2303      	mov	r3, #3
  1020f6:	9300      	str	r3, [sp, #0]
  1020f8:	4907      	ldr	r1, [pc, #28]	(102118 <.text+0x2118>)
  1020fa:	22c8      	mov	r2, #200
  1020fc:	2300      	mov	r3, #0
  1020fe:	4807      	ldr	r0, [pc, #28]	(10211c <.text+0x211c>)
  102100:	9501      	str	r5, [sp, #4]
  102102:	fdc5f7fe 	bl	100c90 <xTaskCreate>
  102106:	b002      	add	sp, #8
  102108:	bc30      	pop	{r4, r5}
  10210a:	bc01      	pop	{r0}
  10210c:	4700      	bx	r0
  10210e:	0000      	lsl	r0, r0, #0
  102110:	0980      	lsr	r0, r0, #6
  102112:	0020      	lsl	r0, r4, #0
  102114:	0984      	lsr	r4, r0, #6
  102116:	0020      	lsl	r0, r4, #0
  102118:	b640      	undefined instruction 0xb640
  10211a:	0010      	lsl	r0, r2, #0
  10211c:	2145      	mov	r1, #69
  10211e:	0010      	lsl	r0, r2, #0

00102120 <writeLogFileValue>:
  102120:	b530      	push	{r4, r5, lr}
  102122:	1c04      	mov	r4, r0		(add r4, r0, #0)
  102124:	1c08      	mov	r0, r1		(add r0, r1, #0)
  102126:	1c21      	mov	r1, r4		(add r1, r4, #0)
  102128:	1c15      	mov	r5, r2		(add r5, r2, #0)
  10212a:	fa41f000 	bl	1025b0 <modp_itoa10>
  10212e:	1c20      	mov	r0, r4		(add r0, r4, #0)
  102130:	fb40f000 	bl	1027b4 <strlen>
  102134:	1c22      	mov	r2, r4		(add r2, r4, #0)
  102136:	1c01      	mov	r1, r0		(add r1, r0, #0)
  102138:	1c28      	mov	r0, r5		(add r0, r5, #0)
  10213a:	fd93f007 	bl	109c64 <file_write>
  10213e:	bc30      	pop	{r4, r5}
  102140:	bc01      	pop	{r0}
  102142:	4700      	bx	r0

00102144 <loggerTask>:
  102144:	b570      	push	{r4, r5, r6, lr}
  102146:	b0a9      	sub	sp, #164
  102148:	4b48      	ldr	r3, [pc, #288]	(10226c <.text+0x226c>)
  10214a:	2201      	mov	r2, #1
  10214c:	6818      	ldr	r0, [r3, #0]
  10214e:	2100      	mov	r1, #0
  102150:	4252      	neg	r2, r2
  102152:	ff4ff7fe 	bl	100ff4 <xQueueReceive>
  102156:	1c04      	mov	r4, r0		(add r4, r0, #0)
  102158:	2801      	cmp	r0, #1
  10215a:	d1f5      	bne	102148 <loggerTask+0x4>
  10215c:	f88ef000 	bl	10227c <InitEFS>
  102160:	2800      	cmp	r0, #0
  102162:	d171      	bne	102248 <loggerTask+0x104>
  102164:	a804      	add	r0, sp, #16
  102166:	f89ff000 	bl	1022a8 <OpenNextLogFile>
  10216a:	2800      	cmp	r0, #0
  10216c:	d16c      	bne	102248 <loggerTask+0x104>
  10216e:	4b40      	ldr	r3, [pc, #256]	(102270 <.text+0x2270>)
  102170:	2002      	mov	r0, #2
  102172:	601c      	str	r4, [r3, #0]
  102174:	fe96f7ff 	bl	101ea4 <EnableLED>
  102178:	e066      	b	102248 <loggerTask+0x104>
  10217a:	ab21      	add	r3, sp, #132
  10217c:	9300      	str	r3, [sp, #0]
  10217e:	ab27      	add	r3, sp, #156
  102180:	9301      	str	r3, [sp, #4]
  102182:	ab26      	add	r3, sp, #152
  102184:	9302      	str	r3, [sp, #8]
  102186:	466d      	mov	r5, sp
  102188:	ab28      	add	r3, sp, #160
  10218a:	3561      	add	r5, #97
  10218c:	9303      	str	r3, [sp, #12]
  10218e:	a825      	add	r0, sp, #148
  102190:	ab22      	add	r3, sp, #136
  102192:	a924      	add	r1, sp, #144
  102194:	aa23      	add	r2, sp, #140
  102196:	fe3ff7ff 	bl	101e18 <ReadAllADC>
  10219a:	9925      	ldr	r1, [sp, #148]
  10219c:	1c28      	mov	r0, r5		(add r0, r5, #0)
  10219e:	1c32      	mov	r2, r6		(add r2, r6, #0)
  1021a0:	ffbef7ff 	bl	102120 <writeLogFileValue>
  1021a4:	4c33      	ldr	r4, [pc, #204]	(102274 <.text+0x2274>)
  1021a6:	2101      	mov	r1, #1
  1021a8:	1c22      	mov	r2, r4		(add r2, r4, #0)
  1021aa:	1c30      	mov	r0, r6		(add r0, r6, #0)
  1021ac:	fd5af007 	bl	109c64 <file_write>
  1021b0:	9924      	ldr	r1, [sp, #144]
  1021b2:	1c28      	mov	r0, r5		(add r0, r5, #0)
  1021b4:	1c32      	mov	r2, r6		(add r2, r6, #0)
  1021b6:	ffb3f7ff 	bl	102120 <writeLogFileValue>
  1021ba:	2101      	mov	r1, #1
  1021bc:	1c22      	mov	r2, r4		(add r2, r4, #0)
  1021be:	1c30      	mov	r0, r6		(add r0, r6, #0)
  1021c0:	fd50f007 	bl	109c64 <file_write>
  1021c4:	9923      	ldr	r1, [sp, #140]
  1021c6:	1c28      	mov	r0, r5		(add r0, r5, #0)
  1021c8:	1c32      	mov	r2, r6		(add r2, r6, #0)
  1021ca:	ffa9f7ff 	bl	102120 <writeLogFileValue>
  1021ce:	2101      	mov	r1, #1
  1021d0:	1c22      	mov	r2, r4		(add r2, r4, #0)
  1021d2:	1c30      	mov	r0, r6		(add r0, r6, #0)
  1021d4:	fd46f007 	bl	109c64 <file_write>
  1021d8:	9922      	ldr	r1, [sp, #136]
  1021da:	1c28      	mov	r0, r5		(add r0, r5, #0)
  1021dc:	1c32      	mov	r2, r6		(add r2, r6, #0)
  1021de:	ff9ff7ff 	bl	102120 <writeLogFileValue>
  1021e2:	2101      	mov	r1, #1
  1021e4:	1c22      	mov	r2, r4		(add r2, r4, #0)
  1021e6:	1c30      	mov	r0, r6		(add r0, r6, #0)
  1021e8:	fd3cf007 	bl	109c64 <file_write>
  1021ec:	9921      	ldr	r1, [sp, #132]
  1021ee:	1c28      	mov	r0, r5		(add r0, r5, #0)
  1021f0:	1c32      	mov	r2, r6		(add r2, r6, #0)
  1021f2:	ff95f7ff 	bl	102120 <writeLogFileValue>
  1021f6:	2101      	mov	r1, #1
  1021f8:	1c22      	mov	r2, r4		(add r2, r4, #0)
  1021fa:	1c30      	mov	r0, r6		(add r0, r6, #0)
  1021fc:	fd32f007 	bl	109c64 <file_write>
  102200:	9927      	ldr	r1, [sp, #156]
  102202:	1c28      	mov	r0, r5		(add r0, r5, #0)
  102204:	1c32      	mov	r2, r6		(add r2, r6, #0)
  102206:	ff8bf7ff 	bl	102120 <writeLogFileValue>
  10220a:	2101      	mov	r1, #1
  10220c:	1c22      	mov	r2, r4		(add r2, r4, #0)
  10220e:	1c30      	mov	r0, r6		(add r0, r6, #0)
  102210:	fd28f007 	bl	109c64 <file_write>
  102214:	9926      	ldr	r1, [sp, #152]
  102216:	1c28      	mov	r0, r5		(add r0, r5, #0)
  102218:	1c32      	mov	r2, r6		(add r2, r6, #0)
  10221a:	ff81f7ff 	bl	102120 <writeLogFileValue>
  10221e:	2101      	mov	r1, #1
  102220:	1c22      	mov	r2, r4		(add r2, r4, #0)
  102222:	1c30      	mov	r0, r6		(add r0, r6, #0)
  102224:	fd1ef007 	bl	109c64 <file_write>
  102228:	9928      	ldr	r1, [sp, #160]
  10222a:	1c28      	mov	r0, r5		(add r0, r5, #0)
  10222c:	1c32      	mov	r2, r6		(add r2, r6, #0)
  10222e:	ff77f7ff 	bl	102120 <writeLogFileValue>
  102232:	2101      	mov	r1, #1
  102234:	4a10      	ldr	r2, [pc, #64]	(102278 <.text+0x2278>)
  102236:	1c30      	mov	r0, r6		(add r0, r6, #0)
  102238:	fd14f007 	bl	109c64 <file_write>
  10223c:	2004      	mov	r0, #4
  10223e:	fe45f7ff 	bl	101ecc <ToggleLED>
  102242:	2001      	mov	r0, #1
  102244:	fc2af7fe 	bl	100a9c <vTaskDelay>
  102248:	4b09      	ldr	r3, [pc, #36]	(102270 <.text+0x2270>)
  10224a:	681b      	ldr	r3, [r3, #0]
  10224c:	ae04      	add	r6, sp, #16
  10224e:	2b00      	cmp	r3, #0
  102250:	d193      	bne	10217a <loggerTask+0x36>
  102252:	1c30      	mov	r0, r6		(add r0, r6, #0)
  102254:	fd14f007 	bl	109c80 <file_fclose>
  102258:	f81cf000 	bl	102294 <UnmountEFS>
  10225c:	2002      	mov	r0, #2
  10225e:	fe2bf7ff 	bl	101eb8 <DisableLED>
  102262:	2004      	mov	r0, #4
  102264:	fe28f7ff 	bl	101eb8 <DisableLED>
  102268:	e76e      	b	102148 <loggerTask+0x4>
  10226a:	0000      	lsl	r0, r0, #0
  10226c:	0984      	lsr	r4, r0, #6
  10226e:	0020      	lsl	r0, r4, #0
  102270:	0980      	lsr	r0, r0, #6
  102272:	0020      	lsl	r0, r4, #0
  102274:	b64c      	undefined instruction 0xb64c
  102276:	0010      	lsl	r0, r2, #0
  102278:	b47c      	push	{r2, r3, r4, r5, r6}
  10227a:	0010      	lsl	r0, r2, #0

0010227c <InitEFS>:
  10227c:	b500      	push	{lr}
  10227e:	4804      	ldr	r0, [pc, #16]	(102290 <.text+0x2290>)
  102280:	2100      	mov	r1, #0
  102282:	fab9f006 	bl	1087f8 <efs_init>
  102286:	0600      	lsl	r0, r0, #24
  102288:	1600      	asr	r0, r0, #24
  10228a:	bc02      	pop	{r1}
  10228c:	4708      	bx	r1
  10228e:	0000      	lsl	r0, r0, #0
  102290:	0988      	lsr	r0, r1, #6
  102292:	0020      	lsl	r0, r4, #0

00102294 <UnmountEFS>:
  102294:	b500      	push	{lr}
  102296:	4803      	ldr	r0, [pc, #12]	(1022a4 <.text+0x22a4>)
  102298:	fd7ef006 	bl	108d98 <fs_umount>
  10229c:	0600      	lsl	r0, r0, #24
  10229e:	1600      	asr	r0, r0, #24
  1022a0:	bc02      	pop	{r1}
  1022a2:	4708      	bx	r1
  1022a4:	0e2c      	lsr	r4, r5, #24
  1022a6:	0020      	lsl	r0, r4, #0

001022a8 <OpenNextLogFile>:
  1022a8:	b5f0      	push	{r4, r5, r6, r7, lr}
  1022aa:	b084      	sub	sp, #16
  1022ac:	1c07      	mov	r7, r0		(add r7, r0, #0)
  1022ae:	2500      	mov	r5, #0
  1022b0:	466e      	mov	r6, sp
  1022b2:	3603      	add	r6, #3
  1022b4:	4910      	ldr	r1, [pc, #64]	(1022f8 <.text+0x22f8>)
  1022b6:	1c2a      	mov	r2, r5		(add r2, r5, #0)
  1022b8:	1c30      	mov	r0, r6		(add r0, r6, #0)
  1022ba:	fa29f000 	bl	102710 <sprintf>
  1022be:	4c0f      	ldr	r4, [pc, #60]	(1022fc <.text+0x22fc>)
  1022c0:	1c38      	mov	r0, r7		(add r0, r7, #0)
  1022c2:	1c21      	mov	r1, r4		(add r1, r4, #0)
  1022c4:	1c32      	mov	r2, r6		(add r2, r6, #0)
  1022c6:	2372      	mov	r3, #114
  1022c8:	fd10f007 	bl	109cec <file_fopen>
  1022cc:	0600      	lsl	r0, r0, #24
  1022ce:	2800      	cmp	r0, #0
  1022d0:	d106      	bne	1022e0 <OpenNextLogFile+0x38>
  1022d2:	4b0b      	ldr	r3, [pc, #44]	(102300 <.text+0x2300>)
  1022d4:	3501      	add	r5, #1
  1022d6:	429d      	cmp	r5, r3
  1022d8:	d1ea      	bne	1022b0 <OpenNextLogFile+0x8>
  1022da:	2002      	mov	r0, #2
  1022dc:	4240      	neg	r0, r0
  1022de:	e007      	b	1022f0 <OpenNextLogFile+0x48>
  1022e0:	1c38      	mov	r0, r7		(add r0, r7, #0)
  1022e2:	1c21      	mov	r1, r4		(add r1, r4, #0)
  1022e4:	1c32      	mov	r2, r6		(add r2, r6, #0)
  1022e6:	2377      	mov	r3, #119
  1022e8:	fd00f007 	bl	109cec <file_fopen>
  1022ec:	0600      	lsl	r0, r0, #24
  1022ee:	1600      	asr	r0, r0, #24
  1022f0:	b004      	add	sp, #16
  1022f2:	bcf0      	pop	{r4, r5, r6, r7}
  1022f4:	bc02      	pop	{r1}
  1022f6:	4708      	bx	r1
  1022f8:	b650      	setend	le
  1022fa:	0010      	lsl	r0, r2, #0
  1022fc:	0e2c      	lsr	r4, r5, #24
  1022fe:	0020      	lsl	r0, r4, #0
  102300:	869f      	strh	r7, [r3, #52]
  102302:	0001      	lsl	r1, r0, #0

00102304 <ListRootDir>:
  102304:	b510      	push	{r4, lr}
  102306:	b0d8      	sub	sp, #352
  102308:	4820      	ldr	r0, [pc, #128]	(10238c <.text+0x238c>)
  10230a:	f885f7ff 	bl	101418 <SendString>
  10230e:	ffb5f7ff 	bl	10227c <InitEFS>
  102312:	1c02      	mov	r2, r0		(add r2, r0, #0)
  102314:	2800      	cmp	r0, #0
  102316:	d007      	beq	102328 <ListRootDir+0x24>
  102318:	491d      	ldr	r1, [pc, #116]	(102390 <.text+0x2390>)
  10231a:	4668      	mov	r0, sp
  10231c:	f9f8f000 	bl	102710 <sprintf>
  102320:	4668      	mov	r0, sp
  102322:	f879f7ff 	bl	101418 <SendString>
  102326:	e02c      	b	102382 <ListRootDir+0x7e>
  102328:	481a      	ldr	r0, [pc, #104]	(102394 <.text+0x2394>)
  10232a:	f875f7ff 	bl	101418 <SendString>
  10232e:	491a      	ldr	r1, [pc, #104]	(102398 <.text+0x2398>)
  102330:	4668      	mov	r0, sp
  102332:	fa0ff000 	bl	102754 <strcpy>
  102336:	4668      	mov	r0, sp
  102338:	fa3cf000 	bl	1027b4 <strlen>
  10233c:	1c01      	mov	r1, r0		(add r1, r0, #0)
  10233e:	4668      	mov	r0, sp
  102340:	f8d8f7ff 	bl	1014f4 <SendBytes>
  102344:	4915      	ldr	r1, [pc, #84]	(10239c <.text+0x239c>)
  102346:	4a16      	ldr	r2, [pc, #88]	(1023a0 <.text+0x23a0>)
  102348:	a84b      	add	r0, sp, #300
  10234a:	fcc7f008 	bl	10acdc <ls_openDir>
  10234e:	e00d      	b	10236c <ListRootDir+0x68>
  102350:	4914      	ldr	r1, [pc, #80]	(1023a4 <.text+0x23a4>)
  102352:	74e0      	strb	r0, [r4, #19]
  102354:	9b50      	ldr	r3, [sp, #320]
  102356:	aa4d      	add	r2, sp, #308
  102358:	4668      	mov	r0, sp
  10235a:	f9d9f000 	bl	102710 <sprintf>
  10235e:	4668      	mov	r0, sp
  102360:	fa28f000 	bl	1027b4 <strlen>
  102364:	1c01      	mov	r1, r0		(add r1, r0, #0)
  102366:	4668      	mov	r0, sp
  102368:	f8c4f7ff 	bl	1014f4 <SendBytes>
  10236c:	ac4b      	add	r4, sp, #300
  10236e:	1c20      	mov	r0, r4		(add r0, r4, #0)
  102370:	fd84f008 	bl	10ae7c <ls_getNext>
  102374:	0600      	lsl	r0, r0, #24
  102376:	0e00      	lsr	r0, r0, #24
  102378:	2800      	cmp	r0, #0
  10237a:	d0e9      	beq	102350 <ListRootDir+0x4c>
  10237c:	4807      	ldr	r0, [pc, #28]	(10239c <.text+0x239c>)
  10237e:	fd0bf006 	bl	108d98 <fs_umount>
  102382:	b058      	add	sp, #352
  102384:	bc10      	pop	{r4}
  102386:	bc01      	pop	{r0}
  102388:	4700      	bx	r0
  10238a:	0000      	lsl	r0, r0, #0
  10238c:	b414      	push	{r2, r4}
  10238e:	0010      	lsl	r0, r2, #0
  102390:	b424      	push	{r2, r5}
  102392:	0010      	lsl	r0, r2, #0
  102394:	b65c      	undefined instruction 0xb65c
  102396:	0010      	lsl	r0, r2, #0
  102398:	b664      	cpsie	a
  10239a:	0010      	lsl	r0, r2, #0
  10239c:	0e2c      	lsr	r4, r5, #24
  10239e:	0020      	lsl	r0, r4, #0
  1023a0:	b680      	undefined instruction 0xb680
  1023a2:	0010      	lsl	r0, r2, #0
  1023a4:	b684      	undefined instruction 0xb684
  1023a6:	0010      	lsl	r0, r2, #0

001023a8 <accel_initSPI>:
  1023a8:	4b10      	ldr	r3, [pc, #64]	(1023ec <.text+0x23ec>)
  1023aa:	2220      	mov	r2, #32
  1023ac:	4910      	ldr	r1, [pc, #64]	(1023f0 <.text+0x23f0>)
  1023ae:	611a      	str	r2, [r3, #16]
  1023b0:	2382      	mov	r3, #130
  1023b2:	600b      	str	r3, [r1, #0]
  1023b4:	4b0f      	ldr	r3, [pc, #60]	(1023f4 <.text+0x23f4>)
  1023b6:	601a      	str	r2, [r3, #0]
  1023b8:	4a0f      	ldr	r2, [pc, #60]	(1023f8 <.text+0x23f8>)
  1023ba:	23f0      	mov	r3, #240
  1023bc:	01db      	lsl	r3, r3, #7
  1023be:	6013      	str	r3, [r2, #0]
  1023c0:	2380      	mov	r3, #128
  1023c2:	009b      	lsl	r3, r3, #2
  1023c4:	3204      	add	r2, #4
  1023c6:	6013      	str	r3, [r2, #0]
  1023c8:	23f4      	mov	r3, #244
  1023ca:	01db      	lsl	r3, r3, #7
  1023cc:	3a70      	sub	r2, #112
  1023ce:	6013      	str	r3, [r2, #0]
  1023d0:	23a0      	mov	r3, #160
  1023d2:	011b      	lsl	r3, r3, #4
  1023d4:	3260      	add	r2, #96
  1023d6:	6013      	str	r3, [r2, #0]
  1023d8:	4a08      	ldr	r2, [pc, #32]	(1023fc <.text+0x23fc>)
  1023da:	4b09      	ldr	r3, [pc, #36]	(102400 <.text+0x2400>)
  1023dc:	601a      	str	r2, [r3, #0]
  1023de:	4a09      	ldr	r2, [pc, #36]	(102404 <.text+0x2404>)
  1023e0:	23c0      	mov	r3, #192
  1023e2:	019b      	lsl	r3, r3, #6
  1023e4:	6013      	str	r3, [r2, #0]
  1023e6:	2301      	mov	r3, #1
  1023e8:	600b      	str	r3, [r1, #0]
  1023ea:	4770      	bx	lr
  1023ec:	fc00      	second half of BL instruction 0xfc00
  1023ee:	ffff      	second half of BL instruction 0xffff
  1023f0:	0000      	lsl	r0, r0, #0
  1023f2:	fffe      	second half of BL instruction 0xfffe
  1023f4:	fc10      	second half of BL instruction 0xfc10
  1023f6:	ffff      	second half of BL instruction 0xffff
  1023f8:	fffff470 	bl	ffd733fa <PMC_USBDIV+0xcfd733fa>
  1023fc:	0011      	lsl	r1, r2, #0
  1023fe:	000f      	lsl	r7, r1, #0
  102400:	0004      	lsl	r4, r0, #0
  102402:	fffe      	second half of BL instruction 0xfffe
  102404:	0030      	lsl	r0, r6, #0
  102406:	fffe      	second half of BL instruction 0xfffe

00102408 <spi_init_chip_select>:
  102408:	b5f0      	push	{r4, r5, r6, r7, lr}
  10240a:	1c14      	mov	r4, r2		(add r4, r2, #0)
  10240c:	041b      	lsl	r3, r3, #16
  10240e:	4a0f      	ldr	r2, [pc, #60]	(10244c <.text+0x244c>)
  102410:	0624      	lsl	r4, r4, #24
  102412:	0080      	lsl	r0, r0, #2
  102414:	431c      	orr	r4, r3
  102416:	4b0e      	ldr	r3, [pc, #56]	(102450 <.text+0x2450>)
  102418:	1887      	add	r7, r0, r2
  10241a:	0848      	lsr	r0, r1, #1
  10241c:	18c0      	add	r0, r0, r3
  10241e:	fb4df005 	bl	107abc <__udivsi3>
  102422:	9d05      	ldr	r5, [sp, #20]
  102424:	0200      	lsl	r0, r0, #8
  102426:	9e06      	ldr	r6, [sp, #24]
  102428:	4304      	orr	r4, r0
  10242a:	2d00      	cmp	r5, #0
  10242c:	d001      	beq	102432 <spi_init_chip_select+0x2a>
  10242e:	2302      	mov	r3, #2
  102430:	e000      	b	102434 <spi_init_chip_select+0x2c>
  102432:	2300      	mov	r3, #0
  102434:	4272      	neg	r2, r6
  102436:	4332      	orr	r2, r6
  102438:	4323      	orr	r3, r4
  10243a:	0fd2      	lsr	r2, r2, #31
  10243c:	4313      	orr	r3, r2
  10243e:	2208      	mov	r2, #8
  102440:	4313      	orr	r3, r2
  102442:	603b      	str	r3, [r7, #0]
  102444:	bcf0      	pop	{r4, r5, r6, r7}
  102446:	bc01      	pop	{r0}
  102448:	4700      	bx	r0
  10244a:	0000      	lsl	r0, r0, #0
  10244c:	0030      	lsl	r0, r6, #0
  10244e:	fffe      	second half of BL instruction 0xfffe
  102450:	4238      	tst	r0, r7
  102452:	02dd      	lsl	r5, r3, #11

00102454 <accel_spiSend>:
  102454:	0600      	lsl	r0, r0, #24
  102456:	0e00      	lsr	r0, r0, #24
  102458:	4b0a      	ldr	r3, [pc, #40]	(102484 <.text+0x2484>)
  10245a:	681b      	ldr	r3, [r3, #0]
  10245c:	059a      	lsl	r2, r3, #22
  10245e:	d5fb      	bpl	102458 <accel_spiSend+0x4>
  102460:	4b09      	ldr	r3, [pc, #36]	(102488 <.text+0x2488>)
  102462:	681a      	ldr	r2, [r3, #0]
  102464:	681b      	ldr	r3, [r3, #0]
  102466:	4b07      	ldr	r3, [pc, #28]	(102484 <.text+0x2484>)
  102468:	681b      	ldr	r3, [r3, #0]
  10246a:	079a      	lsl	r2, r3, #30
  10246c:	d5fb      	bpl	102466 <accel_spiSend+0x12>
  10246e:	4b07      	ldr	r3, [pc, #28]	(10248c <.text+0x248c>)
  102470:	6018      	str	r0, [r3, #0]
  102472:	4b04      	ldr	r3, [pc, #16]	(102484 <.text+0x2484>)
  102474:	681b      	ldr	r3, [r3, #0]
  102476:	07da      	lsl	r2, r3, #31
  102478:	d5fb      	bpl	102472 <accel_spiSend+0x1e>
  10247a:	4b03      	ldr	r3, [pc, #12]	(102488 <.text+0x2488>)
  10247c:	6818      	ldr	r0, [r3, #0]
  10247e:	0600      	lsl	r0, r0, #24
  102480:	0e00      	lsr	r0, r0, #24
  102482:	4770      	bx	lr
  102484:	0010      	lsl	r0, r2, #0
  102486:	fffe      	second half of BL instruction 0xfffe
  102488:	0008      	lsl	r0, r1, #0
  10248a:	fffe      	second half of BL instruction 0xfffe
  10248c:	000c      	lsl	r4, r1, #0
  10248e:	fffe      	second half of BL instruction 0xfffe

00102490 <selectChip>:
  102490:	b510      	push	{r4, lr}
  102492:	4c08      	ldr	r4, [pc, #32]	(1024b4 <.text+0x24b4>)
  102494:	4b08      	ldr	r3, [pc, #32]	(1024b8 <.text+0x24b8>)
  102496:	6821      	ldr	r1, [r4, #0]
  102498:	0600      	lsl	r0, r0, #24
  10249a:	0e00      	lsr	r0, r0, #24
  10249c:	2201      	mov	r2, #1
  10249e:	4019      	and	r1, r3
  1024a0:	4082      	lsl	r2, r0
  1024a2:	230f      	mov	r3, #15
  1024a4:	4393      	bic	r3, r2
  1024a6:	041b      	lsl	r3, r3, #16
  1024a8:	4319      	orr	r1, r3
  1024aa:	6021      	str	r1, [r4, #0]
  1024ac:	bc10      	pop	{r4}
  1024ae:	bc01      	pop	{r0}
  1024b0:	4700      	bx	r0
  1024b2:	0000      	lsl	r0, r0, #0
  1024b4:	0004      	lsl	r4, r0, #0
  1024b6:	fffe      	second half of BL instruction 0xfffe
  1024b8:	ffff      	second half of BL instruction 0xffff
  1024ba:	fff0      	second half of BL instruction 0xfff0

001024bc <accel_init>:
  1024bc:	b500      	push	{lr}
  1024be:	b082      	sub	sp, #8
  1024c0:	480a      	ldr	r0, [pc, #40]	(1024ec <.text+0x24ec>)
  1024c2:	ffa9f7fe 	bl	101418 <SendString>
  1024c6:	ff6ff7ff 	bl	1023a8 <accel_initSPI>
  1024ca:	2300      	mov	r3, #0
  1024cc:	9300      	str	r3, [sp, #0]
  1024ce:	2301      	mov	r3, #1
  1024d0:	9301      	str	r3, [sp, #4]
  1024d2:	2001      	mov	r0, #1
  1024d4:	4906      	ldr	r1, [pc, #24]	(1024f0 <.text+0x24f0>)
  1024d6:	2200      	mov	r2, #0
  1024d8:	2300      	mov	r3, #0
  1024da:	ff95f7ff 	bl	102408 <spi_init_chip_select>
  1024de:	4805      	ldr	r0, [pc, #20]	(1024f4 <.text+0x24f4>)
  1024e0:	ff9af7fe 	bl	101418 <SendString>
  1024e4:	b002      	add	sp, #8
  1024e6:	bc01      	pop	{r0}
  1024e8:	4700      	bx	r0
  1024ea:	0000      	lsl	r0, r0, #0
  1024ec:	b698      	undefined instruction 0xb698
  1024ee:	0010      	lsl	r0, r2, #0
  1024f0:	4240      	neg	r0, r0
  1024f2:	000f      	lsl	r7, r1, #0
  1024f4:	b6a0      	undefined instruction 0xb6a0
  1024f6:	0010      	lsl	r0, r2, #0

001024f8 <accel_setup>:
  1024f8:	b500      	push	{lr}
  1024fa:	2001      	mov	r0, #1
  1024fc:	ffc8f7ff 	bl	102490 <selectChip>
  102500:	2004      	mov	r0, #4
  102502:	ffa7f7ff 	bl	102454 <accel_spiSend>
  102506:	2004      	mov	r0, #4
  102508:	ffa4f7ff 	bl	102454 <accel_spiSend>
  10250c:	2380      	mov	r3, #128
  10250e:	4a04      	ldr	r2, [pc, #16]	(102520 <.text+0x2520>)
  102510:	045b      	lsl	r3, r3, #17
  102512:	6013      	str	r3, [r2, #0]
  102514:	4b03      	ldr	r3, [pc, #12]	(102524 <.text+0x2524>)
  102516:	3b01      	sub	r3, #1
  102518:	2b00      	cmp	r3, #0
  10251a:	d1fc      	bne	102516 <accel_setup+0x1e>
  10251c:	bc01      	pop	{r0}
  10251e:	4700      	bx	r0
  102520:	0000      	lsl	r0, r0, #0
  102522:	fffe      	second half of BL instruction 0xfffe
  102524:	4240      	neg	r0, r0
  102526:	000f      	lsl	r7, r1, #0

00102528 <accel_readControlRegister>:
  102528:	b500      	push	{lr}
  10252a:	2001      	mov	r0, #1
  10252c:	ffb0f7ff 	bl	102490 <selectChip>
  102530:	2003      	mov	r0, #3
  102532:	ff8ff7ff 	bl	102454 <accel_spiSend>
  102536:	20ff      	mov	r0, #255
  102538:	ff8cf7ff 	bl	102454 <accel_spiSend>
  10253c:	2380      	mov	r3, #128
  10253e:	4a02      	ldr	r2, [pc, #8]	(102548 <.text+0x2548>)
  102540:	045b      	lsl	r3, r3, #17
  102542:	6013      	str	r3, [r2, #0]
  102544:	bc02      	pop	{r1}
  102546:	4708      	bx	r1
  102548:	0000      	lsl	r0, r0, #0
  10254a:	fffe      	second half of BL instruction 0xfffe

0010254c <accel_readAxis>:
  10254c:	b510      	push	{r4, lr}
  10254e:	0604      	lsl	r4, r0, #24
  102550:	0e24      	lsr	r4, r4, #24
  102552:	2001      	mov	r0, #1
  102554:	ff9cf7ff 	bl	102490 <selectChip>
  102558:	1c20      	mov	r0, r4		(add r0, r4, #0)
  10255a:	ff7bf7ff 	bl	102454 <accel_spiSend>
  10255e:	23c8      	mov	r3, #200
  102560:	3b01      	sub	r3, #1
  102562:	2b00      	cmp	r3, #0
  102564:	d1fc      	bne	102560 <accel_readAxis+0x14>
  102566:	2000      	mov	r0, #0
  102568:	ff74f7ff 	bl	102454 <accel_spiSend>
  10256c:	1c04      	mov	r4, r0		(add r4, r0, #0)
  10256e:	2000      	mov	r0, #0
  102570:	ff70f7ff 	bl	102454 <accel_spiSend>
  102574:	2380      	mov	r3, #128
  102576:	4a08      	ldr	r2, [pc, #32]	(102598 <.text+0x2598>)
  102578:	045b      	lsl	r3, r3, #17
  10257a:	6013      	str	r3, [r2, #0]
  10257c:	23fa      	mov	r3, #250
  10257e:	1c01      	mov	r1, r0		(add r1, r0, #0)
  102580:	009b      	lsl	r3, r3, #2
  102582:	3b01      	sub	r3, #1
  102584:	2b00      	cmp	r3, #0
  102586:	d1fc      	bne	102582 <accel_readAxis+0x36>
  102588:	060b      	lsl	r3, r1, #24
  10258a:	0120      	lsl	r0, r4, #4
  10258c:	0f1b      	lsr	r3, r3, #28
  10258e:	18c0      	add	r0, r0, r3
  102590:	bc10      	pop	{r4}
  102592:	bc02      	pop	{r1}
  102594:	4708      	bx	r1
  102596:	0000      	lsl	r0, r0, #0
  102598:	0000      	lsl	r0, r0, #0
  10259a:	fffe      	second half of BL instruction 0xfffe

0010259c <strreverse>:
  10259c:	e005      	b	1025aa <strreverse+0xe>
  10259e:	780a      	ldrb	r2, [r1, #0]
  1025a0:	7803      	ldrb	r3, [r0, #0]
  1025a2:	700b      	strb	r3, [r1, #0]
  1025a4:	7002      	strb	r2, [r0, #0]
  1025a6:	3901      	sub	r1, #1
  1025a8:	3001      	add	r0, #1
  1025aa:	4281      	cmp	r1, r0
  1025ac:	d8f7      	bhi	10259e <strreverse+0x2>
  1025ae:	4770      	bx	lr

001025b0 <modp_itoa10>:
  1025b0:	b5f0      	push	{r4, r5, r6, r7, lr}
  1025b2:	b081      	sub	sp, #4
  1025b4:	1c07      	mov	r7, r0		(add r7, r0, #0)
  1025b6:	9100      	str	r1, [sp, #0]
  1025b8:	1c05      	mov	r5, r0		(add r5, r0, #0)
  1025ba:	2800      	cmp	r0, #0
  1025bc:	da00      	bge	1025c0 <modp_itoa10+0x10>
  1025be:	4245      	neg	r5, r0
  1025c0:	9e00      	ldr	r6, [sp, #0]
  1025c2:	1c28      	mov	r0, r5		(add r0, r5, #0)
  1025c4:	210a      	mov	r1, #10
  1025c6:	fb75f005 	bl	107cb4 <__modsi3>
  1025ca:	3030      	add	r0, #48
  1025cc:	7030      	strb	r0, [r6, #0]
  1025ce:	210a      	mov	r1, #10
  1025d0:	1c28      	mov	r0, r5		(add r0, r5, #0)
  1025d2:	fab9f005 	bl	107b48 <__divsi3>
  1025d6:	1c74      	add	r4, r6, #1
  1025d8:	1c05      	mov	r5, r0		(add r5, r0, #0)
  1025da:	2800      	cmp	r0, #0
  1025dc:	d001      	beq	1025e2 <modp_itoa10+0x32>
  1025de:	1c26      	mov	r6, r4		(add r6, r4, #0)
  1025e0:	e7ef      	b	1025c2 <modp_itoa10+0x12>
  1025e2:	2f00      	cmp	r7, #0
  1025e4:	da02      	bge	1025ec <modp_itoa10+0x3c>
  1025e6:	232d      	mov	r3, #45
  1025e8:	7023      	strb	r3, [r4, #0]
  1025ea:	1cb4      	add	r4, r6, #2
  1025ec:	2300      	mov	r3, #0
  1025ee:	7023      	strb	r3, [r4, #0]
  1025f0:	9800      	ldr	r0, [sp, #0]
  1025f2:	1e61      	sub	r1, r4, #1
  1025f4:	ffd2f7ff 	bl	10259c <strreverse>
  1025f8:	b001      	add	sp, #4
  1025fa:	bcf0      	pop	{r4, r5, r6, r7}
  1025fc:	bc01      	pop	{r0}
  1025fe:	4700      	bx	r0

00102600 <memcpy>:
  102600:	b530      	push	{r4, r5, lr}
  102602:	1c05      	mov	r5, r0		(add r5, r0, #0)
  102604:	4684      	mov	ip, r0
  102606:	1c14      	mov	r4, r2		(add r4, r2, #0)
  102608:	1c10      	mov	r0, r2		(add r0, r2, #0)
  10260a:	2a0f      	cmp	r2, #15
  10260c:	d904      	bls	102618 <memcpy+0x18>
  10260e:	1c0a      	mov	r2, r1		(add r2, r1, #0)
  102610:	432a      	orr	r2, r5
  102612:	2303      	mov	r3, #3
  102614:	421a      	tst	r2, r3
  102616:	d00e      	beq	102636 <memcpy+0x36>
  102618:	1e63      	sub	r3, r4, #1
  10261a:	d308      	bcc	10262e <memcpy+0x2e>
  10261c:	4662      	mov	r2, ip
  10261e:	189b      	add	r3, r3, r2
  102620:	1c58      	add	r0, r3, #1
  102622:	780b      	ldrb	r3, [r1, #0]
  102624:	7013      	strb	r3, [r2, #0]
  102626:	3201      	add	r2, #1
  102628:	3101      	add	r1, #1
  10262a:	4282      	cmp	r2, r0
  10262c:	d1f9      	bne	102622 <memcpy+0x22>
  10262e:	1c28      	mov	r0, r5		(add r0, r5, #0)
  102630:	bc30      	pop	{r4, r5}
  102632:	bc02      	pop	{r1}
  102634:	4708      	bx	r1
  102636:	1c2a      	mov	r2, r5		(add r2, r5, #0)
  102638:	680b      	ldr	r3, [r1, #0]
  10263a:	6013      	str	r3, [r2, #0]
  10263c:	684b      	ldr	r3, [r1, #4]
  10263e:	6053      	str	r3, [r2, #4]
  102640:	688b      	ldr	r3, [r1, #8]
  102642:	6093      	str	r3, [r2, #8]
  102644:	68cb      	ldr	r3, [r1, #12]
  102646:	3810      	sub	r0, #16
  102648:	60d3      	str	r3, [r2, #12]
  10264a:	3110      	add	r1, #16
  10264c:	3210      	add	r2, #16
  10264e:	280f      	cmp	r0, #15
  102650:	d8f2      	bhi	102638 <memcpy+0x38>
  102652:	1c04      	mov	r4, r0		(add r4, r0, #0)
  102654:	2803      	cmp	r0, #3
  102656:	d905      	bls	102664 <memcpy+0x64>
  102658:	c908      	ldmia	r1!,{r3}
  10265a:	3804      	sub	r0, #4
  10265c:	c208      	stmia	r2!,{r3}
  10265e:	2803      	cmp	r0, #3
  102660:	d8fa      	bhi	102658 <memcpy+0x58>
  102662:	1c04      	mov	r4, r0		(add r4, r0, #0)
  102664:	4694      	mov	ip, r2
  102666:	e7d7      	b	102618 <memcpy+0x18>

00102668 <memset>:
  102668:	b530      	push	{r4, r5, lr}
  10266a:	1c04      	mov	r4, r0		(add r4, r0, #0)
  10266c:	23ff      	mov	r3, #255
  10266e:	1c0d      	mov	r5, r1		(add r5, r1, #0)
  102670:	1c10      	mov	r0, r2		(add r0, r2, #0)
  102672:	46a4      	mov	ip, r4
  102674:	401d      	and	r5, r3
  102676:	2a03      	cmp	r2, #3
  102678:	d902      	bls	102680 <memset+0x18>
  10267a:	2303      	mov	r3, #3
  10267c:	421c      	tst	r4, r3
  10267e:	d00d      	beq	10269c <memset+0x34>
  102680:	1e43      	sub	r3, r0, #1
  102682:	d307      	bcc	102694 <memset+0x2c>
  102684:	4662      	mov	r2, ip
  102686:	189b      	add	r3, r3, r2
  102688:	1c29      	mov	r1, r5		(add r1, r5, #0)
  10268a:	3301      	add	r3, #1
  10268c:	7011      	strb	r1, [r2, #0]
  10268e:	3201      	add	r2, #1
  102690:	429a      	cmp	r2, r3
  102692:	d1fb      	bne	10268c <memset+0x24>
  102694:	1c20      	mov	r0, r4		(add r0, r4, #0)
  102696:	bc30      	pop	{r4, r5}
  102698:	bc02      	pop	{r1}
  10269a:	4708      	bx	r1
  10269c:	022b      	lsl	r3, r5, #8
  10269e:	1c2a      	mov	r2, r5		(add r2, r5, #0)
  1026a0:	431a      	orr	r2, r3
  1026a2:	0413      	lsl	r3, r2, #16
  1026a4:	1c21      	mov	r1, r4		(add r1, r4, #0)
  1026a6:	431a      	orr	r2, r3
  1026a8:	280f      	cmp	r0, #15
  1026aa:	d805      	bhi	1026b8 <memset+0x50>
  1026ac:	3804      	sub	r0, #4
  1026ae:	c104      	stmia	r1!,{r2}
  1026b0:	2803      	cmp	r0, #3
  1026b2:	d8fb      	bhi	1026ac <memset+0x44>
  1026b4:	468c      	mov	ip, r1
  1026b6:	e7e3      	b	102680 <memset+0x18>
  1026b8:	3810      	sub	r0, #16
  1026ba:	600a      	str	r2, [r1, #0]
  1026bc:	604a      	str	r2, [r1, #4]
  1026be:	608a      	str	r2, [r1, #8]
  1026c0:	60ca      	str	r2, [r1, #12]
  1026c2:	3110      	add	r1, #16
  1026c4:	280f      	cmp	r0, #15
  1026c6:	d8f7      	bhi	1026b8 <memset+0x50>
  1026c8:	2803      	cmp	r0, #3
  1026ca:	d8ef      	bhi	1026ac <memset+0x44>
  1026cc:	468c      	mov	ip, r1
  1026ce:	e7d7      	b	102680 <memset+0x18>

001026d0 <_sprintf_r>:
  1026d0:	b40c      	push	{r2, r3}
  1026d2:	b530      	push	{r4, r5, lr}
  1026d4:	b098      	sub	sp, #96
  1026d6:	9100      	str	r1, [sp, #0]
  1026d8:	9104      	str	r1, [sp, #16]
  1026da:	490c      	ldr	r1, [pc, #48]	(10270c <.text+0x270c>)
  1026dc:	ab1b      	add	r3, sp, #108
  1026de:	9102      	str	r1, [sp, #8]
  1026e0:	9105      	str	r1, [sp, #20]
  1026e2:	2101      	mov	r1, #1
  1026e4:	466d      	mov	r5, sp
  1026e6:	cb04      	ldmia	r3!,{r2}
  1026e8:	4249      	neg	r1, r1
  1026ea:	2482      	mov	r4, #130
  1026ec:	81e9      	strh	r1, [r5, #14]
  1026ee:	00a4      	lsl	r4, r4, #2
  1026f0:	4669      	mov	r1, sp
  1026f2:	81ac      	strh	r4, [r5, #12]
  1026f4:	9317      	str	r3, [sp, #92]
  1026f6:	f8d3f000 	bl	1028a0 <_vfprintf_r>
  1026fa:	9a00      	ldr	r2, [sp, #0]
  1026fc:	2300      	mov	r3, #0
  1026fe:	b018      	add	sp, #96
  102700:	7013      	strb	r3, [r2, #0]
  102702:	bc30      	pop	{r4, r5}
  102704:	bc08      	pop	{r3}
  102706:	b002      	add	sp, #8
  102708:	4718      	bx	r3
  10270a:	0000      	lsl	r0, r0, #0
  10270c:	ffff      	second half of BL instruction 0xffff
  10270e:	7fff      	ldrb	r7, [r7, #31]

00102710 <sprintf>:
  102710:	b40e      	push	{r1, r2, r3}
  102712:	b510      	push	{r4, lr}
  102714:	b098      	sub	sp, #96
  102716:	9000      	str	r0, [sp, #0]
  102718:	9004      	str	r0, [sp, #16]
  10271a:	480c      	ldr	r0, [pc, #48]	(10274c <.text+0x274c>)
  10271c:	9002      	str	r0, [sp, #8]
  10271e:	9005      	str	r0, [sp, #20]
  102720:	2001      	mov	r0, #1
  102722:	4669      	mov	r1, sp
  102724:	4240      	neg	r0, r0
  102726:	ab1a      	add	r3, sp, #104
  102728:	81c8      	strh	r0, [r1, #14]
  10272a:	2482      	mov	r4, #130
  10272c:	4808      	ldr	r0, [pc, #32]	(102750 <.text+0x2750>)
  10272e:	cb04      	ldmia	r3!,{r2}
  102730:	00a4      	lsl	r4, r4, #2
  102732:	818c      	strh	r4, [r1, #12]
  102734:	6800      	ldr	r0, [r0, #0]
  102736:	9317      	str	r3, [sp, #92]
  102738:	f8b2f000 	bl	1028a0 <_vfprintf_r>
  10273c:	9a00      	ldr	r2, [sp, #0]
  10273e:	2300      	mov	r3, #0
  102740:	b018      	add	sp, #96
  102742:	7013      	strb	r3, [r2, #0]
  102744:	bc10      	pop	{r4}
  102746:	bc08      	pop	{r3}
  102748:	b003      	add	sp, #12
  10274a:	4718      	bx	r3
  10274c:	ffff      	second half of BL instruction 0xffff
  10274e:	7fff      	ldrb	r7, [r7, #31]
  102750:	0458      	lsl	r0, r3, #17
  102752:	0020      	lsl	r0, r4, #0

00102754 <strcpy>:
  102754:	b570      	push	{r4, r5, r6, lr}
  102756:	1c0a      	mov	r2, r1		(add r2, r1, #0)
  102758:	4302      	orr	r2, r0
  10275a:	2303      	mov	r3, #3
  10275c:	1c04      	mov	r4, r0		(add r4, r0, #0)
  10275e:	421a      	tst	r2, r3
  102760:	d00a      	beq	102778 <strcpy+0x24>
  102762:	1c02      	mov	r2, r0		(add r2, r0, #0)
  102764:	780b      	ldrb	r3, [r1, #0]
  102766:	3101      	add	r1, #1
  102768:	7013      	strb	r3, [r2, #0]
  10276a:	3201      	add	r2, #1
  10276c:	2b00      	cmp	r3, #0
  10276e:	d1f9      	bne	102764 <strcpy+0x10>
  102770:	1c20      	mov	r0, r4		(add r0, r4, #0)
  102772:	bc70      	pop	{r4, r5, r6}
  102774:	bc02      	pop	{r1}
  102776:	4708      	bx	r1
  102778:	680a      	ldr	r2, [r1, #0]
  10277a:	4d0c      	ldr	r5, [pc, #48]	(1027ac <.text+0x27ac>)
  10277c:	1953      	add	r3, r2, r5
  10277e:	4d0c      	ldr	r5, [pc, #48]	(1027b0 <.text+0x27b0>)
  102780:	4393      	bic	r3, r2
  102782:	422b      	tst	r3, r5
  102784:	d001      	beq	10278a <strcpy+0x36>
  102786:	1c02      	mov	r2, r0		(add r2, r0, #0)
  102788:	e7ec      	b	102764 <strcpy+0x10>
  10278a:	c004      	stmia	r0!,{r2}
  10278c:	3104      	add	r1, #4
  10278e:	680a      	ldr	r2, [r1, #0]
  102790:	4e06      	ldr	r6, [pc, #24]	(1027ac <.text+0x27ac>)
  102792:	1993      	add	r3, r2, r6
  102794:	4393      	bic	r3, r2
  102796:	422b      	tst	r3, r5
  102798:	d1f5      	bne	102786 <strcpy+0x32>
  10279a:	c004      	stmia	r0!,{r2}
  10279c:	3104      	add	r1, #4
  10279e:	680a      	ldr	r2, [r1, #0]
  1027a0:	4e02      	ldr	r6, [pc, #8]	(1027ac <.text+0x27ac>)
  1027a2:	1993      	add	r3, r2, r6
  1027a4:	4393      	bic	r3, r2
  1027a6:	422b      	tst	r3, r5
  1027a8:	d0ef      	beq	10278a <strcpy+0x36>
  1027aa:	e7ec      	b	102786 <strcpy+0x32>
  1027ac:	feff      	second half of BL instruction 0xfeff
  1027ae:	fefe      	second half of BL instruction 0xfefe
  1027b0:	8080      	strh	r0, [r0, #4]
  1027b2:	8080      	strh	r0, [r0, #4]

001027b4 <strlen>:
  1027b4:	b530      	push	{r4, r5, lr}
  1027b6:	2303      	mov	r3, #3
  1027b8:	1c04      	mov	r4, r0		(add r4, r0, #0)
  1027ba:	4218      	tst	r0, r3
  1027bc:	d112      	bne	1027e4 <strlen+0x30>
  1027be:	6802      	ldr	r2, [r0, #0]
  1027c0:	490c      	ldr	r1, [pc, #48]	(1027f4 <.text+0x27f4>)
  1027c2:	1853      	add	r3, r2, r1
  1027c4:	4393      	bic	r3, r2
  1027c6:	4a0c      	ldr	r2, [pc, #48]	(1027f8 <.text+0x27f8>)
  1027c8:	4213      	tst	r3, r2
  1027ca:	d10b      	bne	1027e4 <strlen+0x30>
  1027cc:	1c11      	mov	r1, r2		(add r1, r2, #0)
  1027ce:	3004      	add	r0, #4
  1027d0:	6802      	ldr	r2, [r0, #0]
  1027d2:	4d08      	ldr	r5, [pc, #32]	(1027f4 <.text+0x27f4>)
  1027d4:	1953      	add	r3, r2, r5
  1027d6:	4393      	bic	r3, r2
  1027d8:	420b      	tst	r3, r1
  1027da:	d0f8      	beq	1027ce <strlen+0x1a>
  1027dc:	7803      	ldrb	r3, [r0, #0]
  1027de:	2b00      	cmp	r3, #0
  1027e0:	d003      	beq	1027ea <strlen+0x36>
  1027e2:	3001      	add	r0, #1
  1027e4:	7803      	ldrb	r3, [r0, #0]
  1027e6:	2b00      	cmp	r3, #0
  1027e8:	d1fb      	bne	1027e2 <strlen+0x2e>
  1027ea:	1b00      	sub	r0, r0, r4
  1027ec:	bc30      	pop	{r4, r5}
  1027ee:	bc02      	pop	{r1}
  1027f0:	4708      	bx	r1
  1027f2:	0000      	lsl	r0, r0, #0
  1027f4:	feff      	second half of BL instruction 0xfeff
  1027f6:	fefe      	second half of BL instruction 0xfefe
  1027f8:	8080      	strh	r0, [r0, #4]
  1027fa:	8080      	strh	r0, [r0, #4]

001027fc <strncpy>:
  1027fc:	b5f0      	push	{r4, r5, r6, r7, lr}
  1027fe:	1c05      	mov	r5, r0		(add r5, r0, #0)
  102800:	1c08      	mov	r0, r1		(add r0, r1, #0)
  102802:	1c11      	mov	r1, r2		(add r1, r2, #0)
  102804:	1c02      	mov	r2, r0		(add r2, r0, #0)
  102806:	432a      	orr	r2, r5
  102808:	2303      	mov	r3, #3
  10280a:	421a      	tst	r2, r3
  10280c:	d101      	bne	102812 <strncpy+0x16>
  10280e:	2903      	cmp	r1, #3
  102810:	d821      	bhi	102856 <strncpy+0x5a>
  102812:	1c2a      	mov	r2, r5		(add r2, r5, #0)
  102814:	1c04      	mov	r4, r0		(add r4, r0, #0)
  102816:	2900      	cmp	r1, #0
  102818:	d019      	beq	10284e <strncpy+0x52>
  10281a:	7823      	ldrb	r3, [r4, #0]
  10281c:	3901      	sub	r1, #1
  10281e:	7013      	strb	r3, [r2, #0]
  102820:	1c60      	add	r0, r4, #1
  102822:	3201      	add	r2, #1
  102824:	2b00      	cmp	r3, #0
  102826:	d009      	beq	10283c <strncpy+0x40>
  102828:	188c      	add	r4, r1, r2
  10282a:	42a2      	cmp	r2, r4
  10282c:	d006      	beq	10283c <strncpy+0x40>
  10282e:	7803      	ldrb	r3, [r0, #0]
  102830:	3901      	sub	r1, #1
  102832:	7013      	strb	r3, [r2, #0]
  102834:	3001      	add	r0, #1
  102836:	3201      	add	r2, #1
  102838:	2b00      	cmp	r3, #0
  10283a:	d1f6      	bne	10282a <strncpy+0x2e>
  10283c:	1e4b      	sub	r3, r1, #1
  10283e:	d306      	bcc	10284e <strncpy+0x52>
  102840:	18d3      	add	r3, r2, r3
  102842:	2100      	mov	r1, #0
  102844:	3301      	add	r3, #1
  102846:	7011      	strb	r1, [r2, #0]
  102848:	3201      	add	r2, #1
  10284a:	429a      	cmp	r2, r3
  10284c:	d1fb      	bne	102846 <strncpy+0x4a>
  10284e:	1c28      	mov	r0, r5		(add r0, r5, #0)
  102850:	bcf0      	pop	{r4, r5, r6, r7}
  102852:	bc02      	pop	{r1}
  102854:	4708      	bx	r1
  102856:	4e08      	ldr	r6, [pc, #32]	(102878 <.text+0x2878>)
  102858:	1c2c      	mov	r4, r5		(add r4, r5, #0)
  10285a:	6802      	ldr	r2, [r0, #0]
  10285c:	4f07      	ldr	r7, [pc, #28]	(10287c <.text+0x287c>)
  10285e:	19d3      	add	r3, r2, r7
  102860:	4393      	bic	r3, r2
  102862:	4233      	tst	r3, r6
  102864:	d104      	bne	102870 <strncpy+0x74>
  102866:	3904      	sub	r1, #4
  102868:	c404      	stmia	r4!,{r2}
  10286a:	3004      	add	r0, #4
  10286c:	2903      	cmp	r1, #3
  10286e:	d8f4      	bhi	10285a <strncpy+0x5e>
  102870:	1c22      	mov	r2, r4		(add r2, r4, #0)
  102872:	1c04      	mov	r4, r0		(add r4, r0, #0)
  102874:	e7cf      	b	102816 <strncpy+0x1a>
  102876:	0000      	lsl	r0, r0, #0
  102878:	8080      	strh	r0, [r0, #4]
  10287a:	8080      	strh	r0, [r0, #4]
  10287c:	feff      	second half of BL instruction 0xfeff
  10287e:	fefe      	second half of BL instruction 0xfefe

00102880 <__sprint>:
  102880:	b510      	push	{r4, lr}
  102882:	688b      	ldr	r3, [r1, #8]
  102884:	1c0c      	mov	r4, r1		(add r4, r1, #0)
  102886:	2b00      	cmp	r3, #0
  102888:	d104      	bne	102894 <__sprint+0x14>
  10288a:	604b      	str	r3, [r1, #4]
  10288c:	2000      	mov	r0, #0
  10288e:	bc10      	pop	{r4}
  102890:	bc02      	pop	{r1}
  102892:	4708      	bx	r1
  102894:	f8acf003 	bl	1059f0 <__sfvwrite>
  102898:	2300      	mov	r3, #0
  10289a:	60a3      	str	r3, [r4, #8]
  10289c:	6063      	str	r3, [r4, #4]
  10289e:	e7f6      	b	10288e <__sprint+0xe>

001028a0 <_vfprintf_r>:
  1028a0:	b5f0      	push	{r4, r5, r6, r7, lr}
  1028a2:	465f      	mov	r7, fp
  1028a4:	4656      	mov	r6, sl
  1028a6:	464d      	mov	r5, r9
  1028a8:	4644      	mov	r4, r8
  1028aa:	b4f0      	push	{r4, r5, r6, r7}
  1028ac:	4ce2      	ldr	r4, [pc, #904]	(102c38 <.text+0x2c38>)
  1028ae:	44a5      	add	sp, r4
  1028b0:	9105      	str	r1, [sp, #20]
  1028b2:	9304      	str	r3, [sp, #16]
  1028b4:	9006      	str	r0, [sp, #24]
  1028b6:	1c14      	mov	r4, r2		(add r4, r2, #0)
  1028b8:	fa94f003 	bl	105de4 <localeconv>
  1028bc:	4bdf      	ldr	r3, [pc, #892]	(102c3c <.text+0x2c3c>)
  1028be:	6800      	ldr	r0, [r0, #0]
  1028c0:	900d      	str	r0, [sp, #52]
  1028c2:	6818      	ldr	r0, [r3, #0]
  1028c4:	6859      	ldr	r1, [r3, #4]
  1028c6:	9007      	str	r0, [sp, #28]
  1028c8:	9108      	str	r1, [sp, #32]
  1028ca:	9906      	ldr	r1, [sp, #24]
  1028cc:	2900      	cmp	r1, #0
  1028ce:	d004      	beq	1028da <_vfprintf_r+0x3a>
  1028d0:	6b8b      	ldr	r3, [r1, #56]
  1028d2:	2b00      	cmp	r3, #0
  1028d4:	d101      	bne	1028da <_vfprintf_r+0x3a>
  1028d6:	fdb4f000 	bl	103442 <.text+0x3442>
  1028da:	9b05      	ldr	r3, [sp, #20]
  1028dc:	899a      	ldrh	r2, [r3, #12]
  1028de:	2308      	mov	r3, #8
  1028e0:	4213      	tst	r3, r2
  1028e2:	d101      	bne	1028e8 <_vfprintf_r+0x48>
  1028e4:	fddff000 	bl	1034a6 <.text+0x34a6>
  1028e8:	9805      	ldr	r0, [sp, #20]
  1028ea:	6903      	ldr	r3, [r0, #16]
  1028ec:	2b00      	cmp	r3, #0
  1028ee:	d101      	bne	1028f4 <_vfprintf_r+0x54>
  1028f0:	fdd9f000 	bl	1034a6 <.text+0x34a6>
  1028f4:	0413      	lsl	r3, r2, #16
  1028f6:	0c1a      	lsr	r2, r3, #16
  1028f8:	231a      	mov	r3, #26
  1028fa:	4013      	and	r3, r2
  1028fc:	2b0a      	cmp	r3, #10
  1028fe:	d101      	bne	102904 <_vfprintf_r+0x64>
  102900:	fd30f000 	bl	103364 <.text+0x3364>
  102904:	4ace      	ldr	r2, [pc, #824]	(102c40 <.text+0x2c40>)
  102906:	4bcf      	ldr	r3, [pc, #828]	(102c44 <.text+0x2c44>)
  102908:	446a      	add	r2, sp
  10290a:	446b      	add	r3, sp
  10290c:	601a      	str	r2, [r3, #0]
  10290e:	9907      	ldr	r1, [sp, #28]
  102910:	9a08      	ldr	r2, [sp, #32]
  102912:	9416      	str	r4, [sp, #88]
  102914:	20cb      	mov	r0, #203
  102916:	4ccc      	ldr	r4, [pc, #816]	(102c48 <.text+0x2c48>)
  102918:	00c0      	lsl	r0, r0, #3
  10291a:	9114      	str	r1, [sp, #80]
  10291c:	9215      	str	r2, [sp, #84]
  10291e:	4ac8      	ldr	r2, [pc, #800]	(102c40 <.text+0x2c40>)
  102920:	2500      	mov	r5, #0
  102922:	2600      	mov	r6, #0
  102924:	446c      	add	r4, sp
  102926:	4468      	add	r0, sp
  102928:	446a      	add	r2, sp
  10292a:	6026      	str	r6, [r4, #0]
  10292c:	6005      	str	r5, [r0, #0]
  10292e:	950f      	str	r5, [sp, #60]
  102930:	9512      	str	r5, [sp, #72]
  102932:	9513      	str	r5, [sp, #76]
  102934:	950b      	str	r5, [sp, #44]
  102936:	4690      	mov	r8, r2
  102938:	9c16      	ldr	r4, [sp, #88]
  10293a:	7823      	ldrb	r3, [r4, #0]
  10293c:	2b00      	cmp	r3, #0
  10293e:	d120      	bne	102982 <_vfprintf_r+0xe2>
  102940:	9c16      	ldr	r4, [sp, #88]
  102942:	7823      	ldrb	r3, [r4, #0]
  102944:	2b00      	cmp	r3, #0
  102946:	d101      	bne	10294c <_vfprintf_r+0xac>
  102948:	fa12f001 	bl	103d70 <.text+0x3d70>
  10294c:	4abf      	ldr	r2, [pc, #764]	(102c4c <.text+0x2c4c>)
  10294e:	2300      	mov	r3, #0
  102950:	446a      	add	r2, sp
  102952:	1c61      	add	r1, r4, #1
  102954:	9116      	str	r1, [sp, #88]
  102956:	7013      	strb	r3, [r2, #0]
  102958:	2300      	mov	r3, #0
  10295a:	930a      	str	r3, [sp, #40]
  10295c:	930c      	str	r3, [sp, #48]
  10295e:	2601      	mov	r6, #1
  102960:	9d04      	ldr	r5, [sp, #16]
  102962:	7862      	ldrb	r2, [r4, #1]
  102964:	4276      	neg	r6, r6
  102966:	9c16      	ldr	r4, [sp, #88]
  102968:	0613      	lsl	r3, r2, #24
  10296a:	3401      	add	r4, #1
  10296c:	0e1b      	lsr	r3, r3, #24
  10296e:	9416      	str	r4, [sp, #88]
  102970:	469a      	mov	sl, r3
  102972:	4653      	mov	r3, sl
  102974:	3b20      	sub	r3, #32
  102976:	2b58      	cmp	r3, #88
  102978:	d82a      	bhi	1029d0 <_vfprintf_r+0x130>
  10297a:	4ab5      	ldr	r2, [pc, #724]	(102c50 <.text+0x2c50>)
  10297c:	009b      	lsl	r3, r3, #2
  10297e:	589b      	ldr	r3, [r3, r2]
  102980:	469f      	mov	pc, r3
  102982:	2b25      	cmp	r3, #37
  102984:	d0dc      	beq	102940 <_vfprintf_r+0xa0>
  102986:	9c16      	ldr	r4, [sp, #88]
  102988:	3401      	add	r4, #1
  10298a:	7823      	ldrb	r3, [r4, #0]
  10298c:	2b00      	cmp	r3, #0
  10298e:	d100      	bne	102992 <_vfprintf_r+0xf2>
  102990:	e2f0      	b	102f74 <.text+0x2f74>
  102992:	2b25      	cmp	r3, #37
  102994:	d1f8      	bne	102988 <_vfprintf_r+0xe8>
  102996:	9816      	ldr	r0, [sp, #88]
  102998:	1a27      	sub	r7, r4, r0
  10299a:	2f00      	cmp	r7, #0
  10299c:	d0d1      	beq	102942 <_vfprintf_r+0xa2>
  10299e:	9a16      	ldr	r2, [sp, #88]
  1029a0:	4643      	mov	r3, r8
  1029a2:	601a      	str	r2, [r3, #0]
  1029a4:	48a8      	ldr	r0, [pc, #672]	(102c48 <.text+0x2c48>)
  1029a6:	22cb      	mov	r2, #203
  1029a8:	00d2      	lsl	r2, r2, #3
  1029aa:	4468      	add	r0, sp
  1029ac:	446a      	add	r2, sp
  1029ae:	6806      	ldr	r6, [r0, #0]
  1029b0:	6815      	ldr	r5, [r2, #0]
  1029b2:	19be      	add	r6, r7, r6
  1029b4:	2108      	mov	r1, #8
  1029b6:	3501      	add	r5, #1
  1029b8:	605f      	str	r7, [r3, #4]
  1029ba:	6006      	str	r6, [r0, #0]
  1029bc:	4488      	add	r8, r1
  1029be:	6015      	str	r5, [r2, #0]
  1029c0:	2d07      	cmp	r5, #7
  1029c2:	dd01      	ble	1029c8 <_vfprintf_r+0x128>
  1029c4:	fc88f000 	bl	1032d8 <.text+0x32d8>
  1029c8:	980b      	ldr	r0, [sp, #44]
  1029ca:	19c0      	add	r0, r0, r7
  1029cc:	900b      	str	r0, [sp, #44]
  1029ce:	e7b8      	b	102942 <_vfprintf_r+0xa2>
  1029d0:	4652      	mov	r2, sl
  1029d2:	2a00      	cmp	r2, #0
  1029d4:	d101      	bne	1029da <_vfprintf_r+0x13a>
  1029d6:	f9cbf001 	bl	103d70 <.text+0x3d70>
  1029da:	4a9e      	ldr	r2, [pc, #632]	(102c54 <.text+0x2c54>)
  1029dc:	4c9b      	ldr	r4, [pc, #620]	(102c4c <.text+0x2c4c>)
  1029de:	446a      	add	r2, sp
  1029e0:	4653      	mov	r3, sl
  1029e2:	7013      	strb	r3, [r2, #0]
  1029e4:	446c      	add	r4, sp
  1029e6:	2300      	mov	r3, #0
  1029e8:	2000      	mov	r0, #0
  1029ea:	7023      	strb	r3, [r4, #0]
  1029ec:	2701      	mov	r7, #1
  1029ee:	9504      	str	r5, [sp, #16]
  1029f0:	9209      	str	r2, [sp, #36]
  1029f2:	9011      	str	r0, [sp, #68]
  1029f4:	46b9      	mov	r9, r7
  1029f6:	4995      	ldr	r1, [pc, #596]	(102c4c <.text+0x2c4c>)
  1029f8:	4469      	add	r1, sp
  1029fa:	780b      	ldrb	r3, [r1, #0]
  1029fc:	2b00      	cmp	r3, #0
  1029fe:	d100      	bne	102a02 <_vfprintf_r+0x162>
  102a00:	e130      	b	102c64 <.text+0x2c64>
  102a02:	2201      	mov	r2, #1
  102a04:	4491      	add	r9, r2
  102a06:	980a      	ldr	r0, [sp, #40]
  102a08:	2384      	mov	r3, #132
  102a0a:	4018      	and	r0, r3
  102a0c:	4683      	mov	fp, r0
  102a0e:	d000      	beq	102a12 <_vfprintf_r+0x172>
  102a10:	e0a6      	b	102b60 <_vfprintf_r+0x2c0>
  102a12:	990c      	ldr	r1, [sp, #48]
  102a14:	464a      	mov	r2, r9
  102a16:	1a8c      	sub	r4, r1, r2
  102a18:	2c00      	cmp	r4, #0
  102a1a:	dc00      	bgt	102a1e <_vfprintf_r+0x17e>
  102a1c:	e341      	b	1030a2 <.text+0x30a2>
  102a1e:	2c10      	cmp	r4, #16
  102a20:	dd00      	ble	102a24 <_vfprintf_r+0x184>
  102a22:	e247      	b	102eb4 <.text+0x2eb4>
  102a24:	4b88      	ldr	r3, [pc, #544]	(102c48 <.text+0x2c48>)
  102a26:	20cb      	mov	r0, #203
  102a28:	00c0      	lsl	r0, r0, #3
  102a2a:	446b      	add	r3, sp
  102a2c:	4468      	add	r0, sp
  102a2e:	681e      	ldr	r6, [r3, #0]
  102a30:	6805      	ldr	r5, [r0, #0]
  102a32:	4a89      	ldr	r2, [pc, #548]	(102c58 <.text+0x2c58>)
  102a34:	4984      	ldr	r1, [pc, #528]	(102c48 <.text+0x2c48>)
  102a36:	23cb      	mov	r3, #203
  102a38:	4640      	mov	r0, r8
  102a3a:	00db      	lsl	r3, r3, #3
  102a3c:	6002      	str	r2, [r0, #0]
  102a3e:	1936      	add	r6, r6, r4
  102a40:	4469      	add	r1, sp
  102a42:	2208      	mov	r2, #8
  102a44:	3501      	add	r5, #1
  102a46:	446b      	add	r3, sp
  102a48:	6044      	str	r4, [r0, #4]
  102a4a:	600e      	str	r6, [r1, #0]
  102a4c:	4490      	add	r8, r2
  102a4e:	601d      	str	r5, [r3, #0]
  102a50:	2d07      	cmp	r5, #7
  102a52:	dd00      	ble	102a56 <_vfprintf_r+0x1b6>
  102a54:	e312      	b	10307c <.text+0x307c>
  102a56:	4c7d      	ldr	r4, [pc, #500]	(102c4c <.text+0x2c4c>)
  102a58:	446c      	add	r4, sp
  102a5a:	7823      	ldrb	r3, [r4, #0]
  102a5c:	2b00      	cmp	r3, #0
  102a5e:	d100      	bne	102a62 <_vfprintf_r+0x1c2>
  102a60:	e08b      	b	102b7a <_vfprintf_r+0x2da>
  102a62:	4640      	mov	r0, r8
  102a64:	2301      	mov	r3, #1
  102a66:	6043      	str	r3, [r0, #4]
  102a68:	4977      	ldr	r1, [pc, #476]	(102c48 <.text+0x2c48>)
  102a6a:	23cb      	mov	r3, #203
  102a6c:	00db      	lsl	r3, r3, #3
  102a6e:	3601      	add	r6, #1
  102a70:	4469      	add	r1, sp
  102a72:	2208      	mov	r2, #8
  102a74:	3501      	add	r5, #1
  102a76:	446b      	add	r3, sp
  102a78:	6004      	str	r4, [r0, #0]
  102a7a:	600e      	str	r6, [r1, #0]
  102a7c:	4490      	add	r8, r2
  102a7e:	601d      	str	r5, [r3, #0]
  102a80:	2d07      	cmp	r5, #7
  102a82:	dd00      	ble	102a86 <_vfprintf_r+0x1e6>
  102a84:	e094      	b	102bb0 <_vfprintf_r+0x310>
  102a86:	465a      	mov	r2, fp
  102a88:	2a80      	cmp	r2, #128
  102a8a:	d100      	bne	102a8e <_vfprintf_r+0x1ee>
  102a8c:	e0a6      	b	102bdc <_vfprintf_r+0x33c>
  102a8e:	9b11      	ldr	r3, [sp, #68]
  102a90:	1bdc      	sub	r4, r3, r7
  102a92:	2c00      	cmp	r4, #0
  102a94:	dd14      	ble	102ac0 <_vfprintf_r+0x220>
  102a96:	2c10      	cmp	r4, #16
  102a98:	dd00      	ble	102a9c <_vfprintf_r+0x1fc>
  102a9a:	e14d      	b	102d38 <.text+0x2d38>
  102a9c:	4a6f      	ldr	r2, [pc, #444]	(102c5c <.text+0x2c5c>)
  102a9e:	496a      	ldr	r1, [pc, #424]	(102c48 <.text+0x2c48>)
  102aa0:	23cb      	mov	r3, #203
  102aa2:	4640      	mov	r0, r8
  102aa4:	00db      	lsl	r3, r3, #3
  102aa6:	6002      	str	r2, [r0, #0]
  102aa8:	1936      	add	r6, r6, r4
  102aaa:	4469      	add	r1, sp
  102aac:	2208      	mov	r2, #8
  102aae:	3501      	add	r5, #1
  102ab0:	446b      	add	r3, sp
  102ab2:	6044      	str	r4, [r0, #4]
  102ab4:	600e      	str	r6, [r1, #0]
  102ab6:	4490      	add	r8, r2
  102ab8:	601d      	str	r5, [r3, #0]
  102aba:	2d07      	cmp	r5, #7
  102abc:	dd00      	ble	102ac0 <_vfprintf_r+0x220>
  102abe:	e1e6      	b	102e8e <.text+0x2e8e>
  102ac0:	9a0a      	ldr	r2, [sp, #40]
  102ac2:	05d2      	lsl	r2, r2, #23
  102ac4:	d500      	bpl	102ac8 <_vfprintf_r+0x228>
  102ac6:	e0d4      	b	102c72 <.text+0x2c72>
  102ac8:	485f      	ldr	r0, [pc, #380]	(102c48 <.text+0x2c48>)
  102aca:	9b09      	ldr	r3, [sp, #36]
  102acc:	4644      	mov	r4, r8
  102ace:	19be      	add	r6, r7, r6
  102ad0:	4468      	add	r0, sp
  102ad2:	6023      	str	r3, [r4, #0]
  102ad4:	6067      	str	r7, [r4, #4]
  102ad6:	6006      	str	r6, [r0, #0]
  102ad8:	4641      	mov	r1, r8
  102ada:	22cb      	mov	r2, #203
  102adc:	00d2      	lsl	r2, r2, #3
  102ade:	3501      	add	r5, #1
  102ae0:	446a      	add	r2, sp
  102ae2:	3108      	add	r1, #8
  102ae4:	6015      	str	r5, [r2, #0]
  102ae6:	2d07      	cmp	r5, #7
  102ae8:	dd00      	ble	102aec <_vfprintf_r+0x24c>
  102aea:	e1c2      	b	102e72 <.text+0x2e72>
  102aec:	9c0a      	ldr	r4, [sp, #40]
  102aee:	0764      	lsl	r4, r4, #29
  102af0:	d51a      	bpl	102b28 <_vfprintf_r+0x288>
  102af2:	980c      	ldr	r0, [sp, #48]
  102af4:	464a      	mov	r2, r9
  102af6:	1a84      	sub	r4, r0, r2
  102af8:	2c00      	cmp	r4, #0
  102afa:	dd15      	ble	102b28 <_vfprintf_r+0x288>
  102afc:	2c10      	cmp	r4, #16
  102afe:	dd00      	ble	102b02 <_vfprintf_r+0x262>
  102b00:	e20b      	b	102f1a <.text+0x2f1a>
  102b02:	20cb      	mov	r0, #203
  102b04:	00c0      	lsl	r0, r0, #3
  102b06:	4468      	add	r0, sp
  102b08:	6805      	ldr	r5, [r0, #0]
  102b0a:	4a53      	ldr	r2, [pc, #332]	(102c58 <.text+0x2c58>)
  102b0c:	1936      	add	r6, r6, r4
  102b0e:	604c      	str	r4, [r1, #4]
  102b10:	4b4d      	ldr	r3, [pc, #308]	(102c48 <.text+0x2c48>)
  102b12:	24cb      	mov	r4, #203
  102b14:	00e4      	lsl	r4, r4, #3
  102b16:	446b      	add	r3, sp
  102b18:	3501      	add	r5, #1
  102b1a:	446c      	add	r4, sp
  102b1c:	600a      	str	r2, [r1, #0]
  102b1e:	601e      	str	r6, [r3, #0]
  102b20:	6025      	str	r5, [r4, #0]
  102b22:	2d07      	cmp	r5, #7
  102b24:	dd00      	ble	102b28 <_vfprintf_r+0x288>
  102b26:	e2f8      	b	10311a <.text+0x311a>
  102b28:	9b0c      	ldr	r3, [sp, #48]
  102b2a:	454b      	cmp	r3, r9
  102b2c:	da00      	bge	102b30 <_vfprintf_r+0x290>
  102b2e:	464b      	mov	r3, r9
  102b30:	990b      	ldr	r1, [sp, #44]
  102b32:	18c9      	add	r1, r1, r3
  102b34:	910b      	str	r1, [sp, #44]
  102b36:	2e00      	cmp	r6, #0
  102b38:	d000      	beq	102b3c <_vfprintf_r+0x29c>
  102b3a:	e12c      	b	102d96 <.text+0x2d96>
  102b3c:	22cb      	mov	r2, #203
  102b3e:	00d2      	lsl	r2, r2, #3
  102b40:	9b13      	ldr	r3, [sp, #76]
  102b42:	2500      	mov	r5, #0
  102b44:	446a      	add	r2, sp
  102b46:	6015      	str	r5, [r2, #0]
  102b48:	2b00      	cmp	r3, #0
  102b4a:	d100      	bne	102b4e <_vfprintf_r+0x2ae>
  102b4c:	e11f      	b	102d8e <.text+0x2d8e>
  102b4e:	9806      	ldr	r0, [sp, #24]
  102b50:	1c19      	mov	r1, r3		(add r1, r3, #0)
  102b52:	fe6df002 	bl	105830 <_free_r>
  102b56:	4c3a      	ldr	r4, [pc, #232]	(102c40 <.text+0x2c40>)
  102b58:	446c      	add	r4, sp
  102b5a:	46a0      	mov	r8, r4
  102b5c:	9513      	str	r5, [sp, #76]
  102b5e:	e6eb      	b	102938 <_vfprintf_r+0x98>
  102b60:	23cb      	mov	r3, #203
  102b62:	4c3a      	ldr	r4, [pc, #232]	(102c4c <.text+0x2c4c>)
  102b64:	00db      	lsl	r3, r3, #3
  102b66:	446b      	add	r3, sp
  102b68:	4a37      	ldr	r2, [pc, #220]	(102c48 <.text+0x2c48>)
  102b6a:	446c      	add	r4, sp
  102b6c:	681d      	ldr	r5, [r3, #0]
  102b6e:	7823      	ldrb	r3, [r4, #0]
  102b70:	446a      	add	r2, sp
  102b72:	6816      	ldr	r6, [r2, #0]
  102b74:	2b00      	cmp	r3, #0
  102b76:	d000      	beq	102b7a <_vfprintf_r+0x2da>
  102b78:	e773      	b	102a62 <_vfprintf_r+0x1c2>
  102b7a:	9a0a      	ldr	r2, [sp, #40]
  102b7c:	2102      	mov	r1, #2
  102b7e:	420a      	tst	r2, r1
  102b80:	d081      	beq	102a86 <_vfprintf_r+0x1e6>
  102b82:	4b37      	ldr	r3, [pc, #220]	(102c60 <.text+0x2c60>)
  102b84:	4640      	mov	r0, r8
  102b86:	446b      	add	r3, sp
  102b88:	2230      	mov	r2, #48
  102b8a:	4654      	mov	r4, sl
  102b8c:	701a      	strb	r2, [r3, #0]
  102b8e:	705c      	strb	r4, [r3, #1]
  102b90:	6003      	str	r3, [r0, #0]
  102b92:	6041      	str	r1, [r0, #4]
  102b94:	23cb      	mov	r3, #203
  102b96:	492c      	ldr	r1, [pc, #176]	(102c48 <.text+0x2c48>)
  102b98:	00db      	lsl	r3, r3, #3
  102b9a:	3602      	add	r6, #2
  102b9c:	4469      	add	r1, sp
  102b9e:	2208      	mov	r2, #8
  102ba0:	3501      	add	r5, #1
  102ba2:	446b      	add	r3, sp
  102ba4:	600e      	str	r6, [r1, #0]
  102ba6:	4490      	add	r8, r2
  102ba8:	601d      	str	r5, [r3, #0]
  102baa:	2d07      	cmp	r5, #7
  102bac:	dc00      	bgt	102bb0 <_vfprintf_r+0x310>
  102bae:	e76a      	b	102a86 <_vfprintf_r+0x1e6>
  102bb0:	4924      	ldr	r1, [pc, #144]	(102c44 <.text+0x2c44>)
  102bb2:	9805      	ldr	r0, [sp, #20]
  102bb4:	4469      	add	r1, sp
  102bb6:	fe63f7ff 	bl	102880 <__sprint>
  102bba:	2800      	cmp	r0, #0
  102bbc:	d000      	beq	102bc0 <_vfprintf_r+0x320>
  102bbe:	e0f2      	b	102da6 <.text+0x2da6>
  102bc0:	4c1f      	ldr	r4, [pc, #124]	(102c40 <.text+0x2c40>)
  102bc2:	4821      	ldr	r0, [pc, #132]	(102c48 <.text+0x2c48>)
  102bc4:	21cb      	mov	r1, #203
  102bc6:	00c9      	lsl	r1, r1, #3
  102bc8:	446c      	add	r4, sp
  102bca:	4468      	add	r0, sp
  102bcc:	4469      	add	r1, sp
  102bce:	465a      	mov	r2, fp
  102bd0:	46a0      	mov	r8, r4
  102bd2:	6806      	ldr	r6, [r0, #0]
  102bd4:	680d      	ldr	r5, [r1, #0]
  102bd6:	2a80      	cmp	r2, #128
  102bd8:	d000      	beq	102bdc <_vfprintf_r+0x33c>
  102bda:	e758      	b	102a8e <_vfprintf_r+0x1ee>
  102bdc:	9b0c      	ldr	r3, [sp, #48]
  102bde:	4648      	mov	r0, r9
  102be0:	1a1c      	sub	r4, r3, r0
  102be2:	2c00      	cmp	r4, #0
  102be4:	dc00      	bgt	102be8 <_vfprintf_r+0x348>
  102be6:	e752      	b	102a8e <_vfprintf_r+0x1ee>
  102be8:	2c10      	cmp	r4, #16
  102bea:	dd00      	ble	102bee <_vfprintf_r+0x34e>
  102bec:	e21a      	b	103024 <.text+0x3024>
  102bee:	4a1b      	ldr	r2, [pc, #108]	(102c5c <.text+0x2c5c>)
  102bf0:	4641      	mov	r1, r8
  102bf2:	1936      	add	r6, r6, r4
  102bf4:	600a      	str	r2, [r1, #0]
  102bf6:	604c      	str	r4, [r1, #4]
  102bf8:	4a13      	ldr	r2, [pc, #76]	(102c48 <.text+0x2c48>)
  102bfa:	24cb      	mov	r4, #203
  102bfc:	00e4      	lsl	r4, r4, #3
  102bfe:	446a      	add	r2, sp
  102c00:	2308      	mov	r3, #8
  102c02:	3501      	add	r5, #1
  102c04:	446c      	add	r4, sp
  102c06:	6016      	str	r6, [r2, #0]
  102c08:	4498      	add	r8, r3
  102c0a:	6025      	str	r5, [r4, #0]
  102c0c:	2d07      	cmp	r5, #7
  102c0e:	dc00      	bgt	102c12 <_vfprintf_r+0x372>
  102c10:	e73d      	b	102a8e <_vfprintf_r+0x1ee>
  102c12:	490c      	ldr	r1, [pc, #48]	(102c44 <.text+0x2c44>)
  102c14:	9805      	ldr	r0, [sp, #20]
  102c16:	4469      	add	r1, sp
  102c18:	fe32f7ff 	bl	102880 <__sprint>
  102c1c:	2800      	cmp	r0, #0
  102c1e:	d000      	beq	102c22 <_vfprintf_r+0x382>
  102c20:	e0c1      	b	102da6 <.text+0x2da6>
  102c22:	4909      	ldr	r1, [pc, #36]	(102c48 <.text+0x2c48>)
  102c24:	22cb      	mov	r2, #203
  102c26:	4806      	ldr	r0, [pc, #24]	(102c40 <.text+0x2c40>)
  102c28:	00d2      	lsl	r2, r2, #3
  102c2a:	4469      	add	r1, sp
  102c2c:	446a      	add	r2, sp
  102c2e:	4468      	add	r0, sp
  102c30:	680e      	ldr	r6, [r1, #0]
  102c32:	6815      	ldr	r5, [r2, #0]
  102c34:	4680      	mov	r8, r0
  102c36:	e72a      	b	102a8e <_vfprintf_r+0x1ee>
  102c38:	f984      	second half of BL instruction 0xf984
  102c3a:	ffff      	second half of BL instruction 0xffff
  102c3c:	b6d4      	undefined instruction 0xb6d4
  102c3e:	0010      	lsl	r0, r2, #0
  102c40:	0614      	lsl	r4, r2, #24
  102c42:	0000      	lsl	r0, r0, #0
  102c44:	0654      	lsl	r4, r2, #25
  102c46:	0000      	lsl	r0, r0, #0
  102c48:	065c      	lsl	r4, r3, #25
  102c4a:	0000      	lsl	r0, r0, #0
  102c4c:	067b      	lsl	r3, r7, #25
  102c4e:	0000      	lsl	r0, r0, #0
  102c50:	b6dc      	undefined instruction 0xb6dc
  102c52:	0010      	lsl	r0, r2, #0
  102c54:	045c      	lsl	r4, r3, #17
  102c56:	0000      	lsl	r0, r0, #0
  102c58:	b6c4      	undefined instruction 0xb6c4
  102c5a:	0010      	lsl	r0, r2, #0
  102c5c:	b6b4      	undefined instruction 0xb6b4
  102c5e:	0010      	lsl	r0, r2, #0
  102c60:	0679      	lsl	r1, r7, #25
  102c62:	0000      	lsl	r0, r0, #0
  102c64:	9b0a      	ldr	r3, [sp, #40]
  102c66:	079b      	lsl	r3, r3, #30
  102c68:	d400      	bmi	102c6c <.text+0x2c6c>
  102c6a:	e6cc      	b	102a06 <_vfprintf_r+0x166>
  102c6c:	2402      	mov	r4, #2
  102c6e:	44a1      	add	r9, r4
  102c70:	e6c9      	b	102a06 <_vfprintf_r+0x166>
  102c72:	4654      	mov	r4, sl
  102c74:	2c65      	cmp	r4, #101
  102c76:	dc00      	bgt	102c7a <.text+0x2c7a>
  102c78:	e0ad      	b	102dd6 <.text+0x2dd6>
  102c7a:	9814      	ldr	r0, [sp, #80]
  102c7c:	9915      	ldr	r1, [sp, #84]
  102c7e:	4bde      	ldr	r3, [pc, #888]	(102ff8 <.text+0x2ff8>)
  102c80:	4adc      	ldr	r2, [pc, #880]	(102ff4 <.text+0x2ff4>)
  102c82:	fbaff008 	bl	10b3e4 <____eqdf2_from_thumb>
  102c86:	2800      	cmp	r0, #0
  102c88:	d000      	beq	102c8c <.text+0x2c8c>
  102c8a:	e176      	b	102f7a <.text+0x2f7a>
  102c8c:	49db      	ldr	r1, [pc, #876]	(102ffc <.text+0x2ffc>)
  102c8e:	22cb      	mov	r2, #203
  102c90:	4469      	add	r1, sp
  102c92:	4bdb      	ldr	r3, [pc, #876]	(103000 <.text+0x3000>)
  102c94:	3601      	add	r6, #1
  102c96:	00d2      	lsl	r2, r2, #3
  102c98:	4640      	mov	r0, r8
  102c9a:	2401      	mov	r4, #1
  102c9c:	600e      	str	r6, [r1, #0]
  102c9e:	3501      	add	r5, #1
  102ca0:	4641      	mov	r1, r8
  102ca2:	446a      	add	r2, sp
  102ca4:	6003      	str	r3, [r0, #0]
  102ca6:	6044      	str	r4, [r0, #4]
  102ca8:	3108      	add	r1, #8
  102caa:	6015      	str	r5, [r2, #0]
  102cac:	2d07      	cmp	r5, #7
  102cae:	dd00      	ble	102cb2 <.text+0x2cb2>
  102cb0:	e293      	b	1031da <.text+0x31da>
  102cb2:	20ce      	mov	r0, #206
  102cb4:	00c0      	lsl	r0, r0, #3
  102cb6:	4468      	add	r0, sp
  102cb8:	6803      	ldr	r3, [r0, #0]
  102cba:	9a10      	ldr	r2, [sp, #64]
  102cbc:	4293      	cmp	r3, r2
  102cbe:	db00      	blt	102cc2 <.text+0x2cc2>
  102cc0:	e237      	b	103132 <.text+0x3132>
  102cc2:	23cb      	mov	r3, #203
  102cc4:	00db      	lsl	r3, r3, #3
  102cc6:	446b      	add	r3, sp
  102cc8:	681d      	ldr	r5, [r3, #0]
  102cca:	4acc      	ldr	r2, [pc, #816]	(102ffc <.text+0x2ffc>)
  102ccc:	980d      	ldr	r0, [sp, #52]
  102cce:	3601      	add	r6, #1
  102cd0:	446a      	add	r2, sp
  102cd2:	3501      	add	r5, #1
  102cd4:	6008      	str	r0, [r1, #0]
  102cd6:	604c      	str	r4, [r1, #4]
  102cd8:	6016      	str	r6, [r2, #0]
  102cda:	3108      	add	r1, #8
  102cdc:	601d      	str	r5, [r3, #0]
  102cde:	2d07      	cmp	r5, #7
  102ce0:	dd01      	ble	102ce6 <.text+0x2ce6>
  102ce2:	fd95f000 	bl	103810 <.text+0x3810>
  102ce6:	9c10      	ldr	r4, [sp, #64]
  102ce8:	3c01      	sub	r4, #1
  102cea:	2c00      	cmp	r4, #0
  102cec:	dc00      	bgt	102cf0 <.text+0x2cf0>
  102cee:	e6fd      	b	102aec <_vfprintf_r+0x24c>
  102cf0:	2c10      	cmp	r4, #16
  102cf2:	dd00      	ble	102cf6 <.text+0x2cf6>
  102cf4:	e3aa      	b	10344c <.text+0x344c>
  102cf6:	23cb      	mov	r3, #203
  102cf8:	00db      	lsl	r3, r3, #3
  102cfa:	446b      	add	r3, sp
  102cfc:	681d      	ldr	r5, [r3, #0]
  102cfe:	4ac1      	ldr	r2, [pc, #772]	(103004 <.text+0x3004>)
  102d00:	604c      	str	r4, [r1, #4]
  102d02:	1936      	add	r6, r6, r4
  102d04:	20cb      	mov	r0, #203
  102d06:	4cbd      	ldr	r4, [pc, #756]	(102ffc <.text+0x2ffc>)
  102d08:	00c0      	lsl	r0, r0, #3
  102d0a:	446c      	add	r4, sp
  102d0c:	3501      	add	r5, #1
  102d0e:	4468      	add	r0, sp
  102d10:	600a      	str	r2, [r1, #0]
  102d12:	6026      	str	r6, [r4, #0]
  102d14:	3108      	add	r1, #8
  102d16:	6005      	str	r5, [r0, #0]
  102d18:	2d07      	cmp	r5, #7
  102d1a:	dc00      	bgt	102d1e <.text+0x2d1e>
  102d1c:	e6e6      	b	102aec <_vfprintf_r+0x24c>
  102d1e:	49ba      	ldr	r1, [pc, #744]	(103008 <.text+0x3008>)
  102d20:	9805      	ldr	r0, [sp, #20]
  102d22:	4469      	add	r1, sp
  102d24:	fdacf7ff 	bl	102880 <__sprint>
  102d28:	2800      	cmp	r0, #0
  102d2a:	d13c      	bne	102da6 <.text+0x2da6>
  102d2c:	4ab3      	ldr	r2, [pc, #716]	(102ffc <.text+0x2ffc>)
  102d2e:	49b7      	ldr	r1, [pc, #732]	(10300c <.text+0x300c>)
  102d30:	446a      	add	r2, sp
  102d32:	6816      	ldr	r6, [r2, #0]
  102d34:	4469      	add	r1, sp
  102d36:	e6d9      	b	102aec <_vfprintf_r+0x24c>
  102d38:	4ab2      	ldr	r2, [pc, #712]	(103004 <.text+0x3004>)
  102d3a:	4693      	mov	fp, r2
  102d3c:	e003      	b	102d46 <.text+0x2d46>
  102d3e:	3c10      	sub	r4, #16
  102d40:	2c10      	cmp	r4, #16
  102d42:	dc00      	bgt	102d46 <.text+0x2d46>
  102d44:	e6ab      	b	102a9e <_vfprintf_r+0x1fe>
  102d46:	4640      	mov	r0, r8
  102d48:	2310      	mov	r3, #16
  102d4a:	6043      	str	r3, [r0, #4]
  102d4c:	6002      	str	r2, [r0, #0]
  102d4e:	49ab      	ldr	r1, [pc, #684]	(102ffc <.text+0x2ffc>)
  102d50:	20cb      	mov	r0, #203
  102d52:	00c0      	lsl	r0, r0, #3
  102d54:	3610      	add	r6, #16
  102d56:	4469      	add	r1, sp
  102d58:	2308      	mov	r3, #8
  102d5a:	3501      	add	r5, #1
  102d5c:	4468      	add	r0, sp
  102d5e:	600e      	str	r6, [r1, #0]
  102d60:	4498      	add	r8, r3
  102d62:	6005      	str	r5, [r0, #0]
  102d64:	2d07      	cmp	r5, #7
  102d66:	ddea      	ble	102d3e <.text+0x2d3e>
  102d68:	49a7      	ldr	r1, [pc, #668]	(103008 <.text+0x3008>)
  102d6a:	9805      	ldr	r0, [sp, #20]
  102d6c:	4469      	add	r1, sp
  102d6e:	fd87f7ff 	bl	102880 <__sprint>
  102d72:	2800      	cmp	r0, #0
  102d74:	d117      	bne	102da6 <.text+0x2da6>
  102d76:	4aa1      	ldr	r2, [pc, #644]	(102ffc <.text+0x2ffc>)
  102d78:	23cb      	mov	r3, #203
  102d7a:	49a4      	ldr	r1, [pc, #656]	(10300c <.text+0x300c>)
  102d7c:	00db      	lsl	r3, r3, #3
  102d7e:	446a      	add	r2, sp
  102d80:	446b      	add	r3, sp
  102d82:	4469      	add	r1, sp
  102d84:	6816      	ldr	r6, [r2, #0]
  102d86:	681d      	ldr	r5, [r3, #0]
  102d88:	4688      	mov	r8, r1
  102d8a:	465a      	mov	r2, fp
  102d8c:	e7d7      	b	102d3e <.text+0x2d3e>
  102d8e:	4a9f      	ldr	r2, [pc, #636]	(10300c <.text+0x300c>)
  102d90:	446a      	add	r2, sp
  102d92:	4690      	mov	r8, r2
  102d94:	e5d0      	b	102938 <_vfprintf_r+0x98>
  102d96:	499c      	ldr	r1, [pc, #624]	(103008 <.text+0x3008>)
  102d98:	9805      	ldr	r0, [sp, #20]
  102d9a:	4469      	add	r1, sp
  102d9c:	fd70f7ff 	bl	102880 <__sprint>
  102da0:	2800      	cmp	r0, #0
  102da2:	d100      	bne	102da6 <.text+0x2da6>
  102da4:	e6ca      	b	102b3c <_vfprintf_r+0x29c>
  102da6:	9c13      	ldr	r4, [sp, #76]
  102da8:	2c00      	cmp	r4, #0
  102daa:	d003      	beq	102db4 <.text+0x2db4>
  102dac:	9806      	ldr	r0, [sp, #24]
  102dae:	9913      	ldr	r1, [sp, #76]
  102db0:	fd3ef002 	bl	105830 <_free_r>
  102db4:	9805      	ldr	r0, [sp, #20]
  102db6:	8983      	ldrh	r3, [r0, #12]
  102db8:	0659      	lsl	r1, r3, #25
  102dba:	d501      	bpl	102dc0 <.text+0x2dc0>
  102dbc:	fdaff000 	bl	10391e <.text+0x391e>
  102dc0:	4b93      	ldr	r3, [pc, #588]	(103010 <.text+0x3010>)
  102dc2:	980b      	ldr	r0, [sp, #44]
  102dc4:	449d      	add	sp, r3
  102dc6:	bc3c      	pop	{r2, r3, r4, r5}
  102dc8:	4690      	mov	r8, r2
  102dca:	4699      	mov	r9, r3
  102dcc:	46a2      	mov	sl, r4
  102dce:	46ab      	mov	fp, r5
  102dd0:	bcf0      	pop	{r4, r5, r6, r7}
  102dd2:	bc02      	pop	{r1}
  102dd4:	4708      	bx	r1
  102dd6:	9c10      	ldr	r4, [sp, #64]
  102dd8:	2c01      	cmp	r4, #1
  102dda:	dc00      	bgt	102dde <.text+0x2dde>
  102ddc:	e289      	b	1032f2 <.text+0x32f2>
  102dde:	9909      	ldr	r1, [sp, #36]
  102de0:	4a8c      	ldr	r2, [pc, #560]	(103014 <.text+0x3014>)
  102de2:	780b      	ldrb	r3, [r1, #0]
  102de4:	446a      	add	r2, sp
  102de6:	7013      	strb	r3, [r2, #0]
  102de8:	1c0f      	mov	r7, r1		(add r7, r1, #0)
  102dea:	232e      	mov	r3, #46
  102dec:	4883      	ldr	r0, [pc, #524]	(102ffc <.text+0x2ffc>)
  102dee:	21cb      	mov	r1, #203
  102df0:	7053      	strb	r3, [r2, #1]
  102df2:	00c9      	lsl	r1, r1, #3
  102df4:	4643      	mov	r3, r8
  102df6:	4644      	mov	r4, r8
  102df8:	601a      	str	r2, [r3, #0]
  102dfa:	3602      	add	r6, #2
  102dfc:	2302      	mov	r3, #2
  102dfe:	4468      	add	r0, sp
  102e00:	3501      	add	r5, #1
  102e02:	4469      	add	r1, sp
  102e04:	6063      	str	r3, [r4, #4]
  102e06:	3701      	add	r7, #1
  102e08:	6006      	str	r6, [r0, #0]
  102e0a:	3408      	add	r4, #8
  102e0c:	600d      	str	r5, [r1, #0]
  102e0e:	2d07      	cmp	r5, #7
  102e10:	dd00      	ble	102e14 <.text+0x2e14>
  102e12:	e24f      	b	1032b4 <.text+0x32b4>
  102e14:	9814      	ldr	r0, [sp, #80]
  102e16:	9915      	ldr	r1, [sp, #84]
  102e18:	4b77      	ldr	r3, [pc, #476]	(102ff8 <.text+0x2ff8>)
  102e1a:	4a76      	ldr	r2, [pc, #472]	(102ff4 <.text+0x2ff4>)
  102e1c:	fae6f008 	bl	10b3ec <____nedf2_from_thumb>
  102e20:	2800      	cmp	r0, #0
  102e22:	d100      	bne	102e26 <.text+0x2e26>
  102e24:	e145      	b	1030b2 <.text+0x30b2>
  102e26:	9b10      	ldr	r3, [sp, #64]
  102e28:	9810      	ldr	r0, [sp, #64]
  102e2a:	3b01      	sub	r3, #1
  102e2c:	4973      	ldr	r1, [pc, #460]	(102ffc <.text+0x2ffc>)
  102e2e:	22cb      	mov	r2, #203
  102e30:	6063      	str	r3, [r4, #4]
  102e32:	00d2      	lsl	r2, r2, #3
  102e34:	1833      	add	r3, r6, r0
  102e36:	1e5e      	sub	r6, r3, #1
  102e38:	4469      	add	r1, sp
  102e3a:	3501      	add	r5, #1
  102e3c:	446a      	add	r2, sp
  102e3e:	6027      	str	r7, [r4, #0]
  102e40:	600e      	str	r6, [r1, #0]
  102e42:	3408      	add	r4, #8
  102e44:	6015      	str	r5, [r2, #0]
  102e46:	2d07      	cmp	r5, #7
  102e48:	dd00      	ble	102e4c <.text+0x2e4c>
  102e4a:	e336      	b	1034ba <.text+0x34ba>
  102e4c:	4b72      	ldr	r3, [pc, #456]	(103018 <.text+0x3018>)
  102e4e:	980f      	ldr	r0, [sp, #60]
  102e50:	496a      	ldr	r1, [pc, #424]	(102ffc <.text+0x2ffc>)
  102e52:	446b      	add	r3, sp
  102e54:	4469      	add	r1, sp
  102e56:	1986      	add	r6, r0, r6
  102e58:	6023      	str	r3, [r4, #0]
  102e5a:	6060      	str	r0, [r4, #4]
  102e5c:	600e      	str	r6, [r1, #0]
  102e5e:	1c21      	mov	r1, r4		(add r1, r4, #0)
  102e60:	22cb      	mov	r2, #203
  102e62:	00d2      	lsl	r2, r2, #3
  102e64:	3501      	add	r5, #1
  102e66:	446a      	add	r2, sp
  102e68:	3108      	add	r1, #8
  102e6a:	6015      	str	r5, [r2, #0]
  102e6c:	2d07      	cmp	r5, #7
  102e6e:	dc00      	bgt	102e72 <.text+0x2e72>
  102e70:	e63c      	b	102aec <_vfprintf_r+0x24c>
  102e72:	4965      	ldr	r1, [pc, #404]	(103008 <.text+0x3008>)
  102e74:	9805      	ldr	r0, [sp, #20]
  102e76:	4469      	add	r1, sp
  102e78:	fd02f7ff 	bl	102880 <__sprint>
  102e7c:	2800      	cmp	r0, #0
  102e7e:	d000      	beq	102e82 <.text+0x2e82>
  102e80:	e791      	b	102da6 <.text+0x2da6>
  102e82:	4b5e      	ldr	r3, [pc, #376]	(102ffc <.text+0x2ffc>)
  102e84:	4961      	ldr	r1, [pc, #388]	(10300c <.text+0x300c>)
  102e86:	446b      	add	r3, sp
  102e88:	681e      	ldr	r6, [r3, #0]
  102e8a:	4469      	add	r1, sp
  102e8c:	e62e      	b	102aec <_vfprintf_r+0x24c>
  102e8e:	495e      	ldr	r1, [pc, #376]	(103008 <.text+0x3008>)
  102e90:	9805      	ldr	r0, [sp, #20]
  102e92:	4469      	add	r1, sp
  102e94:	fcf4f7ff 	bl	102880 <__sprint>
  102e98:	2800      	cmp	r0, #0
  102e9a:	d000      	beq	102e9e <.text+0x2e9e>
  102e9c:	e783      	b	102da6 <.text+0x2da6>
  102e9e:	4857      	ldr	r0, [pc, #348]	(102ffc <.text+0x2ffc>)
  102ea0:	21cb      	mov	r1, #203
  102ea2:	4c5a      	ldr	r4, [pc, #360]	(10300c <.text+0x300c>)
  102ea4:	00c9      	lsl	r1, r1, #3
  102ea6:	4468      	add	r0, sp
  102ea8:	4469      	add	r1, sp
  102eaa:	446c      	add	r4, sp
  102eac:	6806      	ldr	r6, [r0, #0]
  102eae:	680d      	ldr	r5, [r1, #0]
  102eb0:	46a0      	mov	r8, r4
  102eb2:	e605      	b	102ac0 <_vfprintf_r+0x220>
  102eb4:	4851      	ldr	r0, [pc, #324]	(102ffc <.text+0x2ffc>)
  102eb6:	21cb      	mov	r1, #203
  102eb8:	00c9      	lsl	r1, r1, #3
  102eba:	4468      	add	r0, sp
  102ebc:	4469      	add	r1, sp
  102ebe:	6806      	ldr	r6, [r0, #0]
  102ec0:	680d      	ldr	r5, [r1, #0]
  102ec2:	4a56      	ldr	r2, [pc, #344]	(10301c <.text+0x301c>)
  102ec4:	e003      	b	102ece <.text+0x2ece>
  102ec6:	3c10      	sub	r4, #16
  102ec8:	2c10      	cmp	r4, #16
  102eca:	dc00      	bgt	102ece <.text+0x2ece>
  102ecc:	e5b2      	b	102a34 <_vfprintf_r+0x194>
  102ece:	4643      	mov	r3, r8
  102ed0:	4640      	mov	r0, r8
  102ed2:	601a      	str	r2, [r3, #0]
  102ed4:	2310      	mov	r3, #16
  102ed6:	6043      	str	r3, [r0, #4]
  102ed8:	4948      	ldr	r1, [pc, #288]	(102ffc <.text+0x2ffc>)
  102eda:	20cb      	mov	r0, #203
  102edc:	00c0      	lsl	r0, r0, #3
  102ede:	3610      	add	r6, #16
  102ee0:	4469      	add	r1, sp
  102ee2:	2308      	mov	r3, #8
  102ee4:	3501      	add	r5, #1
  102ee6:	4468      	add	r0, sp
  102ee8:	600e      	str	r6, [r1, #0]
  102eea:	4498      	add	r8, r3
  102eec:	6005      	str	r5, [r0, #0]
  102eee:	2d07      	cmp	r5, #7
  102ef0:	dde9      	ble	102ec6 <.text+0x2ec6>
  102ef2:	4945      	ldr	r1, [pc, #276]	(103008 <.text+0x3008>)
  102ef4:	9805      	ldr	r0, [sp, #20]
  102ef6:	4469      	add	r1, sp
  102ef8:	fcc2f7ff 	bl	102880 <__sprint>
  102efc:	2800      	cmp	r0, #0
  102efe:	d000      	beq	102f02 <.text+0x2f02>
  102f00:	e751      	b	102da6 <.text+0x2da6>
  102f02:	4a3e      	ldr	r2, [pc, #248]	(102ffc <.text+0x2ffc>)
  102f04:	23cb      	mov	r3, #203
  102f06:	4941      	ldr	r1, [pc, #260]	(10300c <.text+0x300c>)
  102f08:	00db      	lsl	r3, r3, #3
  102f0a:	446a      	add	r2, sp
  102f0c:	446b      	add	r3, sp
  102f0e:	4469      	add	r1, sp
  102f10:	6816      	ldr	r6, [r2, #0]
  102f12:	681d      	ldr	r5, [r3, #0]
  102f14:	4a41      	ldr	r2, [pc, #260]	(10301c <.text+0x301c>)
  102f16:	4688      	mov	r8, r1
  102f18:	e7d5      	b	102ec6 <.text+0x2ec6>
  102f1a:	23cb      	mov	r3, #203
  102f1c:	00db      	lsl	r3, r3, #3
  102f1e:	446b      	add	r3, sp
  102f20:	4a3e      	ldr	r2, [pc, #248]	(10301c <.text+0x301c>)
  102f22:	681d      	ldr	r5, [r3, #0]
  102f24:	4690      	mov	r8, r2
  102f26:	e003      	b	102f30 <.text+0x2f30>
  102f28:	3c10      	sub	r4, #16
  102f2a:	2c10      	cmp	r4, #16
  102f2c:	dc00      	bgt	102f30 <.text+0x2f30>
  102f2e:	e5ed      	b	102b0c <_vfprintf_r+0x26c>
  102f30:	2310      	mov	r3, #16
  102f32:	604b      	str	r3, [r1, #4]
  102f34:	4831      	ldr	r0, [pc, #196]	(102ffc <.text+0x2ffc>)
  102f36:	23cb      	mov	r3, #203
  102f38:	00db      	lsl	r3, r3, #3
  102f3a:	3610      	add	r6, #16
  102f3c:	4468      	add	r0, sp
  102f3e:	3501      	add	r5, #1
  102f40:	446b      	add	r3, sp
  102f42:	600a      	str	r2, [r1, #0]
  102f44:	6006      	str	r6, [r0, #0]
  102f46:	3108      	add	r1, #8
  102f48:	601d      	str	r5, [r3, #0]
  102f4a:	2d07      	cmp	r5, #7
  102f4c:	ddec      	ble	102f28 <.text+0x2f28>
  102f4e:	492e      	ldr	r1, [pc, #184]	(103008 <.text+0x3008>)
  102f50:	9805      	ldr	r0, [sp, #20]
  102f52:	4469      	add	r1, sp
  102f54:	fc94f7ff 	bl	102880 <__sprint>
  102f58:	2800      	cmp	r0, #0
  102f5a:	d000      	beq	102f5e <.text+0x2f5e>
  102f5c:	e723      	b	102da6 <.text+0x2da6>
  102f5e:	4827      	ldr	r0, [pc, #156]	(102ffc <.text+0x2ffc>)
  102f60:	22cb      	mov	r2, #203
  102f62:	00d2      	lsl	r2, r2, #3
  102f64:	446a      	add	r2, sp
  102f66:	4929      	ldr	r1, [pc, #164]	(10300c <.text+0x300c>)
  102f68:	4468      	add	r0, sp
  102f6a:	6815      	ldr	r5, [r2, #0]
  102f6c:	6806      	ldr	r6, [r0, #0]
  102f6e:	4469      	add	r1, sp
  102f70:	4642      	mov	r2, r8
  102f72:	e7d9      	b	102f28 <.text+0x2f28>
  102f74:	9916      	ldr	r1, [sp, #88]
  102f76:	1a67      	sub	r7, r4, r1
  102f78:	e50f      	b	10299a <_vfprintf_r+0xfa>
  102f7a:	23ce      	mov	r3, #206
  102f7c:	00db      	lsl	r3, r3, #3
  102f7e:	446b      	add	r3, sp
  102f80:	681a      	ldr	r2, [r3, #0]
  102f82:	2a00      	cmp	r2, #0
  102f84:	dc01      	bgt	102f8a <.text+0x2f8a>
  102f86:	fd3ff000 	bl	103a08 <.text+0x3a08>
  102f8a:	9c10      	ldr	r4, [sp, #64]
  102f8c:	42a2      	cmp	r2, r4
  102f8e:	db00      	blt	102f92 <.text+0x2f92>
  102f90:	e0d4      	b	10313c <.text+0x313c>
  102f92:	9b09      	ldr	r3, [sp, #36]
  102f94:	4644      	mov	r4, r8
  102f96:	6023      	str	r3, [r4, #0]
  102f98:	4818      	ldr	r0, [pc, #96]	(102ffc <.text+0x2ffc>)
  102f9a:	23cb      	mov	r3, #203
  102f9c:	00db      	lsl	r3, r3, #3
  102f9e:	18b6      	add	r6, r6, r2
  102fa0:	4468      	add	r0, sp
  102fa2:	4641      	mov	r1, r8
  102fa4:	3501      	add	r5, #1
  102fa6:	446b      	add	r3, sp
  102fa8:	6062      	str	r2, [r4, #4]
  102faa:	6006      	str	r6, [r0, #0]
  102fac:	3108      	add	r1, #8
  102fae:	601d      	str	r5, [r3, #0]
  102fb0:	2d07      	cmp	r5, #7
  102fb2:	dd01      	ble	102fb8 <.text+0x2fb8>
  102fb4:	fc70f000 	bl	103898 <.text+0x3898>
  102fb8:	4b19      	ldr	r3, [pc, #100]	(103020 <.text+0x3020>)
  102fba:	9809      	ldr	r0, [sp, #36]
  102fbc:	600b      	str	r3, [r1, #0]
  102fbe:	2301      	mov	r3, #1
  102fc0:	604b      	str	r3, [r1, #4]
  102fc2:	1884      	add	r4, r0, r2
  102fc4:	4b0d      	ldr	r3, [pc, #52]	(102ffc <.text+0x2ffc>)
  102fc6:	20cb      	mov	r0, #203
  102fc8:	00c0      	lsl	r0, r0, #3
  102fca:	3601      	add	r6, #1
  102fcc:	446b      	add	r3, sp
  102fce:	3501      	add	r5, #1
  102fd0:	4468      	add	r0, sp
  102fd2:	601e      	str	r6, [r3, #0]
  102fd4:	3108      	add	r1, #8
  102fd6:	6005      	str	r5, [r0, #0]
  102fd8:	2d07      	cmp	r5, #7
  102fda:	dd01      	ble	102fe0 <.text+0x2fe0>
  102fdc:	fc87f000 	bl	1038ee <.text+0x38ee>
  102fe0:	600c      	str	r4, [r1, #0]
  102fe2:	9c10      	ldr	r4, [sp, #64]
  102fe4:	4805      	ldr	r0, [pc, #20]	(102ffc <.text+0x2ffc>)
  102fe6:	1aa3      	sub	r3, r4, r2
  102fe8:	18f6      	add	r6, r6, r3
  102fea:	4468      	add	r0, sp
  102fec:	604b      	str	r3, [r1, #4]
  102fee:	6006      	str	r6, [r0, #0]
  102ff0:	e573      	b	102ada <_vfprintf_r+0x23a>
	...
  102ffa:	0000      	lsl	r0, r0, #0
  102ffc:	065c      	lsl	r4, r3, #25
  102ffe:	0000      	lsl	r0, r0, #0
  103000:	b89c      	undefined instruction 0xb89c
  103002:	0010      	lsl	r0, r2, #0
  103004:	b6b4      	undefined instruction 0xb6b4
  103006:	0010      	lsl	r0, r2, #0
  103008:	0654      	lsl	r4, r2, #25
  10300a:	0000      	lsl	r0, r0, #0
  10300c:	0614      	lsl	r4, r2, #24
  10300e:	0000      	lsl	r0, r0, #0
  103010:	067c      	lsl	r4, r7, #25
  103012:	0000      	lsl	r0, r0, #0
  103014:	0679      	lsl	r1, r7, #25
  103016:	0000      	lsl	r0, r0, #0
  103018:	0661      	lsl	r1, r4, #25
  10301a:	0000      	lsl	r0, r0, #0
  10301c:	b6c4      	undefined instruction 0xb6c4
  10301e:	0010      	lsl	r0, r2, #0
  103020:	b8a0      	undefined instruction 0xb8a0
  103022:	0010      	lsl	r0, r2, #0
  103024:	4ac7      	ldr	r2, [pc, #796]	(103344 <.text+0x3344>)
  103026:	4693      	mov	fp, r2
  103028:	e003      	b	103032 <.text+0x3032>
  10302a:	3c10      	sub	r4, #16
  10302c:	2c10      	cmp	r4, #16
  10302e:	dc00      	bgt	103032 <.text+0x3032>
  103030:	e5de      	b	102bf0 <_vfprintf_r+0x350>
  103032:	4641      	mov	r1, r8
  103034:	2310      	mov	r3, #16
  103036:	604b      	str	r3, [r1, #4]
  103038:	600a      	str	r2, [r1, #0]
  10303a:	4bc3      	ldr	r3, [pc, #780]	(103348 <.text+0x3348>)
  10303c:	21cb      	mov	r1, #203
  10303e:	00c9      	lsl	r1, r1, #3
  103040:	3610      	add	r6, #16
  103042:	446b      	add	r3, sp
  103044:	2008      	mov	r0, #8
  103046:	3501      	add	r5, #1
  103048:	4469      	add	r1, sp
  10304a:	601e      	str	r6, [r3, #0]
  10304c:	4480      	add	r8, r0
  10304e:	600d      	str	r5, [r1, #0]
  103050:	2d07      	cmp	r5, #7
  103052:	ddea      	ble	10302a <.text+0x302a>
  103054:	49bd      	ldr	r1, [pc, #756]	(10334c <.text+0x334c>)
  103056:	9805      	ldr	r0, [sp, #20]
  103058:	4469      	add	r1, sp
  10305a:	fc11f7ff 	bl	102880 <__sprint>
  10305e:	2800      	cmp	r0, #0
  103060:	d000      	beq	103064 <.text+0x3064>
  103062:	e6a0      	b	102da6 <.text+0x2da6>
  103064:	4bb8      	ldr	r3, [pc, #736]	(103348 <.text+0x3348>)
  103066:	20cb      	mov	r0, #203
  103068:	4ab9      	ldr	r2, [pc, #740]	(103350 <.text+0x3350>)
  10306a:	00c0      	lsl	r0, r0, #3
  10306c:	446b      	add	r3, sp
  10306e:	4468      	add	r0, sp
  103070:	446a      	add	r2, sp
  103072:	681e      	ldr	r6, [r3, #0]
  103074:	6805      	ldr	r5, [r0, #0]
  103076:	4690      	mov	r8, r2
  103078:	465a      	mov	r2, fp
  10307a:	e7d6      	b	10302a <.text+0x302a>
  10307c:	49b3      	ldr	r1, [pc, #716]	(10334c <.text+0x334c>)
  10307e:	9805      	ldr	r0, [sp, #20]
  103080:	4469      	add	r1, sp
  103082:	fbfdf7ff 	bl	102880 <__sprint>
  103086:	2800      	cmp	r0, #0
  103088:	d000      	beq	10308c <.text+0x308c>
  10308a:	e68c      	b	102da6 <.text+0x2da6>
  10308c:	48ae      	ldr	r0, [pc, #696]	(103348 <.text+0x3348>)
  10308e:	21cb      	mov	r1, #203
  103090:	4caf      	ldr	r4, [pc, #700]	(103350 <.text+0x3350>)
  103092:	00c9      	lsl	r1, r1, #3
  103094:	4468      	add	r0, sp
  103096:	4469      	add	r1, sp
  103098:	446c      	add	r4, sp
  10309a:	6806      	ldr	r6, [r0, #0]
  10309c:	680d      	ldr	r5, [r1, #0]
  10309e:	46a0      	mov	r8, r4
  1030a0:	e4d9      	b	102a56 <_vfprintf_r+0x1b6>
  1030a2:	4ba9      	ldr	r3, [pc, #676]	(103348 <.text+0x3348>)
  1030a4:	24cb      	mov	r4, #203
  1030a6:	00e4      	lsl	r4, r4, #3
  1030a8:	446b      	add	r3, sp
  1030aa:	446c      	add	r4, sp
  1030ac:	681e      	ldr	r6, [r3, #0]
  1030ae:	6825      	ldr	r5, [r4, #0]
  1030b0:	e4d1      	b	102a56 <_vfprintf_r+0x1b6>
  1030b2:	9f10      	ldr	r7, [sp, #64]
  1030b4:	3f01      	sub	r7, #1
  1030b6:	2f00      	cmp	r7, #0
  1030b8:	dc00      	bgt	1030bc <.text+0x30bc>
  1030ba:	e6c7      	b	102e4c <.text+0x2e4c>
  1030bc:	2f10      	cmp	r7, #16
  1030be:	dd00      	ble	1030c2 <.text+0x30c2>
  1030c0:	e196      	b	1033f0 <.text+0x33f0>
  1030c2:	4aa0      	ldr	r2, [pc, #640]	(103344 <.text+0x3344>)
  1030c4:	6022      	str	r2, [r4, #0]
  1030c6:	23cb      	mov	r3, #203
  1030c8:	4a9f      	ldr	r2, [pc, #636]	(103348 <.text+0x3348>)
  1030ca:	00db      	lsl	r3, r3, #3
  1030cc:	19f6      	add	r6, r6, r7
  1030ce:	446a      	add	r2, sp
  1030d0:	3501      	add	r5, #1
  1030d2:	446b      	add	r3, sp
  1030d4:	6067      	str	r7, [r4, #4]
  1030d6:	6016      	str	r6, [r2, #0]
  1030d8:	3408      	add	r4, #8
  1030da:	601d      	str	r5, [r3, #0]
  1030dc:	2d07      	cmp	r5, #7
  1030de:	dc00      	bgt	1030e2 <.text+0x30e2>
  1030e0:	e6b4      	b	102e4c <.text+0x2e4c>
  1030e2:	499a      	ldr	r1, [pc, #616]	(10334c <.text+0x334c>)
  1030e4:	9805      	ldr	r0, [sp, #20]
  1030e6:	4469      	add	r1, sp
  1030e8:	fbcaf7ff 	bl	102880 <__sprint>
  1030ec:	2800      	cmp	r0, #0
  1030ee:	d000      	beq	1030f2 <.text+0x30f2>
  1030f0:	e659      	b	102da6 <.text+0x2da6>
  1030f2:	4895      	ldr	r0, [pc, #596]	(103348 <.text+0x3348>)
  1030f4:	21cb      	mov	r1, #203
  1030f6:	00c9      	lsl	r1, r1, #3
  1030f8:	4468      	add	r0, sp
  1030fa:	4469      	add	r1, sp
  1030fc:	6806      	ldr	r6, [r0, #0]
  1030fe:	4c94      	ldr	r4, [pc, #592]	(103350 <.text+0x3350>)
  103100:	980f      	ldr	r0, [sp, #60]
  103102:	680d      	ldr	r5, [r1, #0]
  103104:	4990      	ldr	r1, [pc, #576]	(103348 <.text+0x3348>)
  103106:	4b93      	ldr	r3, [pc, #588]	(103354 <.text+0x3354>)
  103108:	446c      	add	r4, sp
  10310a:	4469      	add	r1, sp
  10310c:	1986      	add	r6, r0, r6
  10310e:	446b      	add	r3, sp
  103110:	600e      	str	r6, [r1, #0]
  103112:	1c21      	mov	r1, r4		(add r1, r4, #0)
  103114:	6023      	str	r3, [r4, #0]
  103116:	6060      	str	r0, [r4, #4]
  103118:	e6a2      	b	102e60 <.text+0x2e60>
  10311a:	498c      	ldr	r1, [pc, #560]	(10334c <.text+0x334c>)
  10311c:	9805      	ldr	r0, [sp, #20]
  10311e:	4469      	add	r1, sp
  103120:	fbaef7ff 	bl	102880 <__sprint>
  103124:	2800      	cmp	r0, #0
  103126:	d000      	beq	10312a <.text+0x312a>
  103128:	e63d      	b	102da6 <.text+0x2da6>
  10312a:	4887      	ldr	r0, [pc, #540]	(103348 <.text+0x3348>)
  10312c:	4468      	add	r0, sp
  10312e:	6806      	ldr	r6, [r0, #0]
  103130:	e4fa      	b	102b28 <_vfprintf_r+0x288>
  103132:	9b0a      	ldr	r3, [sp, #40]
  103134:	4223      	tst	r3, r4
  103136:	d100      	bne	10313a <.text+0x313a>
  103138:	e4d8      	b	102aec <_vfprintf_r+0x24c>
  10313a:	e5c2      	b	102cc2 <.text+0x2cc2>
  10313c:	4641      	mov	r1, r8
  10313e:	604c      	str	r4, [r1, #4]
  103140:	1936      	add	r6, r6, r4
  103142:	4b81      	ldr	r3, [pc, #516]	(103348 <.text+0x3348>)
  103144:	24cb      	mov	r4, #203
  103146:	9809      	ldr	r0, [sp, #36]
  103148:	00e4      	lsl	r4, r4, #3
  10314a:	446b      	add	r3, sp
  10314c:	3501      	add	r5, #1
  10314e:	446c      	add	r4, sp
  103150:	6008      	str	r0, [r1, #0]
  103152:	601e      	str	r6, [r3, #0]
  103154:	3108      	add	r1, #8
  103156:	6025      	str	r5, [r4, #0]
  103158:	2d07      	cmp	r5, #7
  10315a:	dd00      	ble	10315e <.text+0x315e>
  10315c:	e3b4      	b	1038c8 <.text+0x38c8>
  10315e:	9810      	ldr	r0, [sp, #64]
  103160:	1a14      	sub	r4, r2, r0
  103162:	2c00      	cmp	r4, #0
  103164:	dd22      	ble	1031ac <.text+0x31ac>
  103166:	2c10      	cmp	r4, #16
  103168:	dd00      	ble	10316c <.text+0x316c>
  10316a:	e367      	b	10383c <.text+0x383c>
  10316c:	22cb      	mov	r2, #203
  10316e:	00d2      	lsl	r2, r2, #3
  103170:	446a      	add	r2, sp
  103172:	6815      	ldr	r5, [r2, #0]
  103174:	4a73      	ldr	r2, [pc, #460]	(103344 <.text+0x3344>)
  103176:	604c      	str	r4, [r1, #4]
  103178:	1936      	add	r6, r6, r4
  10317a:	20cb      	mov	r0, #203
  10317c:	4c72      	ldr	r4, [pc, #456]	(103348 <.text+0x3348>)
  10317e:	00c0      	lsl	r0, r0, #3
  103180:	446c      	add	r4, sp
  103182:	3501      	add	r5, #1
  103184:	4468      	add	r0, sp
  103186:	600a      	str	r2, [r1, #0]
  103188:	6026      	str	r6, [r4, #0]
  10318a:	3108      	add	r1, #8
  10318c:	6005      	str	r5, [r0, #0]
  10318e:	2d07      	cmp	r5, #7
  103190:	dd0c      	ble	1031ac <.text+0x31ac>
  103192:	496e      	ldr	r1, [pc, #440]	(10334c <.text+0x334c>)
  103194:	9805      	ldr	r0, [sp, #20]
  103196:	4469      	add	r1, sp
  103198:	fb72f7ff 	bl	102880 <__sprint>
  10319c:	2800      	cmp	r0, #0
  10319e:	d000      	beq	1031a2 <.text+0x31a2>
  1031a0:	e601      	b	102da6 <.text+0x2da6>
  1031a2:	4a69      	ldr	r2, [pc, #420]	(103348 <.text+0x3348>)
  1031a4:	496a      	ldr	r1, [pc, #424]	(103350 <.text+0x3350>)
  1031a6:	446a      	add	r2, sp
  1031a8:	6816      	ldr	r6, [r2, #0]
  1031aa:	4469      	add	r1, sp
  1031ac:	9b0a      	ldr	r3, [sp, #40]
  1031ae:	2201      	mov	r2, #1
  1031b0:	4213      	tst	r3, r2
  1031b2:	d100      	bne	1031b6 <.text+0x31b6>
  1031b4:	e49a      	b	102aec <_vfprintf_r+0x24c>
  1031b6:	20cb      	mov	r0, #203
  1031b8:	00c0      	lsl	r0, r0, #3
  1031ba:	4468      	add	r0, sp
  1031bc:	6805      	ldr	r5, [r0, #0]
  1031be:	4c62      	ldr	r4, [pc, #392]	(103348 <.text+0x3348>)
  1031c0:	4b65      	ldr	r3, [pc, #404]	(103358 <.text+0x3358>)
  1031c2:	3601      	add	r6, #1
  1031c4:	446c      	add	r4, sp
  1031c6:	3501      	add	r5, #1
  1031c8:	600b      	str	r3, [r1, #0]
  1031ca:	604a      	str	r2, [r1, #4]
  1031cc:	6026      	str	r6, [r4, #0]
  1031ce:	3108      	add	r1, #8
  1031d0:	6005      	str	r5, [r0, #0]
  1031d2:	2d07      	cmp	r5, #7
  1031d4:	dc00      	bgt	1031d8 <.text+0x31d8>
  1031d6:	e489      	b	102aec <_vfprintf_r+0x24c>
  1031d8:	e5a1      	b	102d1e <.text+0x2d1e>
  1031da:	495c      	ldr	r1, [pc, #368]	(10334c <.text+0x334c>)
  1031dc:	9805      	ldr	r0, [sp, #20]
  1031de:	4469      	add	r1, sp
  1031e0:	fb4ef7ff 	bl	102880 <__sprint>
  1031e4:	2800      	cmp	r0, #0
  1031e6:	d000      	beq	1031ea <.text+0x31ea>
  1031e8:	e5dd      	b	102da6 <.text+0x2da6>
  1031ea:	4b57      	ldr	r3, [pc, #348]	(103348 <.text+0x3348>)
  1031ec:	20ce      	mov	r0, #206
  1031ee:	00c0      	lsl	r0, r0, #3
  1031f0:	446b      	add	r3, sp
  1031f2:	4468      	add	r0, sp
  1031f4:	4956      	ldr	r1, [pc, #344]	(103350 <.text+0x3350>)
  1031f6:	681e      	ldr	r6, [r3, #0]
  1031f8:	9a10      	ldr	r2, [sp, #64]
  1031fa:	6803      	ldr	r3, [r0, #0]
  1031fc:	4469      	add	r1, sp
  1031fe:	4293      	cmp	r3, r2
  103200:	da00      	bge	103204 <.text+0x3204>
  103202:	e55e      	b	102cc2 <.text+0x2cc2>
  103204:	e795      	b	103132 <.text+0x3132>
  103206:	9c0a      	ldr	r4, [sp, #40]
  103208:	2310      	mov	r3, #16
  10320a:	431c      	orr	r4, r3
  10320c:	940a      	str	r4, [sp, #40]
  10320e:	980a      	ldr	r0, [sp, #40]
  103210:	06c0      	lsl	r0, r0, #27
  103212:	d500      	bpl	103216 <.text+0x3216>
  103214:	e185      	b	103522 <.text+0x3522>
  103216:	9a0a      	ldr	r2, [sp, #40]
  103218:	0652      	lsl	r2, r2, #25
  10321a:	d401      	bmi	103220 <.text+0x3220>
  10321c:	fc95f000 	bl	103b4a <.text+0x3b4a>
  103220:	1d2b      	add	r3, r5, #4
  103222:	9304      	str	r3, [sp, #16]
  103224:	682b      	ldr	r3, [r5, #0]
  103226:	041b      	lsl	r3, r3, #16
  103228:	141c      	asr	r4, r3, #16
  10322a:	e17d      	b	103528 <.text+0x3528>
  10322c:	980a      	ldr	r0, [sp, #40]
  10322e:	2310      	mov	r3, #16
  103230:	4318      	orr	r0, r3
  103232:	900a      	str	r0, [sp, #40]
  103234:	990a      	ldr	r1, [sp, #40]
  103236:	06c9      	lsl	r1, r1, #27
  103238:	d500      	bpl	10323c <.text+0x323c>
  10323a:	e16d      	b	103518 <.text+0x3518>
  10323c:	9b0a      	ldr	r3, [sp, #40]
  10323e:	065b      	lsl	r3, r3, #25
  103240:	d401      	bmi	103246 <.text+0x3246>
  103242:	fc72f000 	bl	103b2a <.text+0x3b2a>
  103246:	1d2c      	add	r4, r5, #4
  103248:	9404      	str	r4, [sp, #16]
  10324a:	882c      	ldrh	r4, [r5, #0]
  10324c:	2200      	mov	r2, #0
  10324e:	e00b      	b	103268 <.text+0x3268>
  103250:	980a      	ldr	r0, [sp, #40]
  103252:	2310      	mov	r3, #16
  103254:	4318      	orr	r0, r3
  103256:	900a      	str	r0, [sp, #40]
  103258:	990a      	ldr	r1, [sp, #40]
  10325a:	06c9      	lsl	r1, r1, #27
  10325c:	d400      	bmi	103260 <.text+0x3260>
  10325e:	e168      	b	103532 <.text+0x3532>
  103260:	1d2a      	add	r2, r5, #4
  103262:	9204      	str	r2, [sp, #16]
  103264:	682c      	ldr	r4, [r5, #0]
  103266:	2201      	mov	r2, #1
  103268:	493c      	ldr	r1, [pc, #240]	(10335c <.text+0x335c>)
  10326a:	2300      	mov	r3, #0
  10326c:	4469      	add	r1, sp
  10326e:	700b      	strb	r3, [r1, #0]
  103270:	2e00      	cmp	r6, #0
  103272:	db03      	blt	10327c <.text+0x327c>
  103274:	980a      	ldr	r0, [sp, #40]
  103276:	2380      	mov	r3, #128
  103278:	4398      	bic	r0, r3
  10327a:	900a      	str	r0, [sp, #40]
  10327c:	2c00      	cmp	r4, #0
  10327e:	d102      	bne	103286 <.text+0x3286>
  103280:	2e00      	cmp	r6, #0
  103282:	d100      	bne	103286 <.text+0x3286>
  103284:	e380      	b	103988 <.text+0x3988>
  103286:	2a01      	cmp	r2, #1
  103288:	d100      	bne	10328c <.text+0x328c>
  10328a:	e385      	b	103998 <.text+0x3998>
  10328c:	2a01      	cmp	r2, #1
  10328e:	d200      	bcs	103292 <.text+0x3292>
  103290:	e358      	b	103944 <.text+0x3944>
  103292:	2a02      	cmp	r2, #2
  103294:	d101      	bne	10329a <.text+0x329a>
  103296:	fc29f000 	bl	103aec <.text+0x3aec>
  10329a:	4c31      	ldr	r4, [pc, #196]	(103360 <.text+0x3360>)
  10329c:	1c20      	mov	r0, r4		(add r0, r4, #0)
  10329e:	fa89f7ff 	bl	1027b4 <strlen>
  1032a2:	4681      	mov	r9, r0
  1032a4:	1c07      	mov	r7, r0		(add r7, r0, #0)
  1032a6:	45b1      	cmp	r9, r6
  1032a8:	da00      	bge	1032ac <.text+0x32ac>
  1032aa:	46b1      	mov	r9, r6
  1032ac:	9611      	str	r6, [sp, #68]
  1032ae:	9409      	str	r4, [sp, #36]
  1032b0:	fba1f7ff 	bl	1029f6 <_vfprintf_r+0x156>
  1032b4:	4925      	ldr	r1, [pc, #148]	(10334c <.text+0x334c>)
  1032b6:	9805      	ldr	r0, [sp, #20]
  1032b8:	4469      	add	r1, sp
  1032ba:	fae1f7ff 	bl	102880 <__sprint>
  1032be:	2800      	cmp	r0, #0
  1032c0:	d000      	beq	1032c4 <.text+0x32c4>
  1032c2:	e570      	b	102da6 <.text+0x2da6>
  1032c4:	4a20      	ldr	r2, [pc, #128]	(103348 <.text+0x3348>)
  1032c6:	23cb      	mov	r3, #203
  1032c8:	00db      	lsl	r3, r3, #3
  1032ca:	4c21      	ldr	r4, [pc, #132]	(103350 <.text+0x3350>)
  1032cc:	446a      	add	r2, sp
  1032ce:	446b      	add	r3, sp
  1032d0:	6816      	ldr	r6, [r2, #0]
  1032d2:	681d      	ldr	r5, [r3, #0]
  1032d4:	446c      	add	r4, sp
  1032d6:	e59d      	b	102e14 <.text+0x2e14>
  1032d8:	491c      	ldr	r1, [pc, #112]	(10334c <.text+0x334c>)
  1032da:	9805      	ldr	r0, [sp, #20]
  1032dc:	4469      	add	r1, sp
  1032de:	facff7ff 	bl	102880 <__sprint>
  1032e2:	2800      	cmp	r0, #0
  1032e4:	d000      	beq	1032e8 <.text+0x32e8>
  1032e6:	e565      	b	102db4 <.text+0x2db4>
  1032e8:	4b19      	ldr	r3, [pc, #100]	(103350 <.text+0x3350>)
  1032ea:	446b      	add	r3, sp
  1032ec:	4698      	mov	r8, r3
  1032ee:	fb6bf7ff 	bl	1029c8 <_vfprintf_r+0x128>
  1032f2:	980a      	ldr	r0, [sp, #40]
  1032f4:	2301      	mov	r3, #1
  1032f6:	4218      	tst	r0, r3
  1032f8:	d000      	beq	1032fc <.text+0x32fc>
  1032fa:	e570      	b	102dde <.text+0x2dde>
  1032fc:	4812      	ldr	r0, [pc, #72]	(103348 <.text+0x3348>)
  1032fe:	21cb      	mov	r1, #203
  103300:	9a09      	ldr	r2, [sp, #36]
  103302:	00c9      	lsl	r1, r1, #3
  103304:	4644      	mov	r4, r8
  103306:	3601      	add	r6, #1
  103308:	4468      	add	r0, sp
  10330a:	3501      	add	r5, #1
  10330c:	4469      	add	r1, sp
  10330e:	6022      	str	r2, [r4, #0]
  103310:	6063      	str	r3, [r4, #4]
  103312:	6006      	str	r6, [r0, #0]
  103314:	3408      	add	r4, #8
  103316:	600d      	str	r5, [r1, #0]
  103318:	2d07      	cmp	r5, #7
  10331a:	dc00      	bgt	10331e <.text+0x331e>
  10331c:	e596      	b	102e4c <.text+0x2e4c>
  10331e:	490b      	ldr	r1, [pc, #44]	(10334c <.text+0x334c>)
  103320:	9805      	ldr	r0, [sp, #20]
  103322:	4469      	add	r1, sp
  103324:	faacf7ff 	bl	102880 <__sprint>
  103328:	2800      	cmp	r0, #0
  10332a:	d000      	beq	10332e <.text+0x332e>
  10332c:	e53b      	b	102da6 <.text+0x2da6>
  10332e:	4a06      	ldr	r2, [pc, #24]	(103348 <.text+0x3348>)
  103330:	23cb      	mov	r3, #203
  103332:	00db      	lsl	r3, r3, #3
  103334:	4c06      	ldr	r4, [pc, #24]	(103350 <.text+0x3350>)
  103336:	446a      	add	r2, sp
  103338:	446b      	add	r3, sp
  10333a:	6816      	ldr	r6, [r2, #0]
  10333c:	681d      	ldr	r5, [r3, #0]
  10333e:	446c      	add	r4, sp
  103340:	e584      	b	102e4c <.text+0x2e4c>
  103342:	0000      	lsl	r0, r0, #0
  103344:	b6b4      	undefined instruction 0xb6b4
  103346:	0010      	lsl	r0, r2, #0
  103348:	065c      	lsl	r4, r3, #25
  10334a:	0000      	lsl	r0, r0, #0
  10334c:	0654      	lsl	r4, r2, #25
  10334e:	0000      	lsl	r0, r0, #0
  103350:	0614      	lsl	r4, r2, #24
  103352:	0000      	lsl	r0, r0, #0
  103354:	0661      	lsl	r1, r4, #25
  103356:	0000      	lsl	r0, r0, #0
  103358:	b8a0      	undefined instruction 0xb8a0
  10335a:	0010      	lsl	r0, r2, #0
  10335c:	067b      	lsl	r3, r7, #25
  10335e:	0000      	lsl	r0, r0, #0
  103360:	b880      	undefined instruction 0xb880
  103362:	0010      	lsl	r0, r2, #0
  103364:	9b05      	ldr	r3, [sp, #20]
  103366:	89d9      	ldrh	r1, [r3, #14]
  103368:	040b      	lsl	r3, r1, #16
  10336a:	2b00      	cmp	r3, #0
  10336c:	da01      	bge	103372 <.text+0x3372>
  10336e:	fac9f7ff 	bl	102904 <_vfprintf_r+0x64>
  103372:	25b7      	mov	r5, #183
  103374:	00ed      	lsl	r5, r5, #3
  103376:	446d      	add	r5, sp
  103378:	9805      	ldr	r0, [sp, #20]
  10337a:	2302      	mov	r3, #2
  10337c:	81e9      	strh	r1, [r5, #14]
  10337e:	49dd      	ldr	r1, [pc, #884]	(1036f4 <.text+0x36f4>)
  103380:	439a      	bic	r2, r3
  103382:	69c3      	ldr	r3, [r0, #28]
  103384:	81aa      	strh	r2, [r5, #12]
  103386:	4469      	add	r1, sp
  103388:	4adb      	ldr	r2, [pc, #876]	(1036f8 <.text+0x36f8>)
  10338a:	600b      	str	r3, [r1, #0]
  10338c:	6a43      	ldr	r3, [r0, #36]
  10338e:	21b9      	mov	r1, #185
  103390:	446a      	add	r2, sp
  103392:	00c9      	lsl	r1, r1, #3
  103394:	6013      	str	r3, [r2, #0]
  103396:	4469      	add	r1, sp
  103398:	ab17      	add	r3, sp, #92
  10339a:	22b8      	mov	r2, #184
  10339c:	48d7      	ldr	r0, [pc, #860]	(1036fc <.text+0x36fc>)
  10339e:	600b      	str	r3, [r1, #0]
  1033a0:	602b      	str	r3, [r5, #0]
  1033a2:	00d2      	lsl	r2, r2, #3
  1033a4:	2380      	mov	r3, #128
  1033a6:	21ba      	mov	r1, #186
  1033a8:	00db      	lsl	r3, r3, #3
  1033aa:	446a      	add	r2, sp
  1033ac:	4468      	add	r0, sp
  1033ae:	00c9      	lsl	r1, r1, #3
  1033b0:	6013      	str	r3, [r2, #0]
  1033b2:	6003      	str	r3, [r0, #0]
  1033b4:	4469      	add	r1, sp
  1033b6:	2300      	mov	r3, #0
  1033b8:	600b      	str	r3, [r1, #0]
  1033ba:	9806      	ldr	r0, [sp, #24]
  1033bc:	1c29      	mov	r1, r5		(add r1, r5, #0)
  1033be:	1c22      	mov	r2, r4		(add r2, r4, #0)
  1033c0:	9b04      	ldr	r3, [sp, #16]
  1033c2:	fa6df7ff 	bl	1028a0 <_vfprintf_r>
  1033c6:	900b      	str	r0, [sp, #44]
  1033c8:	2800      	cmp	r0, #0
  1033ca:	db07      	blt	1033dc <.text+0x33dc>
  1033cc:	1c28      	mov	r0, r5		(add r0, r5, #0)
  1033ce:	f8b7f002 	bl	105540 <fflush>
  1033d2:	2800      	cmp	r0, #0
  1033d4:	d002      	beq	1033dc <.text+0x33dc>
  1033d6:	2201      	mov	r2, #1
  1033d8:	4252      	neg	r2, r2
  1033da:	920b      	str	r2, [sp, #44]
  1033dc:	89ab      	ldrh	r3, [r5, #12]
  1033de:	065c      	lsl	r4, r3, #25
  1033e0:	d400      	bmi	1033e4 <.text+0x33e4>
  1033e2:	e4ed      	b	102dc0 <.text+0x2dc0>
  1033e4:	9805      	ldr	r0, [sp, #20]
  1033e6:	8983      	ldrh	r3, [r0, #12]
  1033e8:	2240      	mov	r2, #64
  1033ea:	4313      	orr	r3, r2
  1033ec:	8183      	strh	r3, [r0, #12]
  1033ee:	e4e7      	b	102dc0 <.text+0x2dc0>
  1033f0:	4ac3      	ldr	r2, [pc, #780]	(103700 <.text+0x3700>)
  1033f2:	4690      	mov	r8, r2
  1033f4:	e003      	b	1033fe <.text+0x33fe>
  1033f6:	3f10      	sub	r7, #16
  1033f8:	2f10      	cmp	r7, #16
  1033fa:	dc00      	bgt	1033fe <.text+0x33fe>
  1033fc:	e662      	b	1030c4 <.text+0x30c4>
  1033fe:	2310      	mov	r3, #16
  103400:	6063      	str	r3, [r4, #4]
  103402:	49c0      	ldr	r1, [pc, #768]	(103704 <.text+0x3704>)
  103404:	23cb      	mov	r3, #203
  103406:	00db      	lsl	r3, r3, #3
  103408:	3610      	add	r6, #16
  10340a:	4469      	add	r1, sp
  10340c:	3501      	add	r5, #1
  10340e:	446b      	add	r3, sp
  103410:	6022      	str	r2, [r4, #0]
  103412:	600e      	str	r6, [r1, #0]
  103414:	3408      	add	r4, #8
  103416:	601d      	str	r5, [r3, #0]
  103418:	2d07      	cmp	r5, #7
  10341a:	ddec      	ble	1033f6 <.text+0x33f6>
  10341c:	49ba      	ldr	r1, [pc, #744]	(103708 <.text+0x3708>)
  10341e:	9805      	ldr	r0, [sp, #20]
  103420:	4469      	add	r1, sp
  103422:	fa2df7ff 	bl	102880 <__sprint>
  103426:	2800      	cmp	r0, #0
  103428:	d000      	beq	10342c <.text+0x342c>
  10342a:	e4bc      	b	102da6 <.text+0x2da6>
  10342c:	48b5      	ldr	r0, [pc, #724]	(103704 <.text+0x3704>)
  10342e:	21cb      	mov	r1, #203
  103430:	00c9      	lsl	r1, r1, #3
  103432:	4cb6      	ldr	r4, [pc, #728]	(10370c <.text+0x370c>)
  103434:	4468      	add	r0, sp
  103436:	4469      	add	r1, sp
  103438:	6806      	ldr	r6, [r0, #0]
  10343a:	680d      	ldr	r5, [r1, #0]
  10343c:	446c      	add	r4, sp
  10343e:	4642      	mov	r2, r8
  103440:	e7d9      	b	1033f6 <.text+0x33f6>
  103442:	1c08      	mov	r0, r1		(add r0, r1, #0)
  103444:	f914f002 	bl	105670 <__sinit>
  103448:	fa47f7ff 	bl	1028da <_vfprintf_r+0x3a>
  10344c:	20cb      	mov	r0, #203
  10344e:	00c0      	lsl	r0, r0, #3
  103450:	4468      	add	r0, sp
  103452:	4aab      	ldr	r2, [pc, #684]	(103700 <.text+0x3700>)
  103454:	6805      	ldr	r5, [r0, #0]
  103456:	4690      	mov	r8, r2
  103458:	e003      	b	103462 <.text+0x3462>
  10345a:	3c10      	sub	r4, #16
  10345c:	2c10      	cmp	r4, #16
  10345e:	dc00      	bgt	103462 <.text+0x3462>
  103460:	e44e      	b	102d00 <.text+0x2d00>
  103462:	2310      	mov	r3, #16
  103464:	604b      	str	r3, [r1, #4]
  103466:	20cb      	mov	r0, #203
  103468:	4ba6      	ldr	r3, [pc, #664]	(103704 <.text+0x3704>)
  10346a:	00c0      	lsl	r0, r0, #3
  10346c:	3610      	add	r6, #16
  10346e:	446b      	add	r3, sp
  103470:	3501      	add	r5, #1
  103472:	4468      	add	r0, sp
  103474:	600a      	str	r2, [r1, #0]
  103476:	601e      	str	r6, [r3, #0]
  103478:	3108      	add	r1, #8
  10347a:	6005      	str	r5, [r0, #0]
  10347c:	2d07      	cmp	r5, #7
  10347e:	ddec      	ble	10345a <.text+0x345a>
  103480:	49a1      	ldr	r1, [pc, #644]	(103708 <.text+0x3708>)
  103482:	9805      	ldr	r0, [sp, #20]
  103484:	4469      	add	r1, sp
  103486:	f9fbf7ff 	bl	102880 <__sprint>
  10348a:	2800      	cmp	r0, #0
  10348c:	d000      	beq	103490 <.text+0x3490>
  10348e:	e48a      	b	102da6 <.text+0x2da6>
  103490:	4a9c      	ldr	r2, [pc, #624]	(103704 <.text+0x3704>)
  103492:	23cb      	mov	r3, #203
  103494:	00db      	lsl	r3, r3, #3
  103496:	446a      	add	r2, sp
  103498:	499c      	ldr	r1, [pc, #624]	(10370c <.text+0x370c>)
  10349a:	446b      	add	r3, sp
  10349c:	6816      	ldr	r6, [r2, #0]
  10349e:	681d      	ldr	r5, [r3, #0]
  1034a0:	4469      	add	r1, sp
  1034a2:	4642      	mov	r2, r8
  1034a4:	e7d9      	b	10345a <.text+0x345a>
  1034a6:	9805      	ldr	r0, [sp, #20]
  1034a8:	f872f001 	bl	104590 <__swsetup>
  1034ac:	2800      	cmp	r0, #0
  1034ae:	d000      	beq	1034b2 <.text+0x34b2>
  1034b0:	e235      	b	10391e <.text+0x391e>
  1034b2:	9905      	ldr	r1, [sp, #20]
  1034b4:	898a      	ldrh	r2, [r1, #12]
  1034b6:	fa1df7ff 	bl	1028f4 <_vfprintf_r+0x54>
  1034ba:	4993      	ldr	r1, [pc, #588]	(103708 <.text+0x3708>)
  1034bc:	9805      	ldr	r0, [sp, #20]
  1034be:	4469      	add	r1, sp
  1034c0:	f9def7ff 	bl	102880 <__sprint>
  1034c4:	2800      	cmp	r0, #0
  1034c6:	d000      	beq	1034ca <.text+0x34ca>
  1034c8:	e46d      	b	102da6 <.text+0x2da6>
  1034ca:	4b8e      	ldr	r3, [pc, #568]	(103704 <.text+0x3704>)
  1034cc:	20cb      	mov	r0, #203
  1034ce:	00c0      	lsl	r0, r0, #3
  1034d0:	446b      	add	r3, sp
  1034d2:	4468      	add	r0, sp
  1034d4:	681e      	ldr	r6, [r3, #0]
  1034d6:	4c8d      	ldr	r4, [pc, #564]	(10370c <.text+0x370c>)
  1034d8:	6805      	ldr	r5, [r0, #0]
  1034da:	498a      	ldr	r1, [pc, #552]	(103704 <.text+0x3704>)
  1034dc:	980f      	ldr	r0, [sp, #60]
  1034de:	4b8c      	ldr	r3, [pc, #560]	(103710 <.text+0x3710>)
  1034e0:	446c      	add	r4, sp
  1034e2:	4469      	add	r1, sp
  1034e4:	1986      	add	r6, r0, r6
  1034e6:	446b      	add	r3, sp
  1034e8:	600e      	str	r6, [r1, #0]
  1034ea:	1c21      	mov	r1, r4		(add r1, r4, #0)
  1034ec:	6023      	str	r3, [r4, #0]
  1034ee:	6060      	str	r0, [r4, #4]
  1034f0:	e4b6      	b	102e60 <.text+0x2e60>
  1034f2:	4269      	neg	r1, r5
  1034f4:	910c      	str	r1, [sp, #48]
  1034f6:	1c1d      	mov	r5, r3		(add r5, r3, #0)
  1034f8:	9a0a      	ldr	r2, [sp, #40]
  1034fa:	2304      	mov	r3, #4
  1034fc:	431a      	orr	r2, r3
  1034fe:	920a      	str	r2, [sp, #40]
  103500:	9b16      	ldr	r3, [sp, #88]
  103502:	781a      	ldrb	r2, [r3, #0]
  103504:	fa2ff7ff 	bl	102966 <_vfprintf_r+0xc6>
  103508:	980a      	ldr	r0, [sp, #40]
  10350a:	2310      	mov	r3, #16
  10350c:	4318      	orr	r0, r3
  10350e:	900a      	str	r0, [sp, #40]
  103510:	9916      	ldr	r1, [sp, #88]
  103512:	780a      	ldrb	r2, [r1, #0]
  103514:	fa27f7ff 	bl	102966 <_vfprintf_r+0xc6>
  103518:	1d2a      	add	r2, r5, #4
  10351a:	9204      	str	r2, [sp, #16]
  10351c:	682c      	ldr	r4, [r5, #0]
  10351e:	2200      	mov	r2, #0
  103520:	e6a2      	b	103268 <.text+0x3268>
  103522:	1d29      	add	r1, r5, #4
  103524:	9104      	str	r1, [sp, #16]
  103526:	682c      	ldr	r4, [r5, #0]
  103528:	2c00      	cmp	r4, #0
  10352a:	da00      	bge	10352e <.text+0x352e>
  10352c:	e1fc      	b	103928 <.text+0x3928>
  10352e:	2201      	mov	r2, #1
  103530:	e69e      	b	103270 <.text+0x3270>
  103532:	9b0a      	ldr	r3, [sp, #40]
  103534:	065b      	lsl	r3, r3, #25
  103536:	d400      	bmi	10353a <.text+0x353a>
  103538:	e301      	b	103b3e <.text+0x3b3e>
  10353a:	1d2c      	add	r4, r5, #4
  10353c:	9404      	str	r4, [sp, #16]
  10353e:	882c      	ldrh	r4, [r5, #0]
  103540:	2201      	mov	r2, #1
  103542:	e691      	b	103268 <.text+0x3268>
  103544:	9916      	ldr	r1, [sp, #88]
  103546:	780a      	ldrb	r2, [r1, #0]
  103548:	0613      	lsl	r3, r2, #24
  10354a:	0e1b      	lsr	r3, r3, #24
  10354c:	2b6c      	cmp	r3, #108
  10354e:	d100      	bne	103552 <.text+0x3552>
  103550:	e3cf      	b	103cf2 <.text+0x3cf2>
  103552:	9c0a      	ldr	r4, [sp, #40]
  103554:	2310      	mov	r3, #16
  103556:	431c      	orr	r4, r3
  103558:	940a      	str	r4, [sp, #40]
  10355a:	fa04f7ff 	bl	102966 <_vfprintf_r+0xc6>
  10355e:	496d      	ldr	r1, [pc, #436]	(103714 <.text+0x3714>)
  103560:	9a0a      	ldr	r2, [sp, #40]
  103562:	9112      	str	r1, [sp, #72]
  103564:	06d2      	lsl	r2, r2, #27
  103566:	d400      	bmi	10356a <.text+0x356a>
  103568:	e0fe      	b	103768 <.text+0x3768>
  10356a:	1d2b      	add	r3, r5, #4
  10356c:	9304      	str	r3, [sp, #16]
  10356e:	682c      	ldr	r4, [r5, #0]
  103570:	9a0a      	ldr	r2, [sp, #40]
  103572:	07d2      	lsl	r2, r2, #31
  103574:	d400      	bmi	103578 <.text+0x3578>
  103576:	e21e      	b	1039b6 <.text+0x39b6>
  103578:	2c00      	cmp	r4, #0
  10357a:	d100      	bne	10357e <.text+0x357e>
  10357c:	e21b      	b	1039b6 <.text+0x39b6>
  10357e:	980a      	ldr	r0, [sp, #40]
  103580:	2302      	mov	r3, #2
  103582:	4318      	orr	r0, r3
  103584:	2202      	mov	r2, #2
  103586:	900a      	str	r0, [sp, #40]
  103588:	e66e      	b	103268 <.text+0x3268>
  10358a:	2308      	mov	r3, #8
  10358c:	990a      	ldr	r1, [sp, #40]
  10358e:	4319      	orr	r1, r3
  103590:	910a      	str	r1, [sp, #40]
  103592:	9b16      	ldr	r3, [sp, #88]
  103594:	781a      	ldrb	r2, [r3, #0]
  103596:	f9e6f7ff 	bl	102966 <_vfprintf_r+0xc6>
  10359a:	2200      	mov	r2, #0
  10359c:	0093      	lsl	r3, r2, #2
  10359e:	9c16      	ldr	r4, [sp, #88]
  1035a0:	189b      	add	r3, r3, r2
  1035a2:	7824      	ldrb	r4, [r4, #0]
  1035a4:	005b      	lsl	r3, r3, #1
  1035a6:	4453      	add	r3, sl
  1035a8:	9816      	ldr	r0, [sp, #88]
  1035aa:	1c1a      	mov	r2, r3		(add r2, r3, #0)
  1035ac:	1c23      	mov	r3, r4		(add r3, r4, #0)
  1035ae:	3001      	add	r0, #1
  1035b0:	3b30      	sub	r3, #48
  1035b2:	3a30      	sub	r2, #48
  1035b4:	46a2      	mov	sl, r4
  1035b6:	9016      	str	r0, [sp, #88]
  1035b8:	2b09      	cmp	r3, #9
  1035ba:	d9ef      	bls	10359c <.text+0x359c>
  1035bc:	920c      	str	r2, [sp, #48]
  1035be:	f9d8f7ff 	bl	102972 <_vfprintf_r+0xd2>
  1035c2:	2380      	mov	r3, #128
  1035c4:	e7e2      	b	10358c <.text+0x358c>
  1035c6:	9916      	ldr	r1, [sp, #88]
  1035c8:	9a16      	ldr	r2, [sp, #88]
  1035ca:	7809      	ldrb	r1, [r1, #0]
  1035cc:	3201      	add	r2, #1
  1035ce:	468a      	mov	sl, r1
  1035d0:	9216      	str	r2, [sp, #88]
  1035d2:	292a      	cmp	r1, #42
  1035d4:	d101      	bne	1035da <.text+0x35da>
  1035d6:	fdaaf000 	bl	10412e <.text+0x412e>
  1035da:	1c0b      	mov	r3, r1		(add r3, r1, #0)
  1035dc:	3b30      	sub	r3, #48
  1035de:	2b09      	cmp	r3, #9
  1035e0:	d800      	bhi	1035e4 <.text+0x35e4>
  1035e2:	e2b6      	b	103b52 <.text+0x3b52>
  1035e4:	2600      	mov	r6, #0
  1035e6:	f9c4f7ff 	bl	102972 <_vfprintf_r+0xd2>
  1035ea:	1c71      	add	r1, r6, #1
  1035ec:	d100      	bne	1035f0 <.text+0x35f0>
  1035ee:	e37e      	b	103cee <.text+0x3cee>
  1035f0:	4652      	mov	r2, sl
  1035f2:	2a67      	cmp	r2, #103
  1035f4:	d100      	bne	1035f8 <.text+0x35f8>
  1035f6:	e2de      	b	103bb6 <.text+0x3bb6>
  1035f8:	2a47      	cmp	r2, #71
  1035fa:	d100      	bne	1035fe <.text+0x35fe>
  1035fc:	e2db      	b	103bb6 <.text+0x3bb6>
  1035fe:	9b0a      	ldr	r3, [sp, #40]
  103600:	071b      	lsl	r3, r3, #28
  103602:	d400      	bmi	103606 <.text+0x3606>
  103604:	e2c2      	b	103b8c <.text+0x3b8c>
  103606:	6828      	ldr	r0, [r5, #0]
  103608:	6869      	ldr	r1, [r5, #4]
  10360a:	1c2c      	mov	r4, r5		(add r4, r5, #0)
  10360c:	3408      	add	r4, #8
  10360e:	9014      	str	r0, [sp, #80]
  103610:	9115      	str	r1, [sp, #84]
  103612:	9404      	str	r4, [sp, #16]
  103614:	9814      	ldr	r0, [sp, #80]
  103616:	9915      	ldr	r1, [sp, #84]
  103618:	fde2f003 	bl	1071e0 <isinf>
  10361c:	2800      	cmp	r0, #0
  10361e:	d100      	bne	103622 <.text+0x3622>
  103620:	e352      	b	103cc8 <.text+0x3cc8>
  103622:	9814      	ldr	r0, [sp, #80]
  103624:	9915      	ldr	r1, [sp, #84]
  103626:	4a3c      	ldr	r2, [pc, #240]	(103718 <.text+0x3718>)
  103628:	4b3c      	ldr	r3, [pc, #240]	(10371c <.text+0x371c>)
  10362a:	feb7f007 	bl	10b39c <____ltdf2_from_thumb>
  10362e:	2800      	cmp	r0, #0
  103630:	da01      	bge	103636 <.text+0x3636>
  103632:	fc7ff000 	bl	103f34 <.text+0x3f34>
  103636:	4653      	mov	r3, sl
  103638:	3b45      	sub	r3, #69
  10363a:	2b02      	cmp	r3, #2
  10363c:	d900      	bls	103640 <.text+0x3640>
  10363e:	e2bf      	b	103bc0 <.text+0x3bc0>
  103640:	4837      	ldr	r0, [pc, #220]	(103720 <.text+0x3720>)
  103642:	2703      	mov	r7, #3
  103644:	2100      	mov	r1, #0
  103646:	46b9      	mov	r9, r7
  103648:	9009      	str	r0, [sp, #36]
  10364a:	9111      	str	r1, [sp, #68]
  10364c:	f9d3f7ff 	bl	1029f6 <_vfprintf_r+0x156>
  103650:	4934      	ldr	r1, [pc, #208]	(103724 <.text+0x3724>)
  103652:	4469      	add	r1, sp
  103654:	780b      	ldrb	r3, [r1, #0]
  103656:	2b00      	cmp	r3, #0
  103658:	d000      	beq	10365c <.text+0x365c>
  10365a:	e293      	b	103b84 <.text+0x3b84>
  10365c:	2320      	mov	r3, #32
  10365e:	700b      	strb	r3, [r1, #0]
  103660:	9b16      	ldr	r3, [sp, #88]
  103662:	781a      	ldrb	r2, [r3, #0]
  103664:	f97ff7ff 	bl	102966 <_vfprintf_r+0xc6>
  103668:	4652      	mov	r2, sl
  10366a:	2a43      	cmp	r2, #67
  10366c:	d003      	beq	103676 <.text+0x3676>
  10366e:	9b0a      	ldr	r3, [sp, #40]
  103670:	06db      	lsl	r3, r3, #27
  103672:	d400      	bmi	103676 <.text+0x3676>
  103674:	e292      	b	103b9c <.text+0x3b9c>
  103676:	24b7      	mov	r4, #183
  103678:	00e4      	lsl	r4, r4, #3
  10367a:	446c      	add	r4, sp
  10367c:	4e2a      	ldr	r6, [pc, #168]	(103728 <.text+0x3728>)
  10367e:	2100      	mov	r1, #0
  103680:	2208      	mov	r2, #8
  103682:	1c20      	mov	r0, r4		(add r0, r4, #0)
  103684:	fff0f7fe 	bl	102668 <memset>
  103688:	446e      	add	r6, sp
  10368a:	1d28      	add	r0, r5, #4
  10368c:	9004      	str	r0, [sp, #16]
  10368e:	682a      	ldr	r2, [r5, #0]
  103690:	9806      	ldr	r0, [sp, #24]
  103692:	1c31      	mov	r1, r6		(add r1, r6, #0)
  103694:	1c23      	mov	r3, r4		(add r3, r4, #0)
  103696:	fd7df000 	bl	104194 <_wcrtomb_r>
  10369a:	1c07      	mov	r7, r0		(add r7, r0, #0)
  10369c:	1c41      	add	r1, r0, #1
  10369e:	d101      	bne	1036a4 <.text+0x36a4>
  1036a0:	fd31f000 	bl	104106 <.text+0x4106>
  1036a4:	491f      	ldr	r1, [pc, #124]	(103724 <.text+0x3724>)
  1036a6:	2300      	mov	r3, #0
  1036a8:	4469      	add	r1, sp
  1036aa:	700b      	strb	r3, [r1, #0]
  1036ac:	2f00      	cmp	r7, #0
  1036ae:	46b9      	mov	r9, r7
  1036b0:	da00      	bge	1036b4 <.text+0x36b4>
  1036b2:	e352      	b	103d5a <.text+0x3d5a>
  1036b4:	2300      	mov	r3, #0
  1036b6:	9609      	str	r6, [sp, #36]
  1036b8:	9311      	str	r3, [sp, #68]
  1036ba:	f99cf7ff 	bl	1029f6 <_vfprintf_r+0x156>
  1036be:	990a      	ldr	r1, [sp, #40]
  1036c0:	06c9      	lsl	r1, r1, #27
  1036c2:	d500      	bpl	1036c6 <.text+0x36c6>
  1036c4:	e137      	b	103936 <.text+0x3936>
  1036c6:	9a0a      	ldr	r2, [sp, #40]
  1036c8:	0652      	lsl	r2, r2, #25
  1036ca:	d400      	bmi	1036ce <.text+0x36ce>
  1036cc:	e133      	b	103936 <.text+0x3936>
  1036ce:	4669      	mov	r1, sp
  1036d0:	682b      	ldr	r3, [r5, #0]
  1036d2:	8d89      	ldrh	r1, [r1, #44]
  1036d4:	1d28      	add	r0, r5, #4
  1036d6:	9004      	str	r0, [sp, #16]
  1036d8:	8019      	strh	r1, [r3, #0]
  1036da:	f92df7ff 	bl	102938 <_vfprintf_r+0x98>
  1036de:	2301      	mov	r3, #1
  1036e0:	9c0a      	ldr	r4, [sp, #40]
  1036e2:	431c      	orr	r4, r3
  1036e4:	940a      	str	r4, [sp, #40]
  1036e6:	9816      	ldr	r0, [sp, #88]
  1036e8:	7802      	ldrb	r2, [r0, #0]
  1036ea:	f93cf7ff 	bl	102966 <_vfprintf_r+0xc6>
  1036ee:	2340      	mov	r3, #64
  1036f0:	e7f6      	b	1036e0 <.text+0x36e0>
  1036f2:	0000      	lsl	r0, r0, #0
  1036f4:	05d4      	lsl	r4, r2, #23
  1036f6:	0000      	lsl	r0, r0, #0
  1036f8:	05dc      	lsl	r4, r3, #23
  1036fa:	0000      	lsl	r0, r0, #0
  1036fc:	05cc      	lsl	r4, r1, #23
  1036fe:	0000      	lsl	r0, r0, #0
  103700:	b6b4      	undefined instruction 0xb6b4
  103702:	0010      	lsl	r0, r2, #0
  103704:	065c      	lsl	r4, r3, #25
  103706:	0000      	lsl	r0, r0, #0
  103708:	0654      	lsl	r4, r2, #25
  10370a:	0000      	lsl	r0, r0, #0
  10370c:	0614      	lsl	r4, r2, #24
  10370e:	0000      	lsl	r0, r0, #0
  103710:	0661      	lsl	r1, r4, #25
  103712:	0000      	lsl	r0, r0, #0
  103714:	b86c      	undefined instruction 0xb86c
  103716:	0010      	lsl	r0, r2, #0
	...
  103720:	b854      	undefined instruction 0xb854
  103722:	0010      	lsl	r0, r2, #0
  103724:	067b      	lsl	r3, r7, #25
  103726:	0000      	lsl	r0, r0, #0
  103728:	045c      	lsl	r4, r3, #17
  10372a:	0000      	lsl	r0, r0, #0
  10372c:	1d2b      	add	r3, r5, #4
  10372e:	682d      	ldr	r5, [r5, #0]
  103730:	950c      	str	r5, [sp, #48]
  103732:	2d00      	cmp	r5, #0
  103734:	da00      	bge	103738 <.text+0x3738>
  103736:	e6dc      	b	1034f2 <.text+0x34f2>
  103738:	9c16      	ldr	r4, [sp, #88]
  10373a:	7822      	ldrb	r2, [r4, #0]
  10373c:	1c1d      	mov	r5, r3		(add r5, r3, #0)
  10373e:	f912f7ff 	bl	102966 <_vfprintf_r+0xc6>
  103742:	9a0a      	ldr	r2, [sp, #40]
  103744:	2302      	mov	r3, #2
  103746:	431a      	orr	r2, r3
  103748:	2078      	mov	r0, #120
  10374a:	4bde      	ldr	r3, [pc, #888]	(103ac4 <.text+0x3ac4>)
  10374c:	682c      	ldr	r4, [r5, #0]
  10374e:	1d29      	add	r1, r5, #4
  103750:	920a      	str	r2, [sp, #40]
  103752:	4682      	mov	sl, r0
  103754:	2202      	mov	r2, #2
  103756:	9104      	str	r1, [sp, #16]
  103758:	9312      	str	r3, [sp, #72]
  10375a:	e585      	b	103268 <.text+0x3268>
  10375c:	48d9      	ldr	r0, [pc, #868]	(103ac4 <.text+0x3ac4>)
  10375e:	9a0a      	ldr	r2, [sp, #40]
  103760:	9012      	str	r0, [sp, #72]
  103762:	06d2      	lsl	r2, r2, #27
  103764:	d500      	bpl	103768 <.text+0x3768>
  103766:	e700      	b	10356a <.text+0x356a>
  103768:	9c0a      	ldr	r4, [sp, #40]
  10376a:	0664      	lsl	r4, r4, #25
  10376c:	d400      	bmi	103770 <.text+0x3770>
  10376e:	e1e2      	b	103b36 <.text+0x3b36>
  103770:	882c      	ldrh	r4, [r5, #0]
  103772:	1d28      	add	r0, r5, #4
  103774:	9004      	str	r0, [sp, #16]
  103776:	e6fb      	b	103570 <.text+0x3570>
  103778:	49d3      	ldr	r1, [pc, #844]	(103ac8 <.text+0x3ac8>)
  10377a:	2300      	mov	r3, #0
  10377c:	4469      	add	r1, sp
  10377e:	700b      	strb	r3, [r1, #0]
  103780:	1d2a      	add	r2, r5, #4
  103782:	682d      	ldr	r5, [r5, #0]
  103784:	9204      	str	r2, [sp, #16]
  103786:	9509      	str	r5, [sp, #36]
  103788:	2d00      	cmp	r5, #0
  10378a:	d100      	bne	10378e <.text+0x378e>
  10378c:	e2e8      	b	103d60 <.text+0x3d60>
  10378e:	4650      	mov	r0, sl
  103790:	2853      	cmp	r0, #83
  103792:	d003      	beq	10379c <.text+0x379c>
  103794:	990a      	ldr	r1, [sp, #40]
  103796:	06c9      	lsl	r1, r1, #27
  103798:	d400      	bmi	10379c <.text+0x379c>
  10379a:	e219      	b	103bd0 <.text+0x3bd0>
  10379c:	4bcb      	ldr	r3, [pc, #812]	(103acc <.text+0x3acc>)
  10379e:	25b7      	mov	r5, #183
  1037a0:	9a09      	ldr	r2, [sp, #36]
  1037a2:	00ed      	lsl	r5, r5, #3
  1037a4:	446b      	add	r3, sp
  1037a6:	446d      	add	r5, sp
  1037a8:	601a      	str	r2, [r3, #0]
  1037aa:	1c28      	mov	r0, r5		(add r0, r5, #0)
  1037ac:	2100      	mov	r1, #0
  1037ae:	2208      	mov	r2, #8
  1037b0:	ff5af7fe 	bl	102668 <memset>
  1037b4:	2e00      	cmp	r6, #0
  1037b6:	da01      	bge	1037bc <.text+0x37bc>
  1037b8:	fc09f000 	bl	103fce <.text+0x3fce>
  1037bc:	2700      	mov	r7, #0
  1037be:	2400      	mov	r4, #0
  1037c0:	e000      	b	1037c4 <.text+0x37c4>
  1037c2:	1c07      	mov	r7, r0		(add r7, r0, #0)
  1037c4:	48c1      	ldr	r0, [pc, #772]	(103acc <.text+0x3acc>)
  1037c6:	4468      	add	r0, sp
  1037c8:	6803      	ldr	r3, [r0, #0]
  1037ca:	591a      	ldr	r2, [r3, r4]
  1037cc:	2a00      	cmp	r2, #0
  1037ce:	d00f      	beq	1037f0 <.text+0x37f0>
  1037d0:	49bf      	ldr	r1, [pc, #764]	(103ad0 <.text+0x3ad0>)
  1037d2:	9806      	ldr	r0, [sp, #24]
  1037d4:	4469      	add	r1, sp
  1037d6:	1c2b      	mov	r3, r5		(add r3, r5, #0)
  1037d8:	fcdcf000 	bl	104194 <_wcrtomb_r>
  1037dc:	1c41      	add	r1, r0, #1
  1037de:	d100      	bne	1037e2 <.text+0x37e2>
  1037e0:	e3e4      	b	103fac <.text+0x3fac>
  1037e2:	1838      	add	r0, r7, r0
  1037e4:	4286      	cmp	r6, r0
  1037e6:	db03      	blt	1037f0 <.text+0x37f0>
  1037e8:	3404      	add	r4, #4
  1037ea:	4286      	cmp	r6, r0
  1037ec:	d1e9      	bne	1037c2 <.text+0x37c2>
  1037ee:	1c37      	mov	r7, r6		(add r7, r6, #0)
  1037f0:	2f00      	cmp	r7, #0
  1037f2:	d000      	beq	1037f6 <.text+0x37f6>
  1037f4:	e22c      	b	103c50 <.text+0x3c50>
  1037f6:	2300      	mov	r3, #0
  1037f8:	4699      	mov	r9, r3
  1037fa:	9311      	str	r3, [sp, #68]
  1037fc:	f8fbf7ff 	bl	1029f6 <_vfprintf_r+0x156>
  103800:	4cb1      	ldr	r4, [pc, #708]	(103ac8 <.text+0x3ac8>)
  103802:	232b      	mov	r3, #43
  103804:	446c      	add	r4, sp
  103806:	7023      	strb	r3, [r4, #0]
  103808:	9816      	ldr	r0, [sp, #88]
  10380a:	7802      	ldrb	r2, [r0, #0]
  10380c:	f8abf7ff 	bl	102966 <_vfprintf_r+0xc6>
  103810:	49b0      	ldr	r1, [pc, #704]	(103ad4 <.text+0x3ad4>)
  103812:	9805      	ldr	r0, [sp, #20]
  103814:	4469      	add	r1, sp
  103816:	f833f7ff 	bl	102880 <__sprint>
  10381a:	2800      	cmp	r0, #0
  10381c:	d001      	beq	103822 <.text+0x3822>
  10381e:	fac2f7ff 	bl	102da6 <.text+0x2da6>
  103822:	4cad      	ldr	r4, [pc, #692]	(103ad8 <.text+0x3ad8>)
  103824:	446c      	add	r4, sp
  103826:	6826      	ldr	r6, [r4, #0]
  103828:	9c10      	ldr	r4, [sp, #64]
  10382a:	49ac      	ldr	r1, [pc, #688]	(103adc <.text+0x3adc>)
  10382c:	3c01      	sub	r4, #1
  10382e:	4469      	add	r1, sp
  103830:	2c00      	cmp	r4, #0
  103832:	dd01      	ble	103838 <.text+0x3838>
  103834:	fa5cf7ff 	bl	102cf0 <.text+0x2cf0>
  103838:	f958f7ff 	bl	102aec <_vfprintf_r+0x24c>
  10383c:	22cb      	mov	r2, #203
  10383e:	00d2      	lsl	r2, r2, #3
  103840:	446a      	add	r2, sp
  103842:	6815      	ldr	r5, [r2, #0]
  103844:	4aa6      	ldr	r2, [pc, #664]	(103ae0 <.text+0x3ae0>)
  103846:	4690      	mov	r8, r2
  103848:	e003      	b	103852 <.text+0x3852>
  10384a:	3c10      	sub	r4, #16
  10384c:	2c10      	cmp	r4, #16
  10384e:	dc00      	bgt	103852 <.text+0x3852>
  103850:	e491      	b	103176 <.text+0x3176>
  103852:	2310      	mov	r3, #16
  103854:	604b      	str	r3, [r1, #4]
  103856:	20cb      	mov	r0, #203
  103858:	4b9f      	ldr	r3, [pc, #636]	(103ad8 <.text+0x3ad8>)
  10385a:	00c0      	lsl	r0, r0, #3
  10385c:	3610      	add	r6, #16
  10385e:	446b      	add	r3, sp
  103860:	3501      	add	r5, #1
  103862:	4468      	add	r0, sp
  103864:	600a      	str	r2, [r1, #0]
  103866:	601e      	str	r6, [r3, #0]
  103868:	3108      	add	r1, #8
  10386a:	6005      	str	r5, [r0, #0]
  10386c:	2d07      	cmp	r5, #7
  10386e:	ddec      	ble	10384a <.text+0x384a>
  103870:	4998      	ldr	r1, [pc, #608]	(103ad4 <.text+0x3ad4>)
  103872:	9805      	ldr	r0, [sp, #20]
  103874:	4469      	add	r1, sp
  103876:	f803f7ff 	bl	102880 <__sprint>
  10387a:	2800      	cmp	r0, #0
  10387c:	d001      	beq	103882 <.text+0x3882>
  10387e:	fa92f7ff 	bl	102da6 <.text+0x2da6>
  103882:	4a95      	ldr	r2, [pc, #596]	(103ad8 <.text+0x3ad8>)
  103884:	23cb      	mov	r3, #203
  103886:	00db      	lsl	r3, r3, #3
  103888:	446a      	add	r2, sp
  10388a:	4994      	ldr	r1, [pc, #592]	(103adc <.text+0x3adc>)
  10388c:	446b      	add	r3, sp
  10388e:	6816      	ldr	r6, [r2, #0]
  103890:	681d      	ldr	r5, [r3, #0]
  103892:	4469      	add	r1, sp
  103894:	4642      	mov	r2, r8
  103896:	e7d8      	b	10384a <.text+0x384a>
  103898:	498e      	ldr	r1, [pc, #568]	(103ad4 <.text+0x3ad4>)
  10389a:	9805      	ldr	r0, [sp, #20]
  10389c:	4469      	add	r1, sp
  10389e:	ffeff7fe 	bl	102880 <__sprint>
  1038a2:	2800      	cmp	r0, #0
  1038a4:	d001      	beq	1038aa <.text+0x38aa>
  1038a6:	fa7ef7ff 	bl	102da6 <.text+0x2da6>
  1038aa:	4c8b      	ldr	r4, [pc, #556]	(103ad8 <.text+0x3ad8>)
  1038ac:	20cb      	mov	r0, #203
  1038ae:	23ce      	mov	r3, #206
  1038b0:	00c0      	lsl	r0, r0, #3
  1038b2:	00db      	lsl	r3, r3, #3
  1038b4:	4989      	ldr	r1, [pc, #548]	(103adc <.text+0x3adc>)
  1038b6:	446c      	add	r4, sp
  1038b8:	4468      	add	r0, sp
  1038ba:	446b      	add	r3, sp
  1038bc:	6826      	ldr	r6, [r4, #0]
  1038be:	6805      	ldr	r5, [r0, #0]
  1038c0:	681a      	ldr	r2, [r3, #0]
  1038c2:	4469      	add	r1, sp
  1038c4:	fb78f7ff 	bl	102fb8 <.text+0x2fb8>
  1038c8:	4982      	ldr	r1, [pc, #520]	(103ad4 <.text+0x3ad4>)
  1038ca:	9805      	ldr	r0, [sp, #20]
  1038cc:	4469      	add	r1, sp
  1038ce:	ffd7f7fe 	bl	102880 <__sprint>
  1038d2:	2800      	cmp	r0, #0
  1038d4:	d001      	beq	1038da <.text+0x38da>
  1038d6:	fa66f7ff 	bl	102da6 <.text+0x2da6>
  1038da:	487f      	ldr	r0, [pc, #508]	(103ad8 <.text+0x3ad8>)
  1038dc:	23ce      	mov	r3, #206
  1038de:	00db      	lsl	r3, r3, #3
  1038e0:	497e      	ldr	r1, [pc, #504]	(103adc <.text+0x3adc>)
  1038e2:	4468      	add	r0, sp
  1038e4:	446b      	add	r3, sp
  1038e6:	6806      	ldr	r6, [r0, #0]
  1038e8:	681a      	ldr	r2, [r3, #0]
  1038ea:	4469      	add	r1, sp
  1038ec:	e437      	b	10315e <.text+0x315e>
  1038ee:	4979      	ldr	r1, [pc, #484]	(103ad4 <.text+0x3ad4>)
  1038f0:	9805      	ldr	r0, [sp, #20]
  1038f2:	4469      	add	r1, sp
  1038f4:	ffc4f7fe 	bl	102880 <__sprint>
  1038f8:	2800      	cmp	r0, #0
  1038fa:	d001      	beq	103900 <.text+0x3900>
  1038fc:	fa53f7ff 	bl	102da6 <.text+0x2da6>
  103900:	4a75      	ldr	r2, [pc, #468]	(103ad8 <.text+0x3ad8>)
  103902:	23cb      	mov	r3, #203
  103904:	20ce      	mov	r0, #206
  103906:	00db      	lsl	r3, r3, #3
  103908:	00c0      	lsl	r0, r0, #3
  10390a:	446a      	add	r2, sp
  10390c:	4973      	ldr	r1, [pc, #460]	(103adc <.text+0x3adc>)
  10390e:	446b      	add	r3, sp
  103910:	4468      	add	r0, sp
  103912:	6816      	ldr	r6, [r2, #0]
  103914:	681d      	ldr	r5, [r3, #0]
  103916:	6802      	ldr	r2, [r0, #0]
  103918:	4469      	add	r1, sp
  10391a:	fb61f7ff 	bl	102fe0 <.text+0x2fe0>
  10391e:	2201      	mov	r2, #1
  103920:	4252      	neg	r2, r2
  103922:	920b      	str	r2, [sp, #44]
  103924:	fa4cf7ff 	bl	102dc0 <.text+0x2dc0>
  103928:	4867      	ldr	r0, [pc, #412]	(103ac8 <.text+0x3ac8>)
  10392a:	232d      	mov	r3, #45
  10392c:	4468      	add	r0, sp
  10392e:	4264      	neg	r4, r4
  103930:	2201      	mov	r2, #1
  103932:	7003      	strb	r3, [r0, #0]
  103934:	e49c      	b	103270 <.text+0x3270>
  103936:	1d2b      	add	r3, r5, #4
  103938:	9304      	str	r3, [sp, #16]
  10393a:	9c0b      	ldr	r4, [sp, #44]
  10393c:	682b      	ldr	r3, [r5, #0]
  10393e:	601c      	str	r4, [r3, #0]
  103940:	fffaf7fe 	bl	102938 <_vfprintf_r+0x98>
  103944:	22b7      	mov	r2, #183
  103946:	00d2      	lsl	r2, r2, #3
  103948:	446a      	add	r2, sp
  10394a:	2107      	mov	r1, #7
  10394c:	e000      	b	103950 <.text+0x3950>
  10394e:	9a09      	ldr	r2, [sp, #36]
  103950:	1e53      	sub	r3, r2, #1
  103952:	9309      	str	r3, [sp, #36]
  103954:	1c23      	mov	r3, r4		(add r3, r4, #0)
  103956:	400b      	and	r3, r1
  103958:	9809      	ldr	r0, [sp, #36]
  10395a:	3330      	add	r3, #48
  10395c:	08e4      	lsr	r4, r4, #3
  10395e:	7003      	strb	r3, [r0, #0]
  103960:	2c00      	cmp	r4, #0
  103962:	d1f4      	bne	10394e <.text+0x394e>
  103964:	990a      	ldr	r1, [sp, #40]
  103966:	07c9      	lsl	r1, r1, #31
  103968:	d427      	bmi	1039ba <.text+0x39ba>
  10396a:	4b59      	ldr	r3, [pc, #356]	(103ad0 <.text+0x3ad0>)
  10396c:	9a09      	ldr	r2, [sp, #36]
  10396e:	446b      	add	r3, sp
  103970:	1a98      	sub	r0, r3, r2
  103972:	21ae      	mov	r1, #174
  103974:	0049      	lsl	r1, r1, #1
  103976:	1809      	add	r1, r1, r0
  103978:	4689      	mov	r9, r1
  10397a:	1c0f      	mov	r7, r1		(add r7, r1, #0)
  10397c:	45b1      	cmp	r9, r6
  10397e:	da00      	bge	103982 <.text+0x3982>
  103980:	46b1      	mov	r9, r6
  103982:	9611      	str	r6, [sp, #68]
  103984:	f837f7ff 	bl	1029f6 <_vfprintf_r+0x156>
  103988:	2a00      	cmp	r2, #0
  10398a:	d021      	beq	1039d0 <.text+0x39d0>
  10398c:	22b7      	mov	r2, #183
  10398e:	00d2      	lsl	r2, r2, #3
  103990:	4854      	ldr	r0, [pc, #336]	(103ae4 <.text+0x3ae4>)
  103992:	446a      	add	r2, sp
  103994:	9209      	str	r2, [sp, #36]
  103996:	e7ec      	b	103972 <.text+0x3972>
  103998:	2c09      	cmp	r4, #9
  10399a:	d823      	bhi	1039e4 <.text+0x39e4>
  10399c:	25b7      	mov	r5, #183
  10399e:	00ed      	lsl	r5, r5, #3
  1039a0:	446d      	add	r5, sp
  1039a2:	1c23      	mov	r3, r4		(add r3, r4, #0)
  1039a4:	3d01      	sub	r5, #1
  1039a6:	3330      	add	r3, #48
  1039a8:	9509      	str	r5, [sp, #36]
  1039aa:	702b      	strb	r3, [r5, #0]
  1039ac:	4b48      	ldr	r3, [pc, #288]	(103ad0 <.text+0x3ad0>)
  1039ae:	9909      	ldr	r1, [sp, #36]
  1039b0:	446b      	add	r3, sp
  1039b2:	1a58      	sub	r0, r3, r1
  1039b4:	e7dd      	b	103972 <.text+0x3972>
  1039b6:	2202      	mov	r2, #2
  1039b8:	e456      	b	103268 <.text+0x3268>
  1039ba:	2b30      	cmp	r3, #48
  1039bc:	d100      	bne	1039c0 <.text+0x39c0>
  1039be:	e0f5      	b	103bac <.text+0x3bac>
  1039c0:	3a02      	sub	r2, #2
  1039c2:	2330      	mov	r3, #48
  1039c4:	9209      	str	r2, [sp, #36]
  1039c6:	7013      	strb	r3, [r2, #0]
  1039c8:	4b41      	ldr	r3, [pc, #260]	(103ad0 <.text+0x3ad0>)
  1039ca:	446b      	add	r3, sp
  1039cc:	1a98      	sub	r0, r3, r2
  1039ce:	e7d0      	b	103972 <.text+0x3972>
  1039d0:	9b0a      	ldr	r3, [sp, #40]
  1039d2:	07db      	lsl	r3, r3, #31
  1039d4:	d500      	bpl	1039d8 <.text+0x39d8>
  1039d6:	e09e      	b	103b16 <.text+0x3b16>
  1039d8:	24b7      	mov	r4, #183
  1039da:	00e4      	lsl	r4, r4, #3
  1039dc:	4841      	ldr	r0, [pc, #260]	(103ae4 <.text+0x3ae4>)
  1039de:	446c      	add	r4, sp
  1039e0:	9409      	str	r4, [sp, #36]
  1039e2:	e7c6      	b	103972 <.text+0x3972>
  1039e4:	25b7      	mov	r5, #183
  1039e6:	00ed      	lsl	r5, r5, #3
  1039e8:	446d      	add	r5, sp
  1039ea:	1c20      	mov	r0, r4		(add r0, r4, #0)
  1039ec:	210a      	mov	r1, #10
  1039ee:	f8fdf004 	bl	107bec <__umodsi3>
  1039f2:	3d01      	sub	r5, #1
  1039f4:	3030      	add	r0, #48
  1039f6:	7028      	strb	r0, [r5, #0]
  1039f8:	210a      	mov	r1, #10
  1039fa:	1c20      	mov	r0, r4		(add r0, r4, #0)
  1039fc:	f85ef004 	bl	107abc <__udivsi3>
  103a00:	1c04      	mov	r4, r0		(add r4, r0, #0)
  103a02:	2809      	cmp	r0, #9
  103a04:	d8f1      	bhi	1039ea <.text+0x39ea>
  103a06:	e7cc      	b	1039a2 <.text+0x39a2>
  103a08:	4b37      	ldr	r3, [pc, #220]	(103ae8 <.text+0x3ae8>)
  103a0a:	4644      	mov	r4, r8
  103a0c:	4932      	ldr	r1, [pc, #200]	(103ad8 <.text+0x3ad8>)
  103a0e:	6023      	str	r3, [r4, #0]
  103a10:	23cb      	mov	r3, #203
  103a12:	4469      	add	r1, sp
  103a14:	3601      	add	r6, #1
  103a16:	00db      	lsl	r3, r3, #3
  103a18:	2401      	mov	r4, #1
  103a1a:	4640      	mov	r0, r8
  103a1c:	600e      	str	r6, [r1, #0]
  103a1e:	3501      	add	r5, #1
  103a20:	4641      	mov	r1, r8
  103a22:	446b      	add	r3, sp
  103a24:	6044      	str	r4, [r0, #4]
  103a26:	3108      	add	r1, #8
  103a28:	601d      	str	r5, [r3, #0]
  103a2a:	2d07      	cmp	r5, #7
  103a2c:	dd00      	ble	103a30 <.text+0x3a30>
  103a2e:	e16a      	b	103d06 <.text+0x3d06>
  103a30:	2a00      	cmp	r2, #0
  103a32:	d104      	bne	103a3e <.text+0x3a3e>
  103a34:	9810      	ldr	r0, [sp, #64]
  103a36:	2800      	cmp	r0, #0
  103a38:	d101      	bne	103a3e <.text+0x3a3e>
  103a3a:	f857f7ff 	bl	102aec <_vfprintf_r+0x24c>
  103a3e:	20cb      	mov	r0, #203
  103a40:	00c0      	lsl	r0, r0, #3
  103a42:	4468      	add	r0, sp
  103a44:	604c      	str	r4, [r1, #4]
  103a46:	6805      	ldr	r5, [r0, #0]
  103a48:	4c23      	ldr	r4, [pc, #140]	(103ad8 <.text+0x3ad8>)
  103a4a:	9b0d      	ldr	r3, [sp, #52]
  103a4c:	3601      	add	r6, #1
  103a4e:	446c      	add	r4, sp
  103a50:	3501      	add	r5, #1
  103a52:	600b      	str	r3, [r1, #0]
  103a54:	6026      	str	r6, [r4, #0]
  103a56:	3108      	add	r1, #8
  103a58:	6005      	str	r5, [r0, #0]
  103a5a:	2d07      	cmp	r5, #7
  103a5c:	dd00      	ble	103a60 <.text+0x3a60>
  103a5e:	e165      	b	103d2c <.text+0x3d2c>
  103a60:	4254      	neg	r4, r2
  103a62:	2c00      	cmp	r4, #0
  103a64:	dd23      	ble	103aae <.text+0x3aae>
  103a66:	2c10      	cmp	r4, #16
  103a68:	dd00      	ble	103a6c <.text+0x3a6c>
  103a6a:	e0c7      	b	103bfc <.text+0x3bfc>
  103a6c:	4a1c      	ldr	r2, [pc, #112]	(103ae0 <.text+0x3ae0>)
  103a6e:	604c      	str	r4, [r1, #4]
  103a70:	1936      	add	r6, r6, r4
  103a72:	4b19      	ldr	r3, [pc, #100]	(103ad8 <.text+0x3ad8>)
  103a74:	24cb      	mov	r4, #203
  103a76:	00e4      	lsl	r4, r4, #3
  103a78:	446b      	add	r3, sp
  103a7a:	3501      	add	r5, #1
  103a7c:	446c      	add	r4, sp
  103a7e:	600a      	str	r2, [r1, #0]
  103a80:	601e      	str	r6, [r3, #0]
  103a82:	3108      	add	r1, #8
  103a84:	6025      	str	r5, [r4, #0]
  103a86:	2d07      	cmp	r5, #7
  103a88:	dd11      	ble	103aae <.text+0x3aae>
  103a8a:	4912      	ldr	r1, [pc, #72]	(103ad4 <.text+0x3ad4>)
  103a8c:	9805      	ldr	r0, [sp, #20]
  103a8e:	4469      	add	r1, sp
  103a90:	fef6f7fe 	bl	102880 <__sprint>
  103a94:	2800      	cmp	r0, #0
  103a96:	d001      	beq	103a9c <.text+0x3a9c>
  103a98:	f985f7ff 	bl	102da6 <.text+0x2da6>
  103a9c:	480e      	ldr	r0, [pc, #56]	(103ad8 <.text+0x3ad8>)
  103a9e:	22cb      	mov	r2, #203
  103aa0:	00d2      	lsl	r2, r2, #3
  103aa2:	490e      	ldr	r1, [pc, #56]	(103adc <.text+0x3adc>)
  103aa4:	4468      	add	r0, sp
  103aa6:	446a      	add	r2, sp
  103aa8:	6806      	ldr	r6, [r0, #0]
  103aaa:	6815      	ldr	r5, [r2, #0]
  103aac:	4469      	add	r1, sp
  103aae:	9c10      	ldr	r4, [sp, #64]
  103ab0:	4809      	ldr	r0, [pc, #36]	(103ad8 <.text+0x3ad8>)
  103ab2:	9b09      	ldr	r3, [sp, #36]
  103ab4:	1936      	add	r6, r6, r4
  103ab6:	4468      	add	r0, sp
  103ab8:	600b      	str	r3, [r1, #0]
  103aba:	604c      	str	r4, [r1, #4]
  103abc:	6006      	str	r6, [r0, #0]
  103abe:	f80cf7ff 	bl	102ada <_vfprintf_r+0x23a>
  103ac2:	0000      	lsl	r0, r0, #0
  103ac4:	b840      	undefined instruction 0xb840
  103ac6:	0010      	lsl	r0, r2, #0
  103ac8:	067b      	lsl	r3, r7, #25
  103aca:	0000      	lsl	r0, r0, #0
  103acc:	0674      	lsl	r4, r6, #25
  103ace:	0000      	lsl	r0, r0, #0
  103ad0:	045c      	lsl	r4, r3, #17
  103ad2:	0000      	lsl	r0, r0, #0
  103ad4:	0654      	lsl	r4, r2, #25
  103ad6:	0000      	lsl	r0, r0, #0
  103ad8:	065c      	lsl	r4, r3, #25
  103ada:	0000      	lsl	r0, r0, #0
  103adc:	0614      	lsl	r4, r2, #24
  103ade:	0000      	lsl	r0, r0, #0
  103ae0:	b6b4      	undefined instruction 0xb6b4
  103ae2:	0010      	lsl	r0, r2, #0
  103ae4:	fea4      	second half of BL instruction 0xfea4
  103ae6:	ffff      	second half of BL instruction 0xffff
  103ae8:	b89c      	undefined instruction 0xb89c
  103aea:	0010      	lsl	r0, r2, #0
  103aec:	22b7      	mov	r2, #183
  103aee:	00d2      	lsl	r2, r2, #3
  103af0:	446a      	add	r2, sp
  103af2:	9209      	str	r2, [sp, #36]
  103af4:	220f      	mov	r2, #15
  103af6:	9b09      	ldr	r3, [sp, #36]
  103af8:	3b01      	sub	r3, #1
  103afa:	9309      	str	r3, [sp, #36]
  103afc:	9812      	ldr	r0, [sp, #72]
  103afe:	1c23      	mov	r3, r4		(add r3, r4, #0)
  103b00:	4013      	and	r3, r2
  103b02:	5cc3      	ldrb	r3, [r0, r3]
  103b04:	9909      	ldr	r1, [sp, #36]
  103b06:	0924      	lsr	r4, r4, #4
  103b08:	700b      	strb	r3, [r1, #0]
  103b0a:	2c00      	cmp	r4, #0
  103b0c:	d1f3      	bne	103af6 <.text+0x3af6>
  103b0e:	4be0      	ldr	r3, [pc, #896]	(103e90 <.text+0x3e90>)
  103b10:	446b      	add	r3, sp
  103b12:	1a58      	sub	r0, r3, r1
  103b14:	e72d      	b	103972 <.text+0x3972>
  103b16:	4ade      	ldr	r2, [pc, #888]	(103e90 <.text+0x3e90>)
  103b18:	48de      	ldr	r0, [pc, #888]	(103e94 <.text+0x3e94>)
  103b1a:	4bdf      	ldr	r3, [pc, #892]	(103e98 <.text+0x3e98>)
  103b1c:	4468      	add	r0, sp
  103b1e:	2130      	mov	r1, #48
  103b20:	446a      	add	r2, sp
  103b22:	54d1      	strb	r1, [r2, r3]
  103b24:	9009      	str	r0, [sp, #36]
  103b26:	48dd      	ldr	r0, [pc, #884]	(103e9c <.text+0x3e9c>)
  103b28:	e723      	b	103972 <.text+0x3972>
  103b2a:	1d28      	add	r0, r5, #4
  103b2c:	9004      	str	r0, [sp, #16]
  103b2e:	682c      	ldr	r4, [r5, #0]
  103b30:	2200      	mov	r2, #0
  103b32:	fb99f7ff 	bl	103268 <.text+0x3268>
  103b36:	1d29      	add	r1, r5, #4
  103b38:	9104      	str	r1, [sp, #16]
  103b3a:	682c      	ldr	r4, [r5, #0]
  103b3c:	e518      	b	103570 <.text+0x3570>
  103b3e:	1d28      	add	r0, r5, #4
  103b40:	9004      	str	r0, [sp, #16]
  103b42:	682c      	ldr	r4, [r5, #0]
  103b44:	2201      	mov	r2, #1
  103b46:	fb8ff7ff 	bl	103268 <.text+0x3268>
  103b4a:	1d2c      	add	r4, r5, #4
  103b4c:	9404      	str	r4, [sp, #16]
  103b4e:	682c      	ldr	r4, [r5, #0]
  103b50:	e4ea      	b	103528 <.text+0x3528>
  103b52:	2200      	mov	r2, #0
  103b54:	0093      	lsl	r3, r2, #2
  103b56:	189b      	add	r3, r3, r2
  103b58:	005b      	lsl	r3, r3, #1
  103b5a:	4453      	add	r3, sl
  103b5c:	1c1a      	mov	r2, r3		(add r2, r3, #0)
  103b5e:	9b16      	ldr	r3, [sp, #88]
  103b60:	9c16      	ldr	r4, [sp, #88]
  103b62:	781b      	ldrb	r3, [r3, #0]
  103b64:	3401      	add	r4, #1
  103b66:	469a      	mov	sl, r3
  103b68:	3b30      	sub	r3, #48
  103b6a:	3a30      	sub	r2, #48
  103b6c:	9416      	str	r4, [sp, #88]
  103b6e:	2b09      	cmp	r3, #9
  103b70:	d9f0      	bls	103b54 <.text+0x3b54>
  103b72:	1c16      	mov	r6, r2		(add r6, r2, #0)
  103b74:	1c50      	add	r0, r2, #1
  103b76:	db01      	blt	103b7c <.text+0x3b7c>
  103b78:	fefbf7fe 	bl	102972 <_vfprintf_r+0xd2>
  103b7c:	2601      	mov	r6, #1
  103b7e:	4276      	neg	r6, r6
  103b80:	fef7f7fe 	bl	102972 <_vfprintf_r+0xd2>
  103b84:	9b16      	ldr	r3, [sp, #88]
  103b86:	781a      	ldrb	r2, [r3, #0]
  103b88:	feedf7fe 	bl	102966 <_vfprintf_r+0xc6>
  103b8c:	1c29      	mov	r1, r5		(add r1, r5, #0)
  103b8e:	682a      	ldr	r2, [r5, #0]
  103b90:	686b      	ldr	r3, [r5, #4]
  103b92:	3108      	add	r1, #8
  103b94:	9104      	str	r1, [sp, #16]
  103b96:	9214      	str	r2, [sp, #80]
  103b98:	9315      	str	r3, [sp, #84]
  103b9a:	e53b      	b	103614 <.text+0x3614>
  103b9c:	4ebc      	ldr	r6, [pc, #752]	(103e90 <.text+0x3e90>)
  103b9e:	682b      	ldr	r3, [r5, #0]
  103ba0:	1d28      	add	r0, r5, #4
  103ba2:	446e      	add	r6, sp
  103ba4:	2701      	mov	r7, #1
  103ba6:	9004      	str	r0, [sp, #16]
  103ba8:	7033      	strb	r3, [r6, #0]
  103baa:	e57b      	b	1036a4 <.text+0x36a4>
  103bac:	4bb8      	ldr	r3, [pc, #736]	(103e90 <.text+0x3e90>)
  103bae:	9c09      	ldr	r4, [sp, #36]
  103bb0:	446b      	add	r3, sp
  103bb2:	1b18      	sub	r0, r3, r4
  103bb4:	e6dd      	b	103972 <.text+0x3972>
  103bb6:	2e00      	cmp	r6, #0
  103bb8:	d000      	beq	103bbc <.text+0x3bbc>
  103bba:	e520      	b	1035fe <.text+0x35fe>
  103bbc:	2601      	mov	r6, #1
  103bbe:	e51e      	b	1035fe <.text+0x35fe>
  103bc0:	4ab7      	ldr	r2, [pc, #732]	(103ea0 <.text+0x3ea0>)
  103bc2:	2703      	mov	r7, #3
  103bc4:	2300      	mov	r3, #0
  103bc6:	46b9      	mov	r9, r7
  103bc8:	9209      	str	r2, [sp, #36]
  103bca:	9311      	str	r3, [sp, #68]
  103bcc:	ff13f7fe 	bl	1029f6 <_vfprintf_r+0x156>
  103bd0:	2e00      	cmp	r6, #0
  103bd2:	db62      	blt	103c9a <.text+0x3c9a>
  103bd4:	9809      	ldr	r0, [sp, #36]
  103bd6:	2100      	mov	r1, #0
  103bd8:	1c32      	mov	r2, r6		(add r2, r6, #0)
  103bda:	fc21f002 	bl	106420 <memchr>
  103bde:	2800      	cmp	r0, #0
  103be0:	d100      	bne	103be4 <.text+0x3be4>
  103be2:	e20d      	b	104000 <.text+0x4000>
  103be4:	9c09      	ldr	r4, [sp, #36]
  103be6:	1b07      	sub	r7, r0, r4
  103be8:	42b7      	cmp	r7, r6
  103bea:	dd00      	ble	103bee <.text+0x3bee>
  103bec:	e1a8      	b	103f40 <.text+0x3f40>
  103bee:	2f00      	cmp	r7, #0
  103bf0:	46b9      	mov	r9, r7
  103bf2:	db5d      	blt	103cb0 <.text+0x3cb0>
  103bf4:	2100      	mov	r1, #0
  103bf6:	9111      	str	r1, [sp, #68]
  103bf8:	fefdf7fe 	bl	1029f6 <_vfprintf_r+0x156>
  103bfc:	4aa9      	ldr	r2, [pc, #676]	(103ea4 <.text+0x3ea4>)
  103bfe:	4690      	mov	r8, r2
  103c00:	e003      	b	103c0a <.text+0x3c0a>
  103c02:	3c10      	sub	r4, #16
  103c04:	2c10      	cmp	r4, #16
  103c06:	dc00      	bgt	103c0a <.text+0x3c0a>
  103c08:	e731      	b	103a6e <.text+0x3a6e>
  103c0a:	2310      	mov	r3, #16
  103c0c:	604b      	str	r3, [r1, #4]
  103c0e:	48a6      	ldr	r0, [pc, #664]	(103ea8 <.text+0x3ea8>)
  103c10:	23cb      	mov	r3, #203
  103c12:	00db      	lsl	r3, r3, #3
  103c14:	3610      	add	r6, #16
  103c16:	4468      	add	r0, sp
  103c18:	3501      	add	r5, #1
  103c1a:	446b      	add	r3, sp
  103c1c:	600a      	str	r2, [r1, #0]
  103c1e:	6006      	str	r6, [r0, #0]
  103c20:	3108      	add	r1, #8
  103c22:	601d      	str	r5, [r3, #0]
  103c24:	2d07      	cmp	r5, #7
  103c26:	ddec      	ble	103c02 <.text+0x3c02>
  103c28:	49a0      	ldr	r1, [pc, #640]	(103eac <.text+0x3eac>)
  103c2a:	9805      	ldr	r0, [sp, #20]
  103c2c:	4469      	add	r1, sp
  103c2e:	fe27f7fe 	bl	102880 <__sprint>
  103c32:	2800      	cmp	r0, #0
  103c34:	d001      	beq	103c3a <.text+0x3c3a>
  103c36:	f8b6f7ff 	bl	102da6 <.text+0x2da6>
  103c3a:	489b      	ldr	r0, [pc, #620]	(103ea8 <.text+0x3ea8>)
  103c3c:	22cb      	mov	r2, #203
  103c3e:	00d2      	lsl	r2, r2, #3
  103c40:	446a      	add	r2, sp
  103c42:	499b      	ldr	r1, [pc, #620]	(103eb0 <.text+0x3eb0>)
  103c44:	4468      	add	r0, sp
  103c46:	6815      	ldr	r5, [r2, #0]
  103c48:	6806      	ldr	r6, [r0, #0]
  103c4a:	4469      	add	r1, sp
  103c4c:	4642      	mov	r2, r8
  103c4e:	e7d8      	b	103c02 <.text+0x3c02>
  103c50:	1c79      	add	r1, r7, #1
  103c52:	9806      	ldr	r0, [sp, #24]
  103c54:	f940f002 	bl	105ed8 <_malloc_r>
  103c58:	9013      	str	r0, [sp, #76]
  103c5a:	2800      	cmp	r0, #0
  103c5c:	d100      	bne	103c60 <.text+0x3c60>
  103c5e:	e24b      	b	1040f8 <.text+0x40f8>
  103c60:	2100      	mov	r1, #0
  103c62:	2208      	mov	r2, #8
  103c64:	1c28      	mov	r0, r5		(add r0, r5, #0)
  103c66:	fcfff7fe 	bl	102668 <memset>
  103c6a:	4a92      	ldr	r2, [pc, #584]	(103eb4 <.text+0x3eb4>)
  103c6c:	9806      	ldr	r0, [sp, #24]
  103c6e:	9913      	ldr	r1, [sp, #76]
  103c70:	446a      	add	r2, sp
  103c72:	1c3b      	mov	r3, r7		(add r3, r7, #0)
  103c74:	9500      	str	r5, [sp, #0]
  103c76:	fab7f000 	bl	1041e8 <_wcsrtombs_r>
  103c7a:	4287      	cmp	r7, r0
  103c7c:	d000      	beq	103c80 <.text+0x3c80>
  103c7e:	e234      	b	1040ea <.text+0x40ea>
  103c80:	9c13      	ldr	r4, [sp, #76]
  103c82:	2300      	mov	r3, #0
  103c84:	553b      	strb	r3, [r7, r4]
  103c86:	2f00      	cmp	r7, #0
  103c88:	46b9      	mov	r9, r7
  103c8a:	da00      	bge	103c8e <.text+0x3c8e>
  103c8c:	e205      	b	10409a <.text+0x409a>
  103c8e:	9913      	ldr	r1, [sp, #76]
  103c90:	2200      	mov	r2, #0
  103c92:	9109      	str	r1, [sp, #36]
  103c94:	9211      	str	r2, [sp, #68]
  103c96:	feaef7fe 	bl	1029f6 <_vfprintf_r+0x156>
  103c9a:	9809      	ldr	r0, [sp, #36]
  103c9c:	fd8af7fe 	bl	1027b4 <strlen>
  103ca0:	4681      	mov	r9, r0
  103ca2:	1c07      	mov	r7, r0		(add r7, r0, #0)
  103ca4:	2800      	cmp	r0, #0
  103ca6:	db09      	blt	103cbc <.text+0x3cbc>
  103ca8:	2400      	mov	r4, #0
  103caa:	9411      	str	r4, [sp, #68]
  103cac:	fea3f7fe 	bl	1029f6 <_vfprintf_r+0x156>
  103cb0:	2000      	mov	r0, #0
  103cb2:	2100      	mov	r1, #0
  103cb4:	4681      	mov	r9, r0
  103cb6:	9111      	str	r1, [sp, #68]
  103cb8:	fe9df7fe 	bl	1029f6 <_vfprintf_r+0x156>
  103cbc:	2300      	mov	r3, #0
  103cbe:	2400      	mov	r4, #0
  103cc0:	4699      	mov	r9, r3
  103cc2:	9411      	str	r4, [sp, #68]
  103cc4:	fe97f7fe 	bl	1029f6 <_vfprintf_r+0x156>
  103cc8:	9814      	ldr	r0, [sp, #80]
  103cca:	9915      	ldr	r1, [sp, #84]
  103ccc:	fa9af003 	bl	107204 <isnan>
  103cd0:	2800      	cmp	r0, #0
  103cd2:	d05a      	beq	103d8a <.text+0x3d8a>
  103cd4:	4653      	mov	r3, sl
  103cd6:	3b45      	sub	r3, #69
  103cd8:	2b02      	cmp	r3, #2
  103cda:	d900      	bls	103cde <.text+0x3cde>
  103cdc:	e15e      	b	103f9c <.text+0x3f9c>
  103cde:	4c76      	ldr	r4, [pc, #472]	(103eb8 <.text+0x3eb8>)
  103ce0:	2703      	mov	r7, #3
  103ce2:	2000      	mov	r0, #0
  103ce4:	46b9      	mov	r9, r7
  103ce6:	9409      	str	r4, [sp, #36]
  103ce8:	9011      	str	r0, [sp, #68]
  103cea:	fe84f7fe 	bl	1029f6 <_vfprintf_r+0x156>
  103cee:	2606      	mov	r6, #6
  103cf0:	e485      	b	1035fe <.text+0x35fe>
  103cf2:	9916      	ldr	r1, [sp, #88]
  103cf4:	9a0a      	ldr	r2, [sp, #40]
  103cf6:	2310      	mov	r3, #16
  103cf8:	3101      	add	r1, #1
  103cfa:	431a      	orr	r2, r3
  103cfc:	9116      	str	r1, [sp, #88]
  103cfe:	920a      	str	r2, [sp, #40]
  103d00:	780a      	ldrb	r2, [r1, #0]
  103d02:	fe30f7fe 	bl	102966 <_vfprintf_r+0xc6>
  103d06:	4969      	ldr	r1, [pc, #420]	(103eac <.text+0x3eac>)
  103d08:	9805      	ldr	r0, [sp, #20]
  103d0a:	4469      	add	r1, sp
  103d0c:	fdb8f7fe 	bl	102880 <__sprint>
  103d10:	2800      	cmp	r0, #0
  103d12:	d001      	beq	103d18 <.text+0x3d18>
  103d14:	f847f7ff 	bl	102da6 <.text+0x2da6>
  103d18:	4863      	ldr	r0, [pc, #396]	(103ea8 <.text+0x3ea8>)
  103d1a:	23ce      	mov	r3, #206
  103d1c:	00db      	lsl	r3, r3, #3
  103d1e:	4964      	ldr	r1, [pc, #400]	(103eb0 <.text+0x3eb0>)
  103d20:	4468      	add	r0, sp
  103d22:	446b      	add	r3, sp
  103d24:	6806      	ldr	r6, [r0, #0]
  103d26:	681a      	ldr	r2, [r3, #0]
  103d28:	4469      	add	r1, sp
  103d2a:	e681      	b	103a30 <.text+0x3a30>
  103d2c:	495f      	ldr	r1, [pc, #380]	(103eac <.text+0x3eac>)
  103d2e:	9805      	ldr	r0, [sp, #20]
  103d30:	4469      	add	r1, sp
  103d32:	fda5f7fe 	bl	102880 <__sprint>
  103d36:	2800      	cmp	r0, #0
  103d38:	d001      	beq	103d3e <.text+0x3d3e>
  103d3a:	f834f7ff 	bl	102da6 <.text+0x2da6>
  103d3e:	4a5a      	ldr	r2, [pc, #360]	(103ea8 <.text+0x3ea8>)
  103d40:	23cb      	mov	r3, #203
  103d42:	24ce      	mov	r4, #206
  103d44:	00db      	lsl	r3, r3, #3
  103d46:	00e4      	lsl	r4, r4, #3
  103d48:	446a      	add	r2, sp
  103d4a:	4959      	ldr	r1, [pc, #356]	(103eb0 <.text+0x3eb0>)
  103d4c:	446b      	add	r3, sp
  103d4e:	446c      	add	r4, sp
  103d50:	6816      	ldr	r6, [r2, #0]
  103d52:	681d      	ldr	r5, [r3, #0]
  103d54:	6822      	ldr	r2, [r4, #0]
  103d56:	4469      	add	r1, sp
  103d58:	e682      	b	103a60 <.text+0x3a60>
  103d5a:	2200      	mov	r2, #0
  103d5c:	4691      	mov	r9, r2
  103d5e:	e4a9      	b	1036b4 <.text+0x36b4>
  103d60:	4b56      	ldr	r3, [pc, #344]	(103ebc <.text+0x3ebc>)
  103d62:	2706      	mov	r7, #6
  103d64:	2400      	mov	r4, #0
  103d66:	46b9      	mov	r9, r7
  103d68:	9309      	str	r3, [sp, #36]
  103d6a:	9411      	str	r4, [sp, #68]
  103d6c:	fe43f7fe 	bl	1029f6 <_vfprintf_r+0x156>
  103d70:	4a4d      	ldr	r2, [pc, #308]	(103ea8 <.text+0x3ea8>)
  103d72:	446a      	add	r2, sp
  103d74:	6813      	ldr	r3, [r2, #0]
  103d76:	2b00      	cmp	r3, #0
  103d78:	d000      	beq	103d7c <.text+0x3d7c>
  103d7a:	e11e      	b	103fba <.text+0x3fba>
  103d7c:	23cb      	mov	r3, #203
  103d7e:	00db      	lsl	r3, r3, #3
  103d80:	2500      	mov	r5, #0
  103d82:	446b      	add	r3, sp
  103d84:	601d      	str	r5, [r3, #0]
  103d86:	f815f7ff 	bl	102db4 <.text+0x2db4>
  103d8a:	9c0a      	ldr	r4, [sp, #40]
  103d8c:	2380      	mov	r3, #128
  103d8e:	005b      	lsl	r3, r3, #1
  103d90:	431c      	orr	r4, r3
  103d92:	4650      	mov	r0, sl
  103d94:	940a      	str	r4, [sp, #40]
  103d96:	2866      	cmp	r0, #102
  103d98:	d100      	bne	103d9c <.text+0x3d9c>
  103d9a:	e12e      	b	103ffa <.text+0x3ffa>
  103d9c:	4651      	mov	r1, sl
  103d9e:	2965      	cmp	r1, #101
  103da0:	d100      	bne	103da4 <.text+0x3da4>
  103da2:	e126      	b	103ff2 <.text+0x3ff2>
  103da4:	2945      	cmp	r1, #69
  103da6:	d100      	bne	103daa <.text+0x3daa>
  103da8:	e123      	b	103ff2 <.text+0x3ff2>
  103daa:	46b1      	mov	r9, r6
  103dac:	2702      	mov	r7, #2
  103dae:	9b14      	ldr	r3, [sp, #80]
  103db0:	9c15      	ldr	r4, [sp, #84]
  103db2:	2b00      	cmp	r3, #0
  103db4:	da00      	bge	103db8 <.text+0x3db8>
  103db6:	e14e      	b	104056 <.text+0x4056>
  103db8:	1c25      	mov	r5, r4		(add r5, r4, #0)
  103dba:	1c1c      	mov	r4, r3		(add r4, r3, #0)
  103dbc:	2300      	mov	r3, #0
  103dbe:	930e      	str	r3, [sp, #56]
  103dc0:	464b      	mov	r3, r9
  103dc2:	9300      	str	r3, [sp, #0]
  103dc4:	23ce      	mov	r3, #206
  103dc6:	00db      	lsl	r3, r3, #3
  103dc8:	446b      	add	r3, sp
  103dca:	9301      	str	r3, [sp, #4]
  103dcc:	4b3c      	ldr	r3, [pc, #240]	(103ec0 <.text+0x3ec0>)
  103dce:	446b      	add	r3, sp
  103dd0:	9302      	str	r3, [sp, #8]
  103dd2:	23cd      	mov	r3, #205
  103dd4:	00db      	lsl	r3, r3, #3
  103dd6:	446b      	add	r3, sp
  103dd8:	9303      	str	r3, [sp, #12]
  103dda:	9806      	ldr	r0, [sp, #24]
  103ddc:	1c21      	mov	r1, r4		(add r1, r4, #0)
  103dde:	1c2a      	mov	r2, r5		(add r2, r5, #0)
  103de0:	1c3b      	mov	r3, r7		(add r3, r7, #0)
  103de2:	fcd1f000 	bl	104788 <_dtoa_r>
  103de6:	9009      	str	r0, [sp, #36]
  103de8:	4650      	mov	r0, sl
  103dea:	2867      	cmp	r0, #103
  103dec:	d100      	bne	103df0 <.text+0x3df0>
  103dee:	e0cc      	b	103f8a <.text+0x3f8a>
  103df0:	2847      	cmp	r0, #71
  103df2:	d100      	bne	103df6 <.text+0x3df6>
  103df4:	e0c9      	b	103f8a <.text+0x3f8a>
  103df6:	9f09      	ldr	r7, [sp, #36]
  103df8:	4652      	mov	r2, sl
  103dfa:	444f      	add	r7, r9
  103dfc:	2a66      	cmp	r2, #102
  103dfe:	d100      	bne	103e02 <.text+0x3e02>
  103e00:	e11f      	b	104042 <.text+0x4042>
  103e02:	1c20      	mov	r0, r4		(add r0, r4, #0)
  103e04:	1c29      	mov	r1, r5		(add r1, r5, #0)
  103e06:	4a2f      	ldr	r2, [pc, #188]	(103ec4 <.text+0x3ec4>)
  103e08:	4b2f      	ldr	r3, [pc, #188]	(103ec8 <.text+0x3ec8>)
  103e0a:	faebf007 	bl	10b3e4 <____eqdf2_from_thumb>
  103e0e:	2800      	cmp	r0, #0
  103e10:	d103      	bne	103e1a <.text+0x3e1a>
  103e12:	21cd      	mov	r1, #205
  103e14:	00c9      	lsl	r1, r1, #3
  103e16:	4469      	add	r1, sp
  103e18:	600f      	str	r7, [r1, #0]
  103e1a:	22cd      	mov	r2, #205
  103e1c:	00d2      	lsl	r2, r2, #3
  103e1e:	446a      	add	r2, sp
  103e20:	6813      	ldr	r3, [r2, #0]
  103e22:	429f      	cmp	r7, r3
  103e24:	d909      	bls	103e3a <.text+0x3e3a>
  103e26:	2130      	mov	r1, #48
  103e28:	1c3a      	mov	r2, r7		(add r2, r7, #0)
  103e2a:	24cd      	mov	r4, #205
  103e2c:	00e4      	lsl	r4, r4, #3
  103e2e:	7019      	strb	r1, [r3, #0]
  103e30:	446c      	add	r4, sp
  103e32:	3301      	add	r3, #1
  103e34:	6023      	str	r3, [r4, #0]
  103e36:	4293      	cmp	r3, r2
  103e38:	d1f7      	bne	103e2a <.text+0x3e2a>
  103e3a:	9909      	ldr	r1, [sp, #36]
  103e3c:	4652      	mov	r2, sl
  103e3e:	1a59      	sub	r1, r3, r1
  103e40:	468b      	mov	fp, r1
  103e42:	2a67      	cmp	r2, #103
  103e44:	d100      	bne	103e48 <.text+0x3e48>
  103e46:	e08f      	b	103f68 <.text+0x3f68>
  103e48:	2a47      	cmp	r2, #71
  103e4a:	d100      	bne	103e4e <.text+0x3e4e>
  103e4c:	e08c      	b	103f68 <.text+0x3f68>
  103e4e:	4652      	mov	r2, sl
  103e50:	2a65      	cmp	r2, #101
  103e52:	dd00      	ble	103e56 <.text+0x3e56>
  103e54:	e0e3      	b	10401e <.text+0x401e>
  103e56:	24ce      	mov	r4, #206
  103e58:	00e4      	lsl	r4, r4, #3
  103e5a:	446c      	add	r4, sp
  103e5c:	6822      	ldr	r2, [r4, #0]
  103e5e:	4653      	mov	r3, sl
  103e60:	20ce      	mov	r0, #206
  103e62:	491a      	ldr	r1, [pc, #104]	(103ecc <.text+0x3ecc>)
  103e64:	00c0      	lsl	r0, r0, #3
  103e66:	3a01      	sub	r2, #1
  103e68:	4469      	add	r1, sp
  103e6a:	4468      	add	r0, sp
  103e6c:	1c14      	mov	r4, r2		(add r4, r2, #0)
  103e6e:	6002      	str	r2, [r0, #0]
  103e70:	4689      	mov	r9, r1
  103e72:	700b      	strb	r3, [r1, #0]
  103e74:	2a00      	cmp	r2, #0
  103e76:	da00      	bge	103e7a <.text+0x3e7a>
  103e78:	e0f7      	b	10406a <.text+0x406a>
  103e7a:	232b      	mov	r3, #43
  103e7c:	704b      	strb	r3, [r1, #1]
  103e7e:	2c09      	cmp	r4, #9
  103e80:	dc00      	bgt	103e84 <.text+0x3e84>
  103e82:	e0c3      	b	10400c <.text+0x400c>
  103e84:	27bc      	mov	r7, #188
  103e86:	00ff      	lsl	r7, r7, #3
  103e88:	446f      	add	r7, sp
  103e8a:	1c3e      	mov	r6, r7		(add r6, r7, #0)
  103e8c:	e021      	b	103ed2 <.text+0x3ed2>
  103e8e:	0000      	lsl	r0, r0, #0
  103e90:	045c      	lsl	r4, r3, #17
  103e92:	0000      	lsl	r0, r0, #0
  103e94:	05b7      	lsl	r7, r6, #22
  103e96:	0000      	lsl	r0, r0, #0
  103e98:	015b      	lsl	r3, r3, #5
  103e9a:	0000      	lsl	r0, r0, #0
  103e9c:	fea5      	second half of BL instruction 0xfea5
  103e9e:	ffff      	second half of BL instruction 0xffff
  103ea0:	b858      	undefined instruction 0xb858
  103ea2:	0010      	lsl	r0, r2, #0
  103ea4:	b6b4      	undefined instruction 0xb6b4
  103ea6:	0010      	lsl	r0, r2, #0
  103ea8:	065c      	lsl	r4, r3, #25
  103eaa:	0000      	lsl	r0, r0, #0
  103eac:	0654      	lsl	r4, r2, #25
  103eae:	0000      	lsl	r0, r0, #0
  103eb0:	0614      	lsl	r4, r2, #24
  103eb2:	0000      	lsl	r0, r0, #0
  103eb4:	0674      	lsl	r4, r6, #25
  103eb6:	0000      	lsl	r0, r0, #0
  103eb8:	b85c      	undefined instruction 0xb85c
  103eba:	0010      	lsl	r0, r2, #0
  103ebc:	b864      	undefined instruction 0xb864
  103ebe:	0010      	lsl	r0, r2, #0
  103ec0:	066c      	lsl	r4, r5, #25
	...
  103eca:	0000      	lsl	r0, r0, #0
  103ecc:	0661      	lsl	r1, r4, #25
  103ece:	0000      	lsl	r0, r0, #0
  103ed0:	1c2e      	mov	r6, r5		(add r6, r5, #0)
  103ed2:	1c20      	mov	r0, r4		(add r0, r4, #0)
  103ed4:	210a      	mov	r1, #10
  103ed6:	feedf003 	bl	107cb4 <__modsi3>
  103eda:	1e75      	sub	r5, r6, #1
  103edc:	3030      	add	r0, #48
  103ede:	7028      	strb	r0, [r5, #0]
  103ee0:	210a      	mov	r1, #10
  103ee2:	1c20      	mov	r0, r4		(add r0, r4, #0)
  103ee4:	fe30f003 	bl	107b48 <__divsi3>
  103ee8:	1c04      	mov	r4, r0		(add r4, r0, #0)
  103eea:	2809      	cmp	r0, #9
  103eec:	dcf0      	bgt	103ed0 <.text+0x3ed0>
  103eee:	1c03      	mov	r3, r0		(add r3, r0, #0)
  103ef0:	1eb2      	sub	r2, r6, #2
  103ef2:	3330      	add	r3, #48
  103ef4:	7013      	strb	r3, [r2, #0]
  103ef6:	42ba      	cmp	r2, r7
  103ef8:	d200      	bcs	103efc <.text+0x3efc>
  103efa:	e0ba      	b	104072 <.text+0x4072>
  103efc:	4995      	ldr	r1, [pc, #596]	(104154 <.text+0x4154>)
  103efe:	4469      	add	r1, sp
  103f00:	464a      	mov	r2, r9
  103f02:	1a8a      	sub	r2, r1, r2
  103f04:	1c17      	mov	r7, r2		(add r7, r2, #0)
  103f06:	465b      	mov	r3, fp
  103f08:	920f      	str	r2, [sp, #60]
  103f0a:	445f      	add	r7, fp
  103f0c:	2b01      	cmp	r3, #1
  103f0e:	dd0d      	ble	103f2c <.text+0x3f2c>
  103f10:	3701      	add	r7, #1
  103f12:	980e      	ldr	r0, [sp, #56]
  103f14:	2800      	cmp	r0, #0
  103f16:	d119      	bne	103f4c <.text+0x3f4c>
  103f18:	2f00      	cmp	r7, #0
  103f1a:	46b9      	mov	r9, r7
  103f1c:	da00      	bge	103f20 <.text+0x3f20>
  103f1e:	e0c5      	b	1040ac <.text+0x40ac>
  103f20:	465a      	mov	r2, fp
  103f22:	2000      	mov	r0, #0
  103f24:	9210      	str	r2, [sp, #64]
  103f26:	9011      	str	r0, [sp, #68]
  103f28:	fd65f7fe 	bl	1029f6 <_vfprintf_r+0x156>
  103f2c:	9c0a      	ldr	r4, [sp, #40]
  103f2e:	07e4      	lsl	r4, r4, #31
  103f30:	d5ef      	bpl	103f12 <.text+0x3f12>
  103f32:	e7ed      	b	103f10 <.text+0x3f10>
  103f34:	4c88      	ldr	r4, [pc, #544]	(104158 <.text+0x4158>)
  103f36:	232d      	mov	r3, #45
  103f38:	446c      	add	r4, sp
  103f3a:	7023      	strb	r3, [r4, #0]
  103f3c:	fb7bf7ff 	bl	103636 <.text+0x3636>
  103f40:	2200      	mov	r2, #0
  103f42:	46b1      	mov	r9, r6
  103f44:	1c37      	mov	r7, r6		(add r7, r6, #0)
  103f46:	9211      	str	r2, [sp, #68]
  103f48:	fd55f7fe 	bl	1029f6 <_vfprintf_r+0x156>
  103f4c:	4982      	ldr	r1, [pc, #520]	(104158 <.text+0x4158>)
  103f4e:	232d      	mov	r3, #45
  103f50:	4469      	add	r1, sp
  103f52:	700b      	strb	r3, [r1, #0]
  103f54:	2f00      	cmp	r7, #0
  103f56:	46b9      	mov	r9, r7
  103f58:	da00      	bge	103f5c <.text+0x3f5c>
  103f5a:	e0af      	b	1040bc <.text+0x40bc>
  103f5c:	465b      	mov	r3, fp
  103f5e:	2000      	mov	r0, #0
  103f60:	9310      	str	r3, [sp, #64]
  103f62:	9011      	str	r0, [sp, #68]
  103f64:	fd47f7fe 	bl	1029f6 <_vfprintf_r+0x156>
  103f68:	23ce      	mov	r3, #206
  103f6a:	00db      	lsl	r3, r3, #3
  103f6c:	446b      	add	r3, sp
  103f6e:	681a      	ldr	r2, [r3, #0]
  103f70:	1d14      	add	r4, r2, #4
  103f72:	dd02      	ble	103f7a <.text+0x3f7a>
  103f74:	4296      	cmp	r6, r2
  103f76:	db00      	blt	103f7a <.text+0x3f7a>
  103f78:	e084      	b	104084 <.text+0x4084>
  103f7a:	4650      	mov	r0, sl
  103f7c:	2867      	cmp	r0, #103
  103f7e:	d100      	bne	103f82 <.text+0x3f82>
  103f80:	e09f      	b	1040c2 <.text+0x40c2>
  103f82:	2145      	mov	r1, #69
  103f84:	468a      	mov	sl, r1
  103f86:	2345      	mov	r3, #69
  103f88:	e76a      	b	103e60 <.text+0x3e60>
  103f8a:	990a      	ldr	r1, [sp, #40]
  103f8c:	07c9      	lsl	r1, r1, #31
  103f8e:	d500      	bpl	103f92 <.text+0x3f92>
  103f90:	e731      	b	103df6 <.text+0x3df6>
  103f92:	20cd      	mov	r0, #205
  103f94:	00c0      	lsl	r0, r0, #3
  103f96:	4468      	add	r0, sp
  103f98:	6803      	ldr	r3, [r0, #0]
  103f9a:	e74e      	b	103e3a <.text+0x3e3a>
  103f9c:	496f      	ldr	r1, [pc, #444]	(10415c <.text+0x415c>)
  103f9e:	2703      	mov	r7, #3
  103fa0:	2200      	mov	r2, #0
  103fa2:	46b9      	mov	r9, r7
  103fa4:	9109      	str	r1, [sp, #36]
  103fa6:	9211      	str	r2, [sp, #68]
  103fa8:	fd25f7fe 	bl	1029f6 <_vfprintf_r+0x156>
  103fac:	9805      	ldr	r0, [sp, #20]
  103fae:	8983      	ldrh	r3, [r0, #12]
  103fb0:	2240      	mov	r2, #64
  103fb2:	4313      	orr	r3, r2
  103fb4:	8183      	strh	r3, [r0, #12]
  103fb6:	fefdf7fe 	bl	102db4 <.text+0x2db4>
  103fba:	4969      	ldr	r1, [pc, #420]	(104160 <.text+0x4160>)
  103fbc:	9805      	ldr	r0, [sp, #20]
  103fbe:	4469      	add	r1, sp
  103fc0:	fc5ef7fe 	bl	102880 <__sprint>
  103fc4:	2800      	cmp	r0, #0
  103fc6:	d001      	beq	103fcc <.text+0x3fcc>
  103fc8:	fef4f7fe 	bl	102db4 <.text+0x2db4>
  103fcc:	e6d6      	b	103d7c <.text+0x3d7c>
  103fce:	4a65      	ldr	r2, [pc, #404]	(104164 <.text+0x4164>)
  103fd0:	9806      	ldr	r0, [sp, #24]
  103fd2:	2100      	mov	r1, #0
  103fd4:	446a      	add	r2, sp
  103fd6:	2300      	mov	r3, #0
  103fd8:	9500      	str	r5, [sp, #0]
  103fda:	f905f000 	bl	1041e8 <_wcsrtombs_r>
  103fde:	1c07      	mov	r7, r0		(add r7, r0, #0)
  103fe0:	1c42      	add	r2, r0, #1
  103fe2:	d100      	bne	103fe6 <.text+0x3fe6>
  103fe4:	e088      	b	1040f8 <.text+0x40f8>
  103fe6:	4a5f      	ldr	r2, [pc, #380]	(104164 <.text+0x4164>)
  103fe8:	9909      	ldr	r1, [sp, #36]
  103fea:	446a      	add	r2, sp
  103fec:	6011      	str	r1, [r2, #0]
  103fee:	fbfff7ff 	bl	1037f0 <.text+0x37f0>
  103ff2:	1c72      	add	r2, r6, #1
  103ff4:	4691      	mov	r9, r2
  103ff6:	2702      	mov	r7, #2
  103ff8:	e6d9      	b	103dae <.text+0x3dae>
  103ffa:	46b1      	mov	r9, r6
  103ffc:	2703      	mov	r7, #3
  103ffe:	e6d6      	b	103dae <.text+0x3dae>
  104000:	2300      	mov	r3, #0
  104002:	46b1      	mov	r9, r6
  104004:	1c37      	mov	r7, r6		(add r7, r6, #0)
  104006:	9311      	str	r3, [sp, #68]
  104008:	fcf5f7fe 	bl	1029f6 <_vfprintf_r+0x156>
  10400c:	2330      	mov	r3, #48
  10400e:	4648      	mov	r0, r9
  104010:	4955      	ldr	r1, [pc, #340]	(104168 <.text+0x4168>)
  104012:	7083      	strb	r3, [r0, #2]
  104014:	1c23      	mov	r3, r4		(add r3, r4, #0)
  104016:	3330      	add	r3, #48
  104018:	4469      	add	r1, sp
  10401a:	70c3      	strb	r3, [r0, #3]
  10401c:	e770      	b	103f00 <.text+0x3f00>
  10401e:	4650      	mov	r0, sl
  104020:	2866      	cmp	r0, #102
  104022:	d146      	bne	1040b2 <.text+0x40b2>
  104024:	21ce      	mov	r1, #206
  104026:	00c9      	lsl	r1, r1, #3
  104028:	4469      	add	r1, sp
  10402a:	680f      	ldr	r7, [r1, #0]
  10402c:	2f00      	cmp	r7, #0
  10402e:	dd72      	ble	104116 <.text+0x4116>
  104030:	2e00      	cmp	r6, #0
  104032:	d103      	bne	10403c <.text+0x403c>
  104034:	9a0a      	ldr	r2, [sp, #40]
  104036:	07d2      	lsl	r2, r2, #31
  104038:	d400      	bmi	10403c <.text+0x403c>
  10403a:	e76a      	b	103f12 <.text+0x3f12>
  10403c:	19f3      	add	r3, r6, r7
  10403e:	1c5f      	add	r7, r3, #1
  104040:	e767      	b	103f12 <.text+0x3f12>
  104042:	9809      	ldr	r0, [sp, #36]
  104044:	7803      	ldrb	r3, [r0, #0]
  104046:	2b30      	cmp	r3, #48
  104048:	d03f      	beq	1040ca <.text+0x40ca>
  10404a:	20ce      	mov	r0, #206
  10404c:	00c0      	lsl	r0, r0, #3
  10404e:	4468      	add	r0, sp
  104050:	6802      	ldr	r2, [r0, #0]
  104052:	18bf      	add	r7, r7, r2
  104054:	e6d5      	b	103e02 <.text+0x3e02>
  104056:	9c15      	ldr	r4, [sp, #84]
  104058:	9814      	ldr	r0, [sp, #80]
  10405a:	2180      	mov	r1, #128
  10405c:	46a4      	mov	ip, r4
  10405e:	0609      	lsl	r1, r1, #24
  104060:	222d      	mov	r2, #45
  104062:	1844      	add	r4, r0, r1
  104064:	4665      	mov	r5, ip
  104066:	920e      	str	r2, [sp, #56]
  104068:	e6aa      	b	103dc0 <.text+0x3dc0>
  10406a:	232d      	mov	r3, #45
  10406c:	4254      	neg	r4, r2
  10406e:	704b      	strb	r3, [r1, #1]
  104070:	e705      	b	103e7e <.text+0x3e7e>
  104072:	4938      	ldr	r1, [pc, #224]	(104154 <.text+0x4154>)
  104074:	4469      	add	r1, sp
  104076:	7813      	ldrb	r3, [r2, #0]
  104078:	3201      	add	r2, #1
  10407a:	700b      	strb	r3, [r1, #0]
  10407c:	3101      	add	r1, #1
  10407e:	42ba      	cmp	r2, r7
  104080:	d3f9      	bcc	104076 <.text+0x4076>
  104082:	e73d      	b	103f00 <.text+0x3f00>
  104084:	2067      	mov	r0, #103
  104086:	4682      	mov	sl, r0
  104088:	1c17      	mov	r7, r2		(add r7, r2, #0)
  10408a:	4593      	cmp	fp, r2
  10408c:	dc08      	bgt	1040a0 <.text+0x40a0>
  10408e:	9b0a      	ldr	r3, [sp, #40]
  104090:	07db      	lsl	r3, r3, #31
  104092:	d400      	bmi	104096 <.text+0x4096>
  104094:	e73d      	b	103f12 <.text+0x3f12>
  104096:	1c57      	add	r7, r2, #1
  104098:	e73b      	b	103f12 <.text+0x3f12>
  10409a:	2000      	mov	r0, #0
  10409c:	4681      	mov	r9, r0
  10409e:	e5f6      	b	103c8e <.text+0x3c8e>
  1040a0:	2a00      	cmp	r2, #0
  1040a2:	dd3f      	ble	104124 <.text+0x4124>
  1040a4:	2001      	mov	r0, #1
  1040a6:	465c      	mov	r4, fp
  1040a8:	1907      	add	r7, r0, r4
  1040aa:	e732      	b	103f12 <.text+0x3f12>
  1040ac:	2100      	mov	r1, #0
  1040ae:	4689      	mov	r9, r1
  1040b0:	e736      	b	103f20 <.text+0x3f20>
  1040b2:	21ce      	mov	r1, #206
  1040b4:	00c9      	lsl	r1, r1, #3
  1040b6:	4469      	add	r1, sp
  1040b8:	680a      	ldr	r2, [r1, #0]
  1040ba:	e7e5      	b	104088 <.text+0x4088>
  1040bc:	2200      	mov	r2, #0
  1040be:	4691      	mov	r9, r2
  1040c0:	e74c      	b	103f5c <.text+0x3f5c>
  1040c2:	2165      	mov	r1, #101
  1040c4:	468a      	mov	sl, r1
  1040c6:	2365      	mov	r3, #101
  1040c8:	e6ca      	b	103e60 <.text+0x3e60>
  1040ca:	1c20      	mov	r0, r4		(add r0, r4, #0)
  1040cc:	1c29      	mov	r1, r5		(add r1, r5, #0)
  1040ce:	4a27      	ldr	r2, [pc, #156]	(10416c <.text+0x416c>)
  1040d0:	4b27      	ldr	r3, [pc, #156]	(104170 <.text+0x4170>)
  1040d2:	f98bf007 	bl	10b3ec <____nedf2_from_thumb>
  1040d6:	2800      	cmp	r0, #0
  1040d8:	d0b7      	beq	10404a <.text+0x404a>
  1040da:	2301      	mov	r3, #1
  1040dc:	4649      	mov	r1, r9
  1040de:	1a5a      	sub	r2, r3, r1
  1040e0:	23ce      	mov	r3, #206
  1040e2:	00db      	lsl	r3, r3, #3
  1040e4:	446b      	add	r3, sp
  1040e6:	601a      	str	r2, [r3, #0]
  1040e8:	e7af      	b	10404a <.text+0x404a>
  1040ea:	9905      	ldr	r1, [sp, #20]
  1040ec:	898b      	ldrh	r3, [r1, #12]
  1040ee:	2240      	mov	r2, #64
  1040f0:	4313      	orr	r3, r2
  1040f2:	818b      	strh	r3, [r1, #12]
  1040f4:	fe5af7fe 	bl	102dac <.text+0x2dac>
  1040f8:	9c05      	ldr	r4, [sp, #20]
  1040fa:	89a3      	ldrh	r3, [r4, #12]
  1040fc:	2240      	mov	r2, #64
  1040fe:	4313      	orr	r3, r2
  104100:	81a3      	strh	r3, [r4, #12]
  104102:	fe57f7fe 	bl	102db4 <.text+0x2db4>
  104106:	9a05      	ldr	r2, [sp, #20]
  104108:	8993      	ldrh	r3, [r2, #12]
  10410a:	9c05      	ldr	r4, [sp, #20]
  10410c:	2240      	mov	r2, #64
  10410e:	4313      	orr	r3, r2
  104110:	81a3      	strh	r3, [r4, #12]
  104112:	fe4ff7fe 	bl	102db4 <.text+0x2db4>
  104116:	2e00      	cmp	r6, #0
  104118:	d111      	bne	10413e <.text+0x413e>
  10411a:	9b0a      	ldr	r3, [sp, #40]
  10411c:	07db      	lsl	r3, r3, #31
  10411e:	d40e      	bmi	10413e <.text+0x413e>
  104120:	2701      	mov	r7, #1
  104122:	e6f6      	b	103f12 <.text+0x3f12>
  104124:	2302      	mov	r3, #2
  104126:	1a98      	sub	r0, r3, r2
  104128:	465c      	mov	r4, fp
  10412a:	1907      	add	r7, r0, r4
  10412c:	e6f1      	b	103f12 <.text+0x3f12>
  10412e:	682e      	ldr	r6, [r5, #0]
  104130:	1d2b      	add	r3, r5, #4
  104132:	2e00      	cmp	r6, #0
  104134:	db07      	blt	104146 <.text+0x4146>
  104136:	7812      	ldrb	r2, [r2, #0]
  104138:	1c1d      	mov	r5, r3		(add r5, r3, #0)
  10413a:	fc14f7fe 	bl	102966 <_vfprintf_r+0xc6>
  10413e:	2466      	mov	r4, #102
  104140:	1cb7      	add	r7, r6, #2
  104142:	46a2      	mov	sl, r4
  104144:	e6e5      	b	103f12 <.text+0x3f12>
  104146:	9816      	ldr	r0, [sp, #88]
  104148:	2601      	mov	r6, #1
  10414a:	7802      	ldrb	r2, [r0, #0]
  10414c:	1c1d      	mov	r5, r3		(add r5, r3, #0)
  10414e:	4276      	neg	r6, r6
  104150:	fc09f7fe 	bl	102966 <_vfprintf_r+0xc6>
  104154:	0663      	lsl	r3, r4, #25
  104156:	0000      	lsl	r0, r0, #0
  104158:	067b      	lsl	r3, r7, #25
  10415a:	0000      	lsl	r0, r0, #0
  10415c:	b860      	undefined instruction 0xb860
  10415e:	0010      	lsl	r0, r2, #0
  104160:	0654      	lsl	r4, r2, #25
  104162:	0000      	lsl	r0, r0, #0
  104164:	0674      	lsl	r4, r6, #25
  104166:	0000      	lsl	r0, r0, #0
  104168:	0665      	lsl	r5, r4, #25
	...

00104174 <vfprintf>:
  104174:	b530      	push	{r4, r5, lr}
  104176:	1c13      	mov	r3, r2		(add r3, r2, #0)
  104178:	4a05      	ldr	r2, [pc, #20]	(104190 <.text+0x4190>)
  10417a:	1c0d      	mov	r5, r1		(add r5, r1, #0)
  10417c:	1c04      	mov	r4, r0		(add r4, r0, #0)
  10417e:	1c21      	mov	r1, r4		(add r1, r4, #0)
  104180:	6810      	ldr	r0, [r2, #0]
  104182:	1c2a      	mov	r2, r5		(add r2, r5, #0)
  104184:	fb8cf7fe 	bl	1028a0 <_vfprintf_r>
  104188:	bc30      	pop	{r4, r5}
  10418a:	bc02      	pop	{r1}
  10418c:	4708      	bx	r1
  10418e:	0000      	lsl	r0, r0, #0
  104190:	0458      	lsl	r0, r3, #17
  104192:	0020      	lsl	r0, r4, #0

00104194 <_wcrtomb_r>:
  104194:	b530      	push	{r4, r5, lr}
  104196:	b083      	sub	sp, #12
  104198:	1c05      	mov	r5, r0		(add r5, r0, #0)
  10419a:	1c1c      	mov	r4, r3		(add r4, r3, #0)
  10419c:	2900      	cmp	r1, #0
  10419e:	d00d      	beq	1041bc <_wcrtomb_r+0x28>
  1041a0:	f8a2f000 	bl	1042e8 <_wctomb_r>
  1041a4:	1c43      	add	r3, r0, #1
  1041a6:	d105      	bne	1041b4 <_wcrtomb_r+0x20>
  1041a8:	2300      	mov	r3, #0
  1041aa:	6023      	str	r3, [r4, #0]
  1041ac:	238a      	mov	r3, #138
  1041ae:	2001      	mov	r0, #1
  1041b0:	602b      	str	r3, [r5, #0]
  1041b2:	4240      	neg	r0, r0
  1041b4:	b003      	add	sp, #12
  1041b6:	bc30      	pop	{r4, r5}
  1041b8:	bc02      	pop	{r1}
  1041ba:	4708      	bx	r1
  1041bc:	4669      	mov	r1, sp
  1041be:	3102      	add	r1, #2
  1041c0:	2200      	mov	r2, #0
  1041c2:	f891f000 	bl	1042e8 <_wctomb_r>
  1041c6:	e7ed      	b	1041a4 <_wcrtomb_r+0x10>

001041c8 <wcrtomb>:
  1041c8:	b530      	push	{r4, r5, lr}
  1041ca:	1c13      	mov	r3, r2		(add r3, r2, #0)
  1041cc:	4a05      	ldr	r2, [pc, #20]	(1041e4 <.text+0x41e4>)
  1041ce:	1c0d      	mov	r5, r1		(add r5, r1, #0)
  1041d0:	1c04      	mov	r4, r0		(add r4, r0, #0)
  1041d2:	1c21      	mov	r1, r4		(add r1, r4, #0)
  1041d4:	6810      	ldr	r0, [r2, #0]
  1041d6:	1c2a      	mov	r2, r5		(add r2, r5, #0)
  1041d8:	ffdcf7ff 	bl	104194 <_wcrtomb_r>
  1041dc:	bc30      	pop	{r4, r5}
  1041de:	bc02      	pop	{r1}
  1041e0:	4708      	bx	r1
  1041e2:	0000      	lsl	r0, r0, #0
  1041e4:	0458      	lsl	r0, r3, #17
  1041e6:	0020      	lsl	r0, r4, #0

001041e8 <_wcsrtombs_r>:
  1041e8:	b5f0      	push	{r4, r5, r6, r7, lr}
  1041ea:	465f      	mov	r7, fp
  1041ec:	4656      	mov	r6, sl
  1041ee:	464d      	mov	r5, r9
  1041f0:	4644      	mov	r4, r8
  1041f2:	b4f0      	push	{r4, r5, r6, r7}
  1041f4:	b086      	sub	sp, #24
  1041f6:	9001      	str	r0, [sp, #4]
  1041f8:	4689      	mov	r9, r1
  1041fa:	4692      	mov	sl, r2
  1041fc:	1c1d      	mov	r5, r3		(add r5, r3, #0)
  1041fe:	9e0f      	ldr	r6, [sp, #60]
  104200:	2900      	cmp	r1, #0
  104202:	d042      	beq	10428a <_wcsrtombs_r+0xa2>
  104204:	4651      	mov	r1, sl
  104206:	6809      	ldr	r1, [r1, #0]
  104208:	9100      	str	r1, [sp, #0]
  10420a:	2d00      	cmp	r5, #0
  10420c:	d10b      	bne	104226 <_wcsrtombs_r+0x3e>
  10420e:	2200      	mov	r2, #0
  104210:	4690      	mov	r8, r2
  104212:	4640      	mov	r0, r8
  104214:	b006      	add	sp, #24
  104216:	bc3c      	pop	{r2, r3, r4, r5}
  104218:	4690      	mov	r8, r2
  10421a:	4699      	mov	r9, r3
  10421c:	46a2      	mov	sl, r4
  10421e:	46ab      	mov	fp, r5
  104220:	bcf0      	pop	{r4, r5, r6, r7}
  104222:	bc02      	pop	{r1}
  104224:	4708      	bx	r1
  104226:	2300      	mov	r3, #0
  104228:	464c      	mov	r4, r9
  10422a:	4698      	mov	r8, r3
  10422c:	6837      	ldr	r7, [r6, #0]
  10422e:	9702      	str	r7, [sp, #8]
  104230:	6871      	ldr	r1, [r6, #4]
  104232:	9b00      	ldr	r3, [sp, #0]
  104234:	468b      	mov	fp, r1
  104236:	210e      	mov	r1, #14
  104238:	681a      	ldr	r2, [r3, #0]
  10423a:	9801      	ldr	r0, [sp, #4]
  10423c:	4469      	add	r1, sp
  10423e:	1c33      	mov	r3, r6		(add r3, r6, #0)
  104240:	ffa8f7ff 	bl	104194 <_wcrtomb_r>
  104244:	1c47      	add	r7, r0, #1
  104246:	d028      	beq	10429a <_wcsrtombs_r+0xb2>
  104248:	1a2b      	sub	r3, r5, r0
  10424a:	4543      	cmp	r3, r8
  10424c:	d320      	bcc	104290 <_wcsrtombs_r+0xa8>
  10424e:	4285      	cmp	r5, r0
  104250:	d91e      	bls	104290 <_wcsrtombs_r+0xa8>
  104252:	4649      	mov	r1, r9
  104254:	4480      	add	r8, r0
  104256:	2900      	cmp	r1, #0
  104258:	d00f      	beq	10427a <_wcsrtombs_r+0x92>
  10425a:	2800      	cmp	r0, #0
  10425c:	dd09      	ble	104272 <_wcsrtombs_r+0x8a>
  10425e:	2200      	mov	r2, #0
  104260:	270e      	mov	r7, #14
  104262:	18bf      	add	r7, r7, r2
  104264:	4669      	mov	r1, sp
  104266:	5c7b      	ldrb	r3, [r7, r1]
  104268:	3201      	add	r2, #1
  10426a:	7023      	strb	r3, [r4, #0]
  10426c:	3401      	add	r4, #1
  10426e:	4290      	cmp	r0, r2
  104270:	d1f6      	bne	104260 <_wcsrtombs_r+0x78>
  104272:	4652      	mov	r2, sl
  104274:	6813      	ldr	r3, [r2, #0]
  104276:	3304      	add	r3, #4
  104278:	6013      	str	r3, [r2, #0]
  10427a:	9f00      	ldr	r7, [sp, #0]
  10427c:	cf08      	ldmia	r7!,{r3}
  10427e:	9700      	str	r7, [sp, #0]
  104280:	2b00      	cmp	r3, #0
  104282:	d013      	beq	1042ac <_wcsrtombs_r+0xc4>
  104284:	4545      	cmp	r5, r8
  104286:	d8d1      	bhi	10422c <_wcsrtombs_r+0x44>
  104288:	e7c3      	b	104212 <_wcsrtombs_r+0x2a>
  10428a:	2501      	mov	r5, #1
  10428c:	426d      	neg	r5, r5
  10428e:	e7b9      	b	104204 <_wcsrtombs_r+0x1c>
  104290:	9f02      	ldr	r7, [sp, #8]
  104292:	4659      	mov	r1, fp
  104294:	6037      	str	r7, [r6, #0]
  104296:	6071      	str	r1, [r6, #4]
  104298:	e7bb      	b	104212 <_wcsrtombs_r+0x2a>
  10429a:	9f01      	ldr	r7, [sp, #4]
  10429c:	2101      	mov	r1, #1
  10429e:	238a      	mov	r3, #138
  1042a0:	424a      	neg	r2, r1
  1042a2:	603b      	str	r3, [r7, #0]
  1042a4:	4690      	mov	r8, r2
  1042a6:	2300      	mov	r3, #0
  1042a8:	6033      	str	r3, [r6, #0]
  1042aa:	e7b2      	b	104212 <_wcsrtombs_r+0x2a>
  1042ac:	4649      	mov	r1, r9
  1042ae:	2900      	cmp	r1, #0
  1042b0:	d001      	beq	1042b6 <_wcsrtombs_r+0xce>
  1042b2:	4652      	mov	r2, sl
  1042b4:	6013      	str	r3, [r2, #0]
  1042b6:	6033      	str	r3, [r6, #0]
  1042b8:	2301      	mov	r3, #1
  1042ba:	425b      	neg	r3, r3
  1042bc:	4498      	add	r8, r3
  1042be:	e7a8      	b	104212 <_wcsrtombs_r+0x2a>

001042c0 <wcsrtombs>:
  1042c0:	b570      	push	{r4, r5, r6, lr}
  1042c2:	1c16      	mov	r6, r2		(add r6, r2, #0)
  1042c4:	4a07      	ldr	r2, [pc, #28]	(1042e4 <.text+0x42e4>)
  1042c6:	1c0d      	mov	r5, r1		(add r5, r1, #0)
  1042c8:	b081      	sub	sp, #4
  1042ca:	1c04      	mov	r4, r0		(add r4, r0, #0)
  1042cc:	1c21      	mov	r1, r4		(add r1, r4, #0)
  1042ce:	6810      	ldr	r0, [r2, #0]
  1042d0:	9300      	str	r3, [sp, #0]
  1042d2:	1c2a      	mov	r2, r5		(add r2, r5, #0)
  1042d4:	1c33      	mov	r3, r6		(add r3, r6, #0)
  1042d6:	ff87f7ff 	bl	1041e8 <_wcsrtombs_r>
  1042da:	b001      	add	sp, #4
  1042dc:	bc70      	pop	{r4, r5, r6}
  1042de:	bc02      	pop	{r1}
  1042e0:	4708      	bx	r1
  1042e2:	0000      	lsl	r0, r0, #0
  1042e4:	0458      	lsl	r0, r3, #17
  1042e6:	0020      	lsl	r0, r4, #0

001042e8 <_wctomb_r>:
  1042e8:	b5f0      	push	{r4, r5, r6, r7, lr}
  1042ea:	4c9a      	ldr	r4, [pc, #616]	(104554 <.text+0x4554>)
  1042ec:	1c20      	mov	r0, r4		(add r0, r4, #0)
  1042ee:	1c0e      	mov	r6, r1		(add r6, r1, #0)
  1042f0:	1c15      	mov	r5, r2		(add r5, r2, #0)
  1042f2:	1c1f      	mov	r7, r3		(add r7, r3, #0)
  1042f4:	fa5ef7fe 	bl	1027b4 <strlen>
  1042f8:	2801      	cmp	r0, #1
  1042fa:	d91c      	bls	104336 <_wctomb_r+0x4e>
  1042fc:	4996      	ldr	r1, [pc, #600]	(104558 <.text+0x4558>)
  1042fe:	1c20      	mov	r0, r4		(add r0, r4, #0)
  104300:	f814f003 	bl	10732c <strcmp>
  104304:	2800      	cmp	r0, #0
  104306:	d11d      	bne	104344 <_wctomb_r+0x5c>
  104308:	2e00      	cmp	r6, #0
  10430a:	d03a      	beq	104382 <_wctomb_r+0x9a>
  10430c:	2d7f      	cmp	r5, #127
  10430e:	dd14      	ble	10433a <_wctomb_r+0x52>
  104310:	1c2a      	mov	r2, r5		(add r2, r5, #0)
  104312:	4b92      	ldr	r3, [pc, #584]	(10455c <.text+0x455c>)
  104314:	3a80      	sub	r2, #128
  104316:	429a      	cmp	r2, r3
  104318:	d869      	bhi	1043ee <_wctomb_r+0x106>
  10431a:	056b      	lsl	r3, r5, #21
  10431c:	2240      	mov	r2, #64
  10431e:	4252      	neg	r2, r2
  104320:	0edb      	lsr	r3, r3, #27
  104322:	4313      	orr	r3, r2
  104324:	7033      	strb	r3, [r6, #0]
  104326:	2280      	mov	r2, #128
  104328:	233f      	mov	r3, #63
  10432a:	402b      	and	r3, r5
  10432c:	4252      	neg	r2, r2
  10432e:	4313      	orr	r3, r2
  104330:	2002      	mov	r0, #2
  104332:	7073      	strb	r3, [r6, #1]
  104334:	e003      	b	10433e <_wctomb_r+0x56>
  104336:	2e00      	cmp	r6, #0
  104338:	d023      	beq	104382 <_wctomb_r+0x9a>
  10433a:	7035      	strb	r5, [r6, #0]
  10433c:	2001      	mov	r0, #1
  10433e:	bcf0      	pop	{r4, r5, r6, r7}
  104340:	bc02      	pop	{r1}
  104342:	4708      	bx	r1
  104344:	4986      	ldr	r1, [pc, #536]	(104560 <.text+0x4560>)
  104346:	1c20      	mov	r0, r4		(add r0, r4, #0)
  104348:	fff0f002 	bl	10732c <strcmp>
  10434c:	2800      	cmp	r0, #0
  10434e:	d11a      	bne	104386 <_wctomb_r+0x9e>
  104350:	062b      	lsl	r3, r5, #24
  104352:	0e19      	lsr	r1, r3, #24
  104354:	042b      	lsl	r3, r5, #16
  104356:	0e1a      	lsr	r2, r3, #24
  104358:	2e00      	cmp	r6, #0
  10435a:	d012      	beq	104382 <_wctomb_r+0x9a>
  10435c:	2a00      	cmp	r2, #0
  10435e:	d0ec      	beq	10433a <_wctomb_r+0x52>
  104360:	1c13      	mov	r3, r2		(add r3, r2, #0)
  104362:	337f      	add	r3, #127
  104364:	061b      	lsl	r3, r3, #24
  104366:	0e1b      	lsr	r3, r3, #24
  104368:	2b1e      	cmp	r3, #30
  10436a:	d86b      	bhi	104444 <_wctomb_r+0x15c>
  10436c:	1c0b      	mov	r3, r1		(add r3, r1, #0)
  10436e:	3b40      	sub	r3, #64
  104370:	061b      	lsl	r3, r3, #24
  104372:	0e1b      	lsr	r3, r3, #24
  104374:	2b3e      	cmp	r3, #62
  104376:	d900      	bls	10437a <_wctomb_r+0x92>
  104378:	e0b7      	b	1044ea <_wctomb_r+0x202>
  10437a:	2002      	mov	r0, #2
  10437c:	7032      	strb	r2, [r6, #0]
  10437e:	7071      	strb	r1, [r6, #1]
  104380:	e7dd      	b	10433e <_wctomb_r+0x56>
  104382:	2000      	mov	r0, #0
  104384:	e7db      	b	10433e <_wctomb_r+0x56>
  104386:	4977      	ldr	r1, [pc, #476]	(104564 <.text+0x4564>)
  104388:	1c20      	mov	r0, r4		(add r0, r4, #0)
  10438a:	ffcff002 	bl	10732c <strcmp>
  10438e:	2800      	cmp	r0, #0
  104390:	d110      	bne	1043b4 <_wctomb_r+0xcc>
  104392:	062b      	lsl	r3, r5, #24
  104394:	0e19      	lsr	r1, r3, #24
  104396:	042b      	lsl	r3, r5, #16
  104398:	0e1a      	lsr	r2, r3, #24
  10439a:	2e00      	cmp	r6, #0
  10439c:	d0f1      	beq	104382 <_wctomb_r+0x9a>
  10439e:	2a00      	cmp	r2, #0
  1043a0:	d0cb      	beq	10433a <_wctomb_r+0x52>
  1043a2:	1c13      	mov	r3, r2		(add r3, r2, #0)
  1043a4:	335f      	add	r3, #95
  1043a6:	061b      	lsl	r3, r3, #24
  1043a8:	0e1b      	lsr	r3, r3, #24
  1043aa:	2b5d      	cmp	r3, #93
  1043ac:	d916      	bls	1043dc <_wctomb_r+0xf4>
  1043ae:	2001      	mov	r0, #1
  1043b0:	4240      	neg	r0, r0
  1043b2:	e7c4      	b	10433e <_wctomb_r+0x56>
  1043b4:	496c      	ldr	r1, [pc, #432]	(104568 <.text+0x4568>)
  1043b6:	1c20      	mov	r0, r4		(add r0, r4, #0)
  1043b8:	ffb8f002 	bl	10732c <strcmp>
  1043bc:	2800      	cmp	r0, #0
  1043be:	d1ba      	bne	104336 <_wctomb_r+0x4e>
  1043c0:	062b      	lsl	r3, r5, #24
  1043c2:	0e19      	lsr	r1, r3, #24
  1043c4:	042b      	lsl	r3, r5, #16
  1043c6:	0e1a      	lsr	r2, r3, #24
  1043c8:	2e00      	cmp	r6, #0
  1043ca:	d0b7      	beq	10433c <_wctomb_r+0x54>
  1043cc:	2a00      	cmp	r2, #0
  1043ce:	d142      	bne	104456 <_wctomb_r+0x16e>
  1043d0:	683b      	ldr	r3, [r7, #0]
  1043d2:	2b00      	cmp	r3, #0
  1043d4:	d12b      	bne	10442e <_wctomb_r+0x146>
  1043d6:	2001      	mov	r0, #1
  1043d8:	7031      	strb	r1, [r6, #0]
  1043da:	e7b0      	b	10433e <_wctomb_r+0x56>
  1043dc:	1c0b      	mov	r3, r1		(add r3, r1, #0)
  1043de:	335f      	add	r3, #95
  1043e0:	061b      	lsl	r3, r3, #24
  1043e2:	0e1b      	lsr	r3, r3, #24
  1043e4:	2b5d      	cmp	r3, #93
  1043e6:	d9c8      	bls	10437a <_wctomb_r+0x92>
  1043e8:	2001      	mov	r0, #1
  1043ea:	4240      	neg	r0, r0
  1043ec:	e7a7      	b	10433e <_wctomb_r+0x56>
  1043ee:	4b5f      	ldr	r3, [pc, #380]	(10456c <.text+0x456c>)
  1043f0:	18ea      	add	r2, r5, r3
  1043f2:	4b5f      	ldr	r3, [pc, #380]	(104570 <.text+0x4570>)
  1043f4:	429a      	cmp	r2, r3
  1043f6:	d960      	bls	1044ba <_wctomb_r+0x1d2>
  1043f8:	4b5e      	ldr	r3, [pc, #376]	(104574 <.text+0x4574>)
  1043fa:	18ea      	add	r2, r5, r3
  1043fc:	4b5e      	ldr	r3, [pc, #376]	(104578 <.text+0x4578>)
  1043fe:	429a      	cmp	r2, r3
  104400:	d83c      	bhi	10447c <_wctomb_r+0x194>
  104402:	02eb      	lsl	r3, r5, #11
  104404:	2210      	mov	r2, #16
  104406:	4252      	neg	r2, r2
  104408:	0f5b      	lsr	r3, r3, #29
  10440a:	4313      	orr	r3, r2
  10440c:	7033      	strb	r3, [r6, #0]
  10440e:	2280      	mov	r2, #128
  104410:	03ab      	lsl	r3, r5, #14
  104412:	4252      	neg	r2, r2
  104414:	0e9b      	lsr	r3, r3, #26
  104416:	4313      	orr	r3, r2
  104418:	7073      	strb	r3, [r6, #1]
  10441a:	052b      	lsl	r3, r5, #20
  10441c:	0e9b      	lsr	r3, r3, #26
  10441e:	4313      	orr	r3, r2
  104420:	70b3      	strb	r3, [r6, #2]
  104422:	233f      	mov	r3, #63
  104424:	402b      	and	r3, r5
  104426:	4313      	orr	r3, r2
  104428:	2004      	mov	r0, #4
  10442a:	70f3      	strb	r3, [r6, #3]
  10442c:	e787      	b	10433e <_wctomb_r+0x56>
  10442e:	231b      	mov	r3, #27
  104430:	603a      	str	r2, [r7, #0]
  104432:	7033      	strb	r3, [r6, #0]
  104434:	2328      	mov	r3, #40
  104436:	7073      	strb	r3, [r6, #1]
  104438:	2342      	mov	r3, #66
  10443a:	70b3      	strb	r3, [r6, #2]
  10443c:	2004      	mov	r0, #4
  10443e:	3603      	add	r6, #3
  104440:	7031      	strb	r1, [r6, #0]
  104442:	e77c      	b	10433e <_wctomb_r+0x56>
  104444:	1c13      	mov	r3, r2		(add r3, r2, #0)
  104446:	3320      	add	r3, #32
  104448:	061b      	lsl	r3, r3, #24
  10444a:	0e1b      	lsr	r3, r3, #24
  10444c:	2b0f      	cmp	r3, #15
  10444e:	d98d      	bls	10436c <_wctomb_r+0x84>
  104450:	2001      	mov	r0, #1
  104452:	4240      	neg	r0, r0
  104454:	e773      	b	10433e <_wctomb_r+0x56>
  104456:	1c13      	mov	r3, r2		(add r3, r2, #0)
  104458:	3b21      	sub	r3, #33
  10445a:	061b      	lsl	r3, r3, #24
  10445c:	0e1b      	lsr	r3, r3, #24
  10445e:	2b5d      	cmp	r3, #93
  104460:	d8a5      	bhi	1043ae <_wctomb_r+0xc6>
  104462:	1c0b      	mov	r3, r1		(add r3, r1, #0)
  104464:	3b21      	sub	r3, #33
  104466:	061b      	lsl	r3, r3, #24
  104468:	0e1b      	lsr	r3, r3, #24
  10446a:	2b5d      	cmp	r3, #93
  10446c:	d89f      	bhi	1043ae <_wctomb_r+0xc6>
  10446e:	683b      	ldr	r3, [r7, #0]
  104470:	2b00      	cmp	r3, #0
  104472:	d042      	beq	1044fa <_wctomb_r+0x212>
  104474:	2002      	mov	r0, #2
  104476:	7032      	strb	r2, [r6, #0]
  104478:	7071      	strb	r1, [r6, #1]
  10447a:	e760      	b	10433e <_wctomb_r+0x56>
  10447c:	4b3f      	ldr	r3, [pc, #252]	(10457c <.text+0x457c>)
  10447e:	18ea      	add	r2, r5, r3
  104480:	4b3f      	ldr	r3, [pc, #252]	(104580 <.text+0x4580>)
  104482:	429a      	cmp	r2, r3
  104484:	d844      	bhi	104510 <_wctomb_r+0x228>
  104486:	01ab      	lsl	r3, r5, #6
  104488:	2208      	mov	r2, #8
  10448a:	4252      	neg	r2, r2
  10448c:	0f9b      	lsr	r3, r3, #30
  10448e:	4313      	orr	r3, r2
  104490:	7033      	strb	r3, [r6, #0]
  104492:	2280      	mov	r2, #128
  104494:	022b      	lsl	r3, r5, #8
  104496:	4252      	neg	r2, r2
  104498:	0e9b      	lsr	r3, r3, #26
  10449a:	4313      	orr	r3, r2
  10449c:	7073      	strb	r3, [r6, #1]
  10449e:	03ab      	lsl	r3, r5, #14
  1044a0:	0e9b      	lsr	r3, r3, #26
  1044a2:	4313      	orr	r3, r2
  1044a4:	70b3      	strb	r3, [r6, #2]
  1044a6:	052b      	lsl	r3, r5, #20
  1044a8:	0e9b      	lsr	r3, r3, #26
  1044aa:	4313      	orr	r3, r2
  1044ac:	70f3      	strb	r3, [r6, #3]
  1044ae:	233f      	mov	r3, #63
  1044b0:	402b      	and	r3, r5
  1044b2:	4313      	orr	r3, r2
  1044b4:	2005      	mov	r0, #5
  1044b6:	7133      	strb	r3, [r6, #4]
  1044b8:	e741      	b	10433e <_wctomb_r+0x56>
  1044ba:	4b32      	ldr	r3, [pc, #200]	(104584 <.text+0x4584>)
  1044bc:	18ea      	add	r2, r5, r3
  1044be:	4b32      	ldr	r3, [pc, #200]	(104588 <.text+0x4588>)
  1044c0:	429a      	cmp	r2, r3
  1044c2:	d800      	bhi	1044c6 <_wctomb_r+0x1de>
  1044c4:	e773      	b	1043ae <_wctomb_r+0xc6>
  1044c6:	042b      	lsl	r3, r5, #16
  1044c8:	2220      	mov	r2, #32
  1044ca:	4252      	neg	r2, r2
  1044cc:	0f1b      	lsr	r3, r3, #28
  1044ce:	4313      	orr	r3, r2
  1044d0:	7033      	strb	r3, [r6, #0]
  1044d2:	2280      	mov	r2, #128
  1044d4:	052b      	lsl	r3, r5, #20
  1044d6:	4252      	neg	r2, r2
  1044d8:	0e9b      	lsr	r3, r3, #26
  1044da:	4313      	orr	r3, r2
  1044dc:	7073      	strb	r3, [r6, #1]
  1044de:	233f      	mov	r3, #63
  1044e0:	402b      	and	r3, r5
  1044e2:	4313      	orr	r3, r2
  1044e4:	2003      	mov	r0, #3
  1044e6:	70b3      	strb	r3, [r6, #2]
  1044e8:	e729      	b	10433e <_wctomb_r+0x56>
  1044ea:	2380      	mov	r3, #128
  1044ec:	404b      	eor	r3, r1
  1044ee:	2b7c      	cmp	r3, #124
  1044f0:	d800      	bhi	1044f4 <_wctomb_r+0x20c>
  1044f2:	e742      	b	10437a <_wctomb_r+0x92>
  1044f4:	2001      	mov	r0, #1
  1044f6:	4240      	neg	r0, r0
  1044f8:	e721      	b	10433e <_wctomb_r+0x56>
  1044fa:	2301      	mov	r3, #1
  1044fc:	603b      	str	r3, [r7, #0]
  1044fe:	231b      	mov	r3, #27
  104500:	7033      	strb	r3, [r6, #0]
  104502:	2324      	mov	r3, #36
  104504:	7073      	strb	r3, [r6, #1]
  104506:	2342      	mov	r3, #66
  104508:	70b3      	strb	r3, [r6, #2]
  10450a:	2005      	mov	r0, #5
  10450c:	3603      	add	r6, #3
  10450e:	e7b2      	b	104476 <_wctomb_r+0x18e>
  104510:	4b1e      	ldr	r3, [pc, #120]	(10458c <.text+0x458c>)
  104512:	429d      	cmp	r5, r3
  104514:	dc00      	bgt	104518 <_wctomb_r+0x230>
  104516:	e74a      	b	1043ae <_wctomb_r+0xc6>
  104518:	006b      	lsl	r3, r5, #1
  10451a:	2204      	mov	r2, #4
  10451c:	4252      	neg	r2, r2
  10451e:	0fdb      	lsr	r3, r3, #31
  104520:	4313      	orr	r3, r2
  104522:	7033      	strb	r3, [r6, #0]
  104524:	2280      	mov	r2, #128
  104526:	00ab      	lsl	r3, r5, #2
  104528:	4252      	neg	r2, r2
  10452a:	0e9b      	lsr	r3, r3, #26
  10452c:	4313      	orr	r3, r2
  10452e:	7073      	strb	r3, [r6, #1]
  104530:	022b      	lsl	r3, r5, #8
  104532:	0e9b      	lsr	r3, r3, #26
  104534:	4313      	orr	r3, r2
  104536:	70b3      	strb	r3, [r6, #2]
  104538:	03ab      	lsl	r3, r5, #14
  10453a:	0e9b      	lsr	r3, r3, #26
  10453c:	4313      	orr	r3, r2
  10453e:	70f3      	strb	r3, [r6, #3]
  104540:	052b      	lsl	r3, r5, #20
  104542:	0e9b      	lsr	r3, r3, #26
  104544:	4313      	orr	r3, r2
  104546:	7133      	strb	r3, [r6, #4]
  104548:	233f      	mov	r3, #63
  10454a:	402b      	and	r3, r5
  10454c:	4313      	orr	r3, r2
  10454e:	2006      	mov	r0, #6
  104550:	7173      	strb	r3, [r6, #5]
  104552:	e6f4      	b	10433e <_wctomb_r+0x56>
  104554:	045c      	lsl	r4, r3, #17
  104556:	0020      	lsl	r0, r4, #0
  104558:	b8a4      	undefined instruction 0xb8a4
  10455a:	0010      	lsl	r0, r2, #0
  10455c:	077f      	lsl	r7, r7, #29
  10455e:	0000      	lsl	r0, r0, #0
  104560:	b8ac      	undefined instruction 0xb8ac
  104562:	0010      	lsl	r0, r2, #0
  104564:	b8b4      	undefined instruction 0xb8b4
  104566:	0010      	lsl	r0, r2, #0
  104568:	b8bc      	undefined instruction 0xb8bc
  10456a:	0010      	lsl	r0, r2, #0
  10456c:	f800      	second half of BL instruction 0xf800
  10456e:	ffff      	second half of BL instruction 0xffff
  104570:	0000f7ff 	blx	103574 <.text+0x3574>
  104574:	0000      	lsl	r0, r0, #0
  104576:	ffff      	second half of BL instruction 0xffff
  104578:	ffff      	second half of BL instruction 0xffff
  10457a:	001e      	lsl	r6, r3, #0
  10457c:	0000      	lsl	r0, r0, #0
  10457e:	ffe0      	second half of BL instruction 0xffe0
  104580:	ffff      	second half of BL instruction 0xffff
  104582:	03df      	lsl	r7, r3, #15
  104584:	2800      	cmp	r0, #0
  104586:	ffff      	second half of BL instruction 0xffff
  104588:	07ff      	lsl	r7, r7, #31
  10458a:	0000      	lsl	r0, r0, #0
  10458c:	ffff      	second half of BL instruction 0xffff
  10458e:	03ff      	lsl	r7, r7, #15

00104590 <__swsetup>:
  104590:	b530      	push	{r4, r5, lr}
  104592:	4b28      	ldr	r3, [pc, #160]	(104634 <.text+0x4634>)
  104594:	1c04      	mov	r4, r0		(add r4, r0, #0)
  104596:	6818      	ldr	r0, [r3, #0]
  104598:	2800      	cmp	r0, #0
  10459a:	d002      	beq	1045a2 <__swsetup+0x12>
  10459c:	6b83      	ldr	r3, [r0, #56]
  10459e:	2b00      	cmp	r3, #0
  1045a0:	d01f      	beq	1045e2 <__swsetup+0x52>
  1045a2:	89a2      	ldrh	r2, [r4, #12]
  1045a4:	0413      	lsl	r3, r2, #16
  1045a6:	0c19      	lsr	r1, r3, #16
  1045a8:	1c0d      	mov	r5, r1		(add r5, r1, #0)
  1045aa:	2308      	mov	r3, #8
  1045ac:	401d      	and	r5, r3
  1045ae:	d01f      	beq	1045f0 <__swsetup+0x60>
  1045b0:	6921      	ldr	r1, [r4, #16]
  1045b2:	2900      	cmp	r1, #0
  1045b4:	d018      	beq	1045e8 <__swsetup+0x58>
  1045b6:	89a3      	ldrh	r3, [r4, #12]
  1045b8:	07da      	lsl	r2, r3, #31
  1045ba:	d405      	bmi	1045c8 <__swsetup+0x38>
  1045bc:	079a      	lsl	r2, r3, #30
  1045be:	d50c      	bpl	1045da <__swsetup+0x4a>
  1045c0:	2300      	mov	r3, #0
  1045c2:	2000      	mov	r0, #0
  1045c4:	60a3      	str	r3, [r4, #8]
  1045c6:	e005      	b	1045d4 <__swsetup+0x44>
  1045c8:	2300      	mov	r3, #0
  1045ca:	60a3      	str	r3, [r4, #8]
  1045cc:	6963      	ldr	r3, [r4, #20]
  1045ce:	425b      	neg	r3, r3
  1045d0:	61a3      	str	r3, [r4, #24]
  1045d2:	2000      	mov	r0, #0
  1045d4:	bc30      	pop	{r4, r5}
  1045d6:	bc02      	pop	{r1}
  1045d8:	4708      	bx	r1
  1045da:	6963      	ldr	r3, [r4, #20]
  1045dc:	2000      	mov	r0, #0
  1045de:	60a3      	str	r3, [r4, #8]
  1045e0:	e7f8      	b	1045d4 <__swsetup+0x44>
  1045e2:	f845f001 	bl	105670 <__sinit>
  1045e6:	e7dc      	b	1045a2 <__swsetup+0x12>
  1045e8:	1c20      	mov	r0, r4		(add r0, r4, #0)
  1045ea:	fc05f001 	bl	105df8 <__smakebuf>
  1045ee:	e7e2      	b	1045b6 <__swsetup+0x26>
  1045f0:	06cb      	lsl	r3, r1, #27
  1045f2:	d51b      	bpl	10462c <__swsetup+0x9c>
  1045f4:	074b      	lsl	r3, r1, #29
  1045f6:	d517      	bpl	104628 <__swsetup+0x98>
  1045f8:	6b21      	ldr	r1, [r4, #48]
  1045fa:	2900      	cmp	r1, #0
  1045fc:	d009      	beq	104612 <__swsetup+0x82>
  1045fe:	1c23      	mov	r3, r4		(add r3, r4, #0)
  104600:	3340      	add	r3, #64
  104602:	4299      	cmp	r1, r3
  104604:	d004      	beq	104610 <__swsetup+0x80>
  104606:	4b0b      	ldr	r3, [pc, #44]	(104634 <.text+0x4634>)
  104608:	6818      	ldr	r0, [r3, #0]
  10460a:	f911f001 	bl	105830 <_free_r>
  10460e:	89a2      	ldrh	r2, [r4, #12]
  104610:	6325      	str	r5, [r4, #48]
  104612:	2324      	mov	r3, #36
  104614:	6921      	ldr	r1, [r4, #16]
  104616:	439a      	bic	r2, r3
  104618:	2300      	mov	r3, #0
  10461a:	81a2      	strh	r2, [r4, #12]
  10461c:	6063      	str	r3, [r4, #4]
  10461e:	6021      	str	r1, [r4, #0]
  104620:	2308      	mov	r3, #8
  104622:	4313      	orr	r3, r2
  104624:	81a3      	strh	r3, [r4, #12]
  104626:	e7c4      	b	1045b2 <__swsetup+0x22>
  104628:	6921      	ldr	r1, [r4, #16]
  10462a:	e7f9      	b	104620 <__swsetup+0x90>
  10462c:	2001      	mov	r0, #1
  10462e:	4240      	neg	r0, r0
  104630:	e7d0      	b	1045d4 <__swsetup+0x44>
  104632:	0000      	lsl	r0, r0, #0
  104634:	0458      	lsl	r0, r3, #17
  104636:	0020      	lsl	r0, r4, #0

00104638 <quorem>:
  104638:	b5f0      	push	{r4, r5, r6, r7, lr}
  10463a:	465f      	mov	r7, fp
  10463c:	4656      	mov	r6, sl
  10463e:	464d      	mov	r5, r9
  104640:	4644      	mov	r4, r8
  104642:	b4f0      	push	{r4, r5, r6, r7}
  104644:	690a      	ldr	r2, [r1, #16]
  104646:	6903      	ldr	r3, [r0, #16]
  104648:	b085      	sub	sp, #20
  10464a:	9001      	str	r0, [sp, #4]
  10464c:	9100      	str	r1, [sp, #0]
  10464e:	429a      	cmp	r2, r3
  104650:	dd00      	ble	104654 <quorem+0x1c>
  104652:	e095      	b	104780 <quorem+0x148>
  104654:	3a01      	sub	r2, #1
  104656:	0093      	lsl	r3, r2, #2
  104658:	9202      	str	r2, [sp, #8]
  10465a:	9a01      	ldr	r2, [sp, #4]
  10465c:	9f00      	ldr	r7, [sp, #0]
  10465e:	3214      	add	r2, #20
  104660:	4693      	mov	fp, r2
  104662:	3714      	add	r7, #20
  104664:	18f9      	add	r1, r7, r3
  104666:	445b      	add	r3, fp
  104668:	9303      	str	r3, [sp, #12]
  10466a:	4688      	mov	r8, r1
  10466c:	681b      	ldr	r3, [r3, #0]
  10466e:	6809      	ldr	r1, [r1, #0]
  104670:	1c18      	mov	r0, r3		(add r0, r3, #0)
  104672:	3101      	add	r1, #1
  104674:	9304      	str	r3, [sp, #16]
  104676:	fa21f003 	bl	107abc <__udivsi3>
  10467a:	4682      	mov	sl, r0
  10467c:	2800      	cmp	r0, #0
  10467e:	d145      	bne	10470c <quorem+0xd4>
  104680:	9801      	ldr	r0, [sp, #4]
  104682:	9900      	ldr	r1, [sp, #0]
  104684:	f9ecf002 	bl	106a60 <__mcmp>
  104688:	2800      	cmp	r0, #0
  10468a:	db35      	blt	1046f8 <quorem+0xc0>
  10468c:	2301      	mov	r3, #1
  10468e:	2600      	mov	r6, #0
  104690:	4d3c      	ldr	r5, [pc, #240]	(104784 <.text+0x4784>)
  104692:	449a      	add	sl, r3
  104694:	465c      	mov	r4, fp
  104696:	46b4      	mov	ip, r6
  104698:	cf04      	ldmia	r7!,{r2}
  10469a:	1c11      	mov	r1, r2		(add r1, r2, #0)
  10469c:	4029      	and	r1, r5
  10469e:	4461      	add	r1, ip
  1046a0:	0c0b      	lsr	r3, r1, #16
  1046a2:	0c12      	lsr	r2, r2, #16
  1046a4:	18d2      	add	r2, r2, r3
  1046a6:	0c13      	lsr	r3, r2, #16
  1046a8:	469c      	mov	ip, r3
  1046aa:	6823      	ldr	r3, [r4, #0]
  1046ac:	1c18      	mov	r0, r3		(add r0, r3, #0)
  1046ae:	4028      	and	r0, r5
  1046b0:	4029      	and	r1, r5
  1046b2:	1a40      	sub	r0, r0, r1
  1046b4:	1980      	add	r0, r0, r6
  1046b6:	402a      	and	r2, r5
  1046b8:	0c1b      	lsr	r3, r3, #16
  1046ba:	1a9b      	sub	r3, r3, r2
  1046bc:	1402      	asr	r2, r0, #16
  1046be:	189b      	add	r3, r3, r2
  1046c0:	8063      	strh	r3, [r4, #2]
  1046c2:	8020      	strh	r0, [r4, #0]
  1046c4:	141e      	asr	r6, r3, #16
  1046c6:	3404      	add	r4, #4
  1046c8:	45b8      	cmp	r8, r7
  1046ca:	d2e5      	bcs	104698 <quorem+0x60>
  1046cc:	9902      	ldr	r1, [sp, #8]
  1046ce:	008b      	lsl	r3, r1, #2
  1046d0:	4659      	mov	r1, fp
  1046d2:	18ca      	add	r2, r1, r3
  1046d4:	6813      	ldr	r3, [r2, #0]
  1046d6:	2b00      	cmp	r3, #0
  1046d8:	d10e      	bne	1046f8 <quorem+0xc0>
  1046da:	3a04      	sub	r2, #4
  1046dc:	4593      	cmp	fp, r2
  1046de:	d208      	bcs	1046f2 <quorem+0xba>
  1046e0:	6813      	ldr	r3, [r2, #0]
  1046e2:	2b00      	cmp	r3, #0
  1046e4:	d105      	bne	1046f2 <quorem+0xba>
  1046e6:	9b02      	ldr	r3, [sp, #8]
  1046e8:	3a04      	sub	r2, #4
  1046ea:	3b01      	sub	r3, #1
  1046ec:	9302      	str	r3, [sp, #8]
  1046ee:	4593      	cmp	fp, r2
  1046f0:	d3f6      	bcc	1046e0 <quorem+0xa8>
  1046f2:	9902      	ldr	r1, [sp, #8]
  1046f4:	9a01      	ldr	r2, [sp, #4]
  1046f6:	6111      	str	r1, [r2, #16]
  1046f8:	4650      	mov	r0, sl
  1046fa:	b005      	add	sp, #20
  1046fc:	bc3c      	pop	{r2, r3, r4, r5}
  1046fe:	4690      	mov	r8, r2
  104700:	4699      	mov	r9, r3
  104702:	46a2      	mov	sl, r4
  104704:	46ab      	mov	fp, r5
  104706:	bcf0      	pop	{r4, r5, r6, r7}
  104708:	bc02      	pop	{r1}
  10470a:	4708      	bx	r1
  10470c:	2100      	mov	r1, #0
  10470e:	4e1d      	ldr	r6, [pc, #116]	(104784 <.text+0x4784>)
  104710:	1c3d      	mov	r5, r7		(add r5, r7, #0)
  104712:	465c      	mov	r4, fp
  104714:	4689      	mov	r9, r1
  104716:	468c      	mov	ip, r1
  104718:	cd08      	ldmia	r5!,{r3}
  10471a:	1c1a      	mov	r2, r3		(add r2, r3, #0)
  10471c:	4032      	and	r2, r6
  10471e:	1c11      	mov	r1, r2		(add r1, r2, #0)
  104720:	4652      	mov	r2, sl
  104722:	434a      	mul	r2, r1
  104724:	0c1b      	lsr	r3, r3, #16
  104726:	4651      	mov	r1, sl
  104728:	4359      	mul	r1, r3
  10472a:	4462      	add	r2, ip
  10472c:	0c13      	lsr	r3, r2, #16
  10472e:	18c9      	add	r1, r1, r3
  104730:	0c0b      	lsr	r3, r1, #16
  104732:	469c      	mov	ip, r3
  104734:	6823      	ldr	r3, [r4, #0]
  104736:	1c18      	mov	r0, r3		(add r0, r3, #0)
  104738:	4032      	and	r2, r6
  10473a:	4030      	and	r0, r6
  10473c:	1a80      	sub	r0, r0, r2
  10473e:	4448      	add	r0, r9
  104740:	4031      	and	r1, r6
  104742:	0c1b      	lsr	r3, r3, #16
  104744:	1a5b      	sub	r3, r3, r1
  104746:	1402      	asr	r2, r0, #16
  104748:	189b      	add	r3, r3, r2
  10474a:	1419      	asr	r1, r3, #16
  10474c:	8063      	strh	r3, [r4, #2]
  10474e:	8020      	strh	r0, [r4, #0]
  104750:	4689      	mov	r9, r1
  104752:	3404      	add	r4, #4
  104754:	45a8      	cmp	r8, r5
  104756:	d2df      	bcs	104718 <quorem+0xe0>
  104758:	9a04      	ldr	r2, [sp, #16]
  10475a:	2a00      	cmp	r2, #0
  10475c:	d190      	bne	104680 <quorem+0x48>
  10475e:	9a03      	ldr	r2, [sp, #12]
  104760:	3a04      	sub	r2, #4
  104762:	4593      	cmp	fp, r2
  104764:	d208      	bcs	104778 <quorem+0x140>
  104766:	6813      	ldr	r3, [r2, #0]
  104768:	2b00      	cmp	r3, #0
  10476a:	d105      	bne	104778 <quorem+0x140>
  10476c:	9b02      	ldr	r3, [sp, #8]
  10476e:	3a04      	sub	r2, #4
  104770:	3b01      	sub	r3, #1
  104772:	9302      	str	r3, [sp, #8]
  104774:	455a      	cmp	r2, fp
  104776:	d8f6      	bhi	104766 <quorem+0x12e>
  104778:	9902      	ldr	r1, [sp, #8]
  10477a:	9a01      	ldr	r2, [sp, #4]
  10477c:	6111      	str	r1, [r2, #16]
  10477e:	e77f      	b	104680 <quorem+0x48>
  104780:	2000      	mov	r0, #0
  104782:	e7ba      	b	1046fa <quorem+0xc2>
  104784:	ffff      	second half of BL instruction 0xffff
	...

00104788 <_dtoa_r>:
  104788:	b5f0      	push	{r4, r5, r6, r7, lr}
  10478a:	465f      	mov	r7, fp
  10478c:	4656      	mov	r6, sl
  10478e:	464d      	mov	r5, r9
  104790:	4644      	mov	r4, r8
  104792:	b4f0      	push	{r4, r5, r6, r7}
  104794:	1c0e      	mov	r6, r1		(add r6, r1, #0)
  104796:	6c01      	ldr	r1, [r0, #64]
  104798:	b09f      	sub	sp, #124
  10479a:	4681      	mov	r9, r0
  10479c:	9301      	str	r3, [sp, #4]
  10479e:	9c2a      	ldr	r4, [sp, #168]
  1047a0:	1c17      	mov	r7, r2		(add r7, r2, #0)
  1047a2:	2900      	cmp	r1, #0
  1047a4:	d00a      	beq	1047bc <_dtoa_r+0x34>
  1047a6:	6c43      	ldr	r3, [r0, #68]
  1047a8:	604b      	str	r3, [r1, #4]
  1047aa:	6c42      	ldr	r2, [r0, #68]
  1047ac:	2301      	mov	r3, #1
  1047ae:	4093      	lsl	r3, r2
  1047b0:	608b      	str	r3, [r1, #8]
  1047b2:	fef5f001 	bl	1065a0 <_Bfree>
  1047b6:	2300      	mov	r3, #0
  1047b8:	4649      	mov	r1, r9
  1047ba:	640b      	str	r3, [r1, #64]
  1047bc:	1e32      	sub	r2, r6, #0
  1047be:	da00      	bge	1047c2 <_dtoa_r+0x3a>
  1047c0:	e0aa      	b	104918 <_dtoa_r+0x190>
  1047c2:	2300      	mov	r3, #0
  1047c4:	6023      	str	r3, [r4, #0]
  1047c6:	4abf      	ldr	r2, [pc, #764]	(104ac4 <.text+0x4ac4>)
  1047c8:	1c33      	mov	r3, r6		(add r3, r6, #0)
  1047ca:	4013      	and	r3, r2
  1047cc:	1c34      	mov	r4, r6		(add r4, r6, #0)
  1047ce:	4293      	cmp	r3, r2
  1047d0:	d100      	bne	1047d4 <_dtoa_r+0x4c>
  1047d2:	e090      	b	1048f6 <_dtoa_r+0x16e>
  1047d4:	1c30      	mov	r0, r6		(add r0, r6, #0)
  1047d6:	1c39      	mov	r1, r7		(add r1, r7, #0)
  1047d8:	4abb      	ldr	r2, [pc, #748]	(104ac8 <.text+0x4ac8>)
  1047da:	4bbc      	ldr	r3, [pc, #752]	(104acc <.text+0x4acc>)
  1047dc:	9602      	str	r6, [sp, #8]
  1047de:	9703      	str	r7, [sp, #12]
  1047e0:	fe04f006 	bl	10b3ec <____nedf2_from_thumb>
  1047e4:	2800      	cmp	r0, #0
  1047e6:	d114      	bne	104812 <_dtoa_r+0x8a>
  1047e8:	9d29      	ldr	r5, [sp, #164]
  1047ea:	992b      	ldr	r1, [sp, #172]
  1047ec:	2301      	mov	r3, #1
  1047ee:	602b      	str	r3, [r5, #0]
  1047f0:	2900      	cmp	r1, #0
  1047f2:	d101      	bne	1047f8 <_dtoa_r+0x70>
  1047f4:	fbf3f000 	bl	104fde <.text+0x4fde>
  1047f8:	4bb5      	ldr	r3, [pc, #724]	(104ad0 <.text+0x4ad0>)
  1047fa:	9a2b      	ldr	r2, [sp, #172]
  1047fc:	6013      	str	r3, [r2, #0]
  1047fe:	1e58      	sub	r0, r3, #1
  104800:	b01f      	add	sp, #124
  104802:	bc3c      	pop	{r2, r3, r4, r5}
  104804:	4690      	mov	r8, r2
  104806:	4699      	mov	r9, r3
  104808:	46a2      	mov	sl, r4
  10480a:	46ab      	mov	fp, r5
  10480c:	bcf0      	pop	{r4, r5, r6, r7}
  10480e:	bc02      	pop	{r1}
  104810:	4708      	bx	r1
  104812:	ab1e      	add	r3, sp, #120
  104814:	9300      	str	r3, [sp, #0]
  104816:	4648      	mov	r0, r9
  104818:	ab1d      	add	r3, sp, #116
  10481a:	9902      	ldr	r1, [sp, #8]
  10481c:	9a03      	ldr	r2, [sp, #12]
  10481e:	fa49f002 	bl	106cb4 <_d2b>
  104822:	0073      	lsl	r3, r6, #1
  104824:	0d5d      	lsr	r5, r3, #21
  104826:	9011      	str	r0, [sp, #68]
  104828:	2d00      	cmp	r5, #0
  10482a:	d100      	bne	10482e <_dtoa_r+0xa6>
  10482c:	e083      	b	104936 <_dtoa_r+0x1ae>
  10482e:	9802      	ldr	r0, [sp, #8]
  104830:	9903      	ldr	r1, [sp, #12]
  104832:	4ba8      	ldr	r3, [pc, #672]	(104ad4 <.text+0x4ad4>)
  104834:	4003      	and	r3, r0
  104836:	1c18      	mov	r0, r3		(add r0, r3, #0)
  104838:	4ba7      	ldr	r3, [pc, #668]	(104ad8 <.text+0x4ad8>)
  10483a:	4aa8      	ldr	r2, [pc, #672]	(104adc <.text+0x4adc>)
  10483c:	195b      	add	r3, r3, r5
  10483e:	2400      	mov	r4, #0
  104840:	9d1e      	ldr	r5, [sp, #120]
  104842:	9410      	str	r4, [sp, #64]
  104844:	4310      	orr	r0, r2
  104846:	4698      	mov	r8, r3
  104848:	46ab      	mov	fp, r5
  10484a:	4aa5      	ldr	r2, [pc, #660]	(104ae0 <.text+0x4ae0>)
  10484c:	4ba5      	ldr	r3, [pc, #660]	(104ae4 <.text+0x4ae4>)
  10484e:	fdb1f006 	bl	10b3b4 <____subdf3_from_thumb>
  104852:	4aa5      	ldr	r2, [pc, #660]	(104ae8 <.text+0x4ae8>)
  104854:	4ba5      	ldr	r3, [pc, #660]	(104aec <.text+0x4aec>)
  104856:	fdb1f006 	bl	10b3bc <____muldf3_from_thumb>
  10485a:	4aa5      	ldr	r2, [pc, #660]	(104af0 <.text+0x4af0>)
  10485c:	4ba5      	ldr	r3, [pc, #660]	(104af4 <.text+0x4af4>)
  10485e:	fdb5f006 	bl	10b3cc <____adddf3_from_thumb>
  104862:	1c04      	mov	r4, r0		(add r4, r0, #0)
  104864:	4640      	mov	r0, r8
  104866:	1c0d      	mov	r5, r1		(add r5, r1, #0)
  104868:	fda0f006 	bl	10b3ac <____floatsidf_from_thumb>
  10486c:	4aa2      	ldr	r2, [pc, #648]	(104af8 <.text+0x4af8>)
  10486e:	4ba3      	ldr	r3, [pc, #652]	(104afc <.text+0x4afc>)
  104870:	fda4f006 	bl	10b3bc <____muldf3_from_thumb>
  104874:	1c02      	mov	r2, r0		(add r2, r0, #0)
  104876:	1c0b      	mov	r3, r1		(add r3, r1, #0)
  104878:	1c20      	mov	r0, r4		(add r0, r4, #0)
  10487a:	1c29      	mov	r1, r5		(add r1, r5, #0)
  10487c:	fda6f006 	bl	10b3cc <____adddf3_from_thumb>
  104880:	1c04      	mov	r4, r0		(add r4, r0, #0)
  104882:	1c0d      	mov	r5, r1		(add r5, r1, #0)
  104884:	fd8ef006 	bl	10b3a4 <____fixdfsi_from_thumb>
  104888:	1c29      	mov	r1, r5		(add r1, r5, #0)
  10488a:	4682      	mov	sl, r0
  10488c:	4a8e      	ldr	r2, [pc, #568]	(104ac8 <.text+0x4ac8>)
  10488e:	4b8f      	ldr	r3, [pc, #572]	(104acc <.text+0x4acc>)
  104890:	1c20      	mov	r0, r4		(add r0, r4, #0)
  104892:	fd83f006 	bl	10b39c <____ltdf2_from_thumb>
  104896:	2800      	cmp	r0, #0
  104898:	da01      	bge	10489e <_dtoa_r+0x116>
  10489a:	fca7f000 	bl	1051ec <.text+0x51ec>
  10489e:	4655      	mov	r5, sl
  1048a0:	2d16      	cmp	r5, #22
  1048a2:	d800      	bhi	1048a6 <_dtoa_r+0x11e>
  1048a4:	e254      	b	104d50 <.text+0x4d50>
  1048a6:	2101      	mov	r1, #1
  1048a8:	910d      	str	r1, [sp, #52]
  1048aa:	465c      	mov	r4, fp
  1048ac:	4645      	mov	r5, r8
  1048ae:	1b63      	sub	r3, r4, r5
  1048b0:	1e5a      	sub	r2, r3, #1
  1048b2:	d501      	bpl	1048b8 <_dtoa_r+0x130>
  1048b4:	fcb6f000 	bl	105224 <.text+0x5224>
  1048b8:	2100      	mov	r1, #0
  1048ba:	9108      	str	r1, [sp, #32]
  1048bc:	4693      	mov	fp, r2
  1048be:	4653      	mov	r3, sl
  1048c0:	2b00      	cmp	r3, #0
  1048c2:	da01      	bge	1048c8 <_dtoa_r+0x140>
  1048c4:	fca4f000 	bl	105210 <.text+0x5210>
  1048c8:	2100      	mov	r1, #0
  1048ca:	930f      	str	r3, [sp, #60]
  1048cc:	9109      	str	r1, [sp, #36]
  1048ce:	44d3      	add	fp, sl
  1048d0:	9d01      	ldr	r5, [sp, #4]
  1048d2:	2d09      	cmp	r5, #9
  1048d4:	d850      	bhi	104978 <_dtoa_r+0x1f0>
  1048d6:	2d05      	cmp	r5, #5
  1048d8:	dc01      	bgt	1048de <_dtoa_r+0x156>
  1048da:	fe23f000 	bl	105524 <.text+0x5524>
  1048de:	9901      	ldr	r1, [sp, #4]
  1048e0:	3904      	sub	r1, #4
  1048e2:	9101      	str	r1, [sp, #4]
  1048e4:	2400      	mov	r4, #0
  1048e6:	9a01      	ldr	r2, [sp, #4]
  1048e8:	2a05      	cmp	r2, #5
  1048ea:	d900      	bls	1048ee <_dtoa_r+0x166>
  1048ec:	e33e      	b	104f6c <.text+0x4f6c>
  1048ee:	0093      	lsl	r3, r2, #2
  1048f0:	4a83      	ldr	r2, [pc, #524]	(104b00 <.text+0x4b00>)
  1048f2:	589b      	ldr	r3, [r3, r2]
  1048f4:	469f      	mov	pc, r3
  1048f6:	4b83      	ldr	r3, [pc, #524]	(104b04 <.text+0x4b04>)
  1048f8:	9a29      	ldr	r2, [sp, #164]
  1048fa:	6013      	str	r3, [r2, #0]
  1048fc:	2f00      	cmp	r7, #0
  1048fe:	d011      	beq	104924 <_dtoa_r+0x19c>
  104900:	4881      	ldr	r0, [pc, #516]	(104b08 <.text+0x4b08>)
  104902:	9b2b      	ldr	r3, [sp, #172]
  104904:	2b00      	cmp	r3, #0
  104906:	d100      	bne	10490a <_dtoa_r+0x182>
  104908:	e77a      	b	104800 <_dtoa_r+0x78>
  10490a:	78c3      	ldrb	r3, [r0, #3]
  10490c:	1cc2      	add	r2, r0, #3
  10490e:	2b00      	cmp	r3, #0
  104910:	d10d      	bne	10492e <_dtoa_r+0x1a6>
  104912:	9c2b      	ldr	r4, [sp, #172]
  104914:	6022      	str	r2, [r4, #0]
  104916:	e773      	b	104800 <_dtoa_r+0x78>
  104918:	2301      	mov	r3, #1
  10491a:	6023      	str	r3, [r4, #0]
  10491c:	4b7b      	ldr	r3, [pc, #492]	(104b0c <.text+0x4b0c>)
  10491e:	1c16      	mov	r6, r2		(add r6, r2, #0)
  104920:	401e      	and	r6, r3
  104922:	e750      	b	1047c6 <_dtoa_r+0x3e>
  104924:	4b6b      	ldr	r3, [pc, #428]	(104ad4 <.text+0x4ad4>)
  104926:	421e      	tst	r6, r3
  104928:	d1ea      	bne	104900 <_dtoa_r+0x178>
  10492a:	4879      	ldr	r0, [pc, #484]	(104b10 <.text+0x4b10>)
  10492c:	e7e9      	b	104902 <_dtoa_r+0x17a>
  10492e:	9c2b      	ldr	r4, [sp, #172]
  104930:	3205      	add	r2, #5
  104932:	6022      	str	r2, [r4, #0]
  104934:	e764      	b	104800 <_dtoa_r+0x78>
  104936:	991e      	ldr	r1, [sp, #120]
  104938:	9b1d      	ldr	r3, [sp, #116]
  10493a:	4a76      	ldr	r2, [pc, #472]	(104b14 <.text+0x4b14>)
  10493c:	18cd      	add	r5, r1, r3
  10493e:	468b      	mov	fp, r1
  104940:	18a9      	add	r1, r5, r2
  104942:	2920      	cmp	r1, #32
  104944:	dc00      	bgt	104948 <_dtoa_r+0x1c0>
  104946:	e318      	b	104f7a <.text+0x4f7a>
  104948:	2240      	mov	r2, #64
  10494a:	1a52      	sub	r2, r2, r1
  10494c:	4094      	lsl	r4, r2
  10494e:	1c22      	mov	r2, r4		(add r2, r4, #0)
  104950:	4c71      	ldr	r4, [pc, #452]	(104b18 <.text+0x4b18>)
  104952:	1c39      	mov	r1, r7		(add r1, r7, #0)
  104954:	192b      	add	r3, r5, r4
  104956:	40d9      	lsr	r1, r3
  104958:	1c14      	mov	r4, r2		(add r4, r2, #0)
  10495a:	430c      	orr	r4, r1
  10495c:	1c20      	mov	r0, r4		(add r0, r4, #0)
  10495e:	fd25f006 	bl	10b3ac <____floatsidf_from_thumb>
  104962:	2c00      	cmp	r4, #0
  104964:	da01      	bge	10496a <_dtoa_r+0x1e2>
  104966:	fc74f000 	bl	105252 <.text+0x5252>
  10496a:	4a6c      	ldr	r2, [pc, #432]	(104b1c <.text+0x4b1c>)
  10496c:	3d01      	sub	r5, #1
  10496e:	2301      	mov	r3, #1
  104970:	1880      	add	r0, r0, r2
  104972:	46a8      	mov	r8, r5
  104974:	9310      	str	r3, [sp, #64]
  104976:	e768      	b	10484a <_dtoa_r+0xc2>
  104978:	2200      	mov	r2, #0
  10497a:	9201      	str	r2, [sp, #4]
  10497c:	2401      	mov	r4, #1
  10497e:	2301      	mov	r3, #1
  104980:	930e      	str	r3, [sp, #56]
  104982:	2500      	mov	r5, #0
  104984:	425b      	neg	r3, r3
  104986:	930b      	str	r3, [sp, #44]
  104988:	930c      	str	r3, [sp, #48]
  10498a:	9528      	str	r5, [sp, #160]
  10498c:	2012      	mov	r0, #18
  10498e:	2300      	mov	r3, #0
  104990:	464a      	mov	r2, r9
  104992:	6453      	str	r3, [r2, #68]
  104994:	2817      	cmp	r0, #23
  104996:	d909      	bls	1049ac <_dtoa_r+0x224>
  104998:	2204      	mov	r2, #4
  10499a:	2100      	mov	r1, #0
  10499c:	0052      	lsl	r2, r2, #1
  10499e:	1c13      	mov	r3, r2		(add r3, r2, #0)
  1049a0:	3314      	add	r3, #20
  1049a2:	3101      	add	r1, #1
  1049a4:	4283      	cmp	r3, r0
  1049a6:	d9f9      	bls	10499c <_dtoa_r+0x214>
  1049a8:	464b      	mov	r3, r9
  1049aa:	6459      	str	r1, [r3, #68]
  1049ac:	464d      	mov	r5, r9
  1049ae:	6c69      	ldr	r1, [r5, #68]
  1049b0:	4648      	mov	r0, r9
  1049b2:	fdc9f001 	bl	106548 <_Balloc>
  1049b6:	990b      	ldr	r1, [sp, #44]
  1049b8:	9004      	str	r0, [sp, #16]
  1049ba:	6428      	str	r0, [r5, #64]
  1049bc:	290e      	cmp	r1, #14
  1049be:	d900      	bls	1049c2 <_dtoa_r+0x23a>
  1049c0:	e145      	b	104c4e <.text+0x4c4e>
  1049c2:	2c00      	cmp	r4, #0
  1049c4:	d100      	bne	1049c8 <_dtoa_r+0x240>
  1049c6:	e142      	b	104c4e <.text+0x4c4e>
  1049c8:	4652      	mov	r2, sl
  1049ca:	2a00      	cmp	r2, #0
  1049cc:	dc00      	bgt	1049d0 <_dtoa_r+0x248>
  1049ce:	e3a6      	b	10511e <.text+0x511e>
  1049d0:	210f      	mov	r1, #15
  1049d2:	4653      	mov	r3, sl
  1049d4:	4a52      	ldr	r2, [pc, #328]	(104b20 <.text+0x4b20>)
  1049d6:	400b      	and	r3, r1
  1049d8:	00db      	lsl	r3, r3, #3
  1049da:	189b      	add	r3, r3, r2
  1049dc:	681c      	ldr	r4, [r3, #0]
  1049de:	685d      	ldr	r5, [r3, #4]
  1049e0:	9416      	str	r4, [sp, #88]
  1049e2:	9517      	str	r5, [sp, #92]
  1049e4:	4655      	mov	r5, sl
  1049e6:	112c      	asr	r4, r5, #4
  1049e8:	06e2      	lsl	r2, r4, #27
  1049ea:	d501      	bpl	1049f0 <_dtoa_r+0x268>
  1049ec:	fc58f000 	bl	1052a0 <.text+0x52a0>
  1049f0:	2302      	mov	r3, #2
  1049f2:	930a      	str	r3, [sp, #40]
  1049f4:	2c00      	cmp	r4, #0
  1049f6:	d014      	beq	104a22 <_dtoa_r+0x29a>
  1049f8:	2101      	mov	r1, #1
  1049fa:	4d4a      	ldr	r5, [pc, #296]	(104b24 <.text+0x4b24>)
  1049fc:	4688      	mov	r8, r1
  1049fe:	4642      	mov	r2, r8
  104a00:	4214      	tst	r4, r2
  104a02:	d00a      	beq	104a1a <_dtoa_r+0x292>
  104a04:	9b0a      	ldr	r3, [sp, #40]
  104a06:	3301      	add	r3, #1
  104a08:	930a      	str	r3, [sp, #40]
  104a0a:	9816      	ldr	r0, [sp, #88]
  104a0c:	9917      	ldr	r1, [sp, #92]
  104a0e:	682a      	ldr	r2, [r5, #0]
  104a10:	686b      	ldr	r3, [r5, #4]
  104a12:	fcd3f006 	bl	10b3bc <____muldf3_from_thumb>
  104a16:	9016      	str	r0, [sp, #88]
  104a18:	9117      	str	r1, [sp, #92]
  104a1a:	1064      	asr	r4, r4, #1
  104a1c:	3508      	add	r5, #8
  104a1e:	2c00      	cmp	r4, #0
  104a20:	d1ed      	bne	1049fe <_dtoa_r+0x276>
  104a22:	1c30      	mov	r0, r6		(add r0, r6, #0)
  104a24:	1c39      	mov	r1, r7		(add r1, r7, #0)
  104a26:	9a16      	ldr	r2, [sp, #88]
  104a28:	9b17      	ldr	r3, [sp, #92]
  104a2a:	fce3f006 	bl	10b3f4 <____divdf3_from_thumb>
  104a2e:	1c06      	mov	r6, r0		(add r6, r0, #0)
  104a30:	1c0f      	mov	r7, r1		(add r7, r1, #0)
  104a32:	9d0d      	ldr	r5, [sp, #52]
  104a34:	2d00      	cmp	r5, #0
  104a36:	d009      	beq	104a4c <_dtoa_r+0x2c4>
  104a38:	1c30      	mov	r0, r6		(add r0, r6, #0)
  104a3a:	1c39      	mov	r1, r7		(add r1, r7, #0)
  104a3c:	4a3a      	ldr	r2, [pc, #232]	(104b28 <.text+0x4b28>)
  104a3e:	4b3b      	ldr	r3, [pc, #236]	(104b2c <.text+0x4b2c>)
  104a40:	fcacf006 	bl	10b39c <____ltdf2_from_thumb>
  104a44:	2800      	cmp	r0, #0
  104a46:	da01      	bge	104a4c <_dtoa_r+0x2c4>
  104a48:	fd25f000 	bl	105496 <.text+0x5496>
  104a4c:	4651      	mov	r1, sl
  104a4e:	911c      	str	r1, [sp, #112]
  104a50:	990b      	ldr	r1, [sp, #44]
  104a52:	911b      	str	r1, [sp, #108]
  104a54:	980a      	ldr	r0, [sp, #40]
  104a56:	fca9f006 	bl	10b3ac <____floatsidf_from_thumb>
  104a5a:	1c32      	mov	r2, r6		(add r2, r6, #0)
  104a5c:	1c3b      	mov	r3, r7		(add r3, r7, #0)
  104a5e:	fcadf006 	bl	10b3bc <____muldf3_from_thumb>
  104a62:	4a33      	ldr	r2, [pc, #204]	(104b30 <.text+0x4b30>)
  104a64:	4b33      	ldr	r3, [pc, #204]	(104b34 <.text+0x4b34>)
  104a66:	fcb1f006 	bl	10b3cc <____adddf3_from_thumb>
  104a6a:	4a33      	ldr	r2, [pc, #204]	(104b38 <.text+0x4b38>)
  104a6c:	9b1b      	ldr	r3, [sp, #108]
  104a6e:	1c0d      	mov	r5, r1		(add r5, r1, #0)
  104a70:	1884      	add	r4, r0, r2
  104a72:	2b00      	cmp	r3, #0
  104a74:	d166      	bne	104b44 <.text+0x4b44>
  104a76:	4a31      	ldr	r2, [pc, #196]	(104b3c <.text+0x4b3c>)
  104a78:	4b31      	ldr	r3, [pc, #196]	(104b40 <.text+0x4b40>)
  104a7a:	1c30      	mov	r0, r6		(add r0, r6, #0)
  104a7c:	1c39      	mov	r1, r7		(add r1, r7, #0)
  104a7e:	fc99f006 	bl	10b3b4 <____subdf3_from_thumb>
  104a82:	1c22      	mov	r2, r4		(add r2, r4, #0)
  104a84:	1c2b      	mov	r3, r5		(add r3, r5, #0)
  104a86:	1c06      	mov	r6, r0		(add r6, r0, #0)
  104a88:	1c0f      	mov	r7, r1		(add r7, r1, #0)
  104a8a:	fca3f006 	bl	10b3d4 <____gtdf2_from_thumb>
  104a8e:	2800      	cmp	r0, #0
  104a90:	dd01      	ble	104a96 <_dtoa_r+0x30e>
  104a92:	fc87f000 	bl	1053a4 <.text+0x53a4>
  104a96:	2180      	mov	r1, #128
  104a98:	0609      	lsl	r1, r1, #24
  104a9a:	1862      	add	r2, r4, r1
  104a9c:	1c2b      	mov	r3, r5		(add r3, r5, #0)
  104a9e:	1c30      	mov	r0, r6		(add r0, r6, #0)
  104aa0:	1c39      	mov	r1, r7		(add r1, r7, #0)
  104aa2:	fc7bf006 	bl	10b39c <____ltdf2_from_thumb>
  104aa6:	2800      	cmp	r0, #0
  104aa8:	db00      	blt	104aac <_dtoa_r+0x324>
  104aaa:	e0ce      	b	104c4a <.text+0x4c4a>
  104aac:	2300      	mov	r3, #0
  104aae:	931a      	str	r3, [sp, #104]
  104ab0:	9313      	str	r3, [sp, #76]
  104ab2:	9c28      	ldr	r4, [sp, #160]
  104ab4:	9d04      	ldr	r5, [sp, #16]
  104ab6:	43e4      	mvn	r4, r4
  104ab8:	2100      	mov	r1, #0
  104aba:	46a8      	mov	r8, r5
  104abc:	941c      	str	r4, [sp, #112]
  104abe:	9112      	str	r1, [sp, #72]
  104ac0:	e2c9      	b	105056 <.text+0x5056>
  104ac2:	0000      	lsl	r0, r0, #0
  104ac4:	0000      	lsl	r0, r0, #0
  104ac6:	7ff0      	ldrb	r0, [r6, #31]
	...
  104ad0:	b89d      	undefined instruction 0xb89d
  104ad2:	0010      	lsl	r0, r2, #0
  104ad4:	ffff      	second half of BL instruction 0xffff
  104ad6:	000f      	lsl	r7, r1, #0
  104ad8:	fc01      	second half of BL instruction 0xfc01
  104ada:	ffff      	second half of BL instruction 0xffff
  104adc:	0000      	lsl	r0, r0, #0
  104ade:	3ff0      	sub	r7, #240
  104ae0:	0000      	lsl	r0, r0, #0
  104ae2:	3ff8      	sub	r7, #248
  104ae4:	0000      	lsl	r0, r0, #0
  104ae6:	0000      	lsl	r0, r0, #0
  104ae8:	87a7      	strh	r7, [r4, #60]
  104aea:	3fd2      	sub	r7, #210
  104aec:	4361      	mul	r1, r4
  104aee:	636f      	str	r7, [r5, #52]
  104af0:	8a28      	ldrh	r0, [r5, #16]
  104af2:	3fc6      	sub	r7, #198
  104af4:	c8b3      	ldmia	r0!,{r0, r1, r4, r5, r7}
  104af6:	8b60      	ldrh	r0, [r4, #26]
  104af8:	4413      	add	r3, r2
  104afa:	3fd3      	sub	r7, #211
  104afc:	79fb      	ldrb	r3, [r7, #7]
  104afe:	509f      	str	r7, [r3, r2]
  104b00:	b8d4      	undefined instruction 0xb8d4
  104b02:	0010      	lsl	r0, r2, #0
  104b04:	270f      	mov	r7, #15
  104b06:	0000      	lsl	r0, r0, #0
  104b08:	b8d0      	undefined instruction 0xb8d0
  104b0a:	0010      	lsl	r0, r2, #0
  104b0c:	ffff      	second half of BL instruction 0xffff
  104b0e:	7fff      	ldrb	r7, [r7, #31]
  104b10:	b8c4      	undefined instruction 0xb8c4
  104b12:	0010      	lsl	r0, r2, #0
  104b14:	0432      	lsl	r2, r6, #16
  104b16:	0000      	lsl	r0, r0, #0
  104b18:	0412      	lsl	r2, r2, #16
  104b1a:	0000      	lsl	r0, r0, #0
  104b1c:	0000      	lsl	r0, r0, #0
  104b1e:	fe10      	second half of BL instruction 0xfe10
  104b20:	b980      	undefined instruction 0xb980
  104b22:	0010      	lsl	r0, r2, #0
  104b24:	b958      	undefined instruction 0xb958
  104b26:	0010      	lsl	r0, r2, #0
  104b28:	0000      	lsl	r0, r0, #0
  104b2a:	3ff0      	sub	r7, #240
  104b2c:	0000      	lsl	r0, r0, #0
  104b2e:	0000      	lsl	r0, r0, #0
  104b30:	0000      	lsl	r0, r0, #0
  104b32:	401c      	and	r4, r3
  104b34:	0000      	lsl	r0, r0, #0
  104b36:	0000      	lsl	r0, r0, #0
  104b38:	0000      	lsl	r0, r0, #0
  104b3a:	fcc0      	second half of BL instruction 0xfcc0
  104b3c:	0000      	lsl	r0, r0, #0
  104b3e:	4014      	and	r4, r2
  104b40:	0000      	lsl	r0, r0, #0
  104b42:	0000      	lsl	r0, r0, #0
  104b44:	9a0e      	ldr	r2, [sp, #56]
  104b46:	2a00      	cmp	r2, #0
  104b48:	d101      	bne	104b4e <.text+0x4b4e>
  104b4a:	fc2ff000 	bl	1053ac <.text+0x53ac>
  104b4e:	991b      	ldr	r1, [sp, #108]
  104b50:	4a87      	ldr	r2, [pc, #540]	(104d70 <.text+0x4d70>)
  104b52:	00cb      	lsl	r3, r1, #3
  104b54:	189b      	add	r3, r3, r2
  104b56:	3b08      	sub	r3, #8
  104b58:	681a      	ldr	r2, [r3, #0]
  104b5a:	685b      	ldr	r3, [r3, #4]
  104b5c:	4885      	ldr	r0, [pc, #532]	(104d74 <.text+0x4d74>)
  104b5e:	4986      	ldr	r1, [pc, #536]	(104d78 <.text+0x4d78>)
  104b60:	fc48f006 	bl	10b3f4 <____divdf3_from_thumb>
  104b64:	1c22      	mov	r2, r4		(add r2, r4, #0)
  104b66:	1c2b      	mov	r3, r5		(add r3, r5, #0)
  104b68:	fc24f006 	bl	10b3b4 <____subdf3_from_thumb>
  104b6c:	9014      	str	r0, [sp, #80]
  104b6e:	9115      	str	r1, [sp, #84]
  104b70:	1c30      	mov	r0, r6		(add r0, r6, #0)
  104b72:	1c39      	mov	r1, r7		(add r1, r7, #0)
  104b74:	fc16f006 	bl	10b3a4 <____fixdfsi_from_thumb>
  104b78:	1c04      	mov	r4, r0		(add r4, r0, #0)
  104b7a:	fc17f006 	bl	10b3ac <____floatsidf_from_thumb>
  104b7e:	1c02      	mov	r2, r0		(add r2, r0, #0)
  104b80:	1c0b      	mov	r3, r1		(add r3, r1, #0)
  104b82:	1c30      	mov	r0, r6		(add r0, r6, #0)
  104b84:	1c39      	mov	r1, r7		(add r1, r7, #0)
  104b86:	fc15f006 	bl	10b3b4 <____subdf3_from_thumb>
  104b8a:	9a04      	ldr	r2, [sp, #16]
  104b8c:	3430      	add	r4, #48
  104b8e:	1c05      	mov	r5, r0		(add r5, r0, #0)
  104b90:	1c0e      	mov	r6, r1		(add r6, r1, #0)
  104b92:	7014      	strb	r4, [r2, #0]
  104b94:	3201      	add	r2, #1
  104b96:	4690      	mov	r8, r2
  104b98:	9814      	ldr	r0, [sp, #80]
  104b9a:	9915      	ldr	r1, [sp, #84]
  104b9c:	1c2a      	mov	r2, r5		(add r2, r5, #0)
  104b9e:	1c33      	mov	r3, r6		(add r3, r6, #0)
  104ba0:	fc18f006 	bl	10b3d4 <____gtdf2_from_thumb>
  104ba4:	2800      	cmp	r0, #0
  104ba6:	dd00      	ble	104baa <.text+0x4baa>
  104ba8:	e268      	b	10507c <.text+0x507c>
  104baa:	1c2a      	mov	r2, r5		(add r2, r5, #0)
  104bac:	1c33      	mov	r3, r6		(add r3, r6, #0)
  104bae:	4873      	ldr	r0, [pc, #460]	(104d7c <.text+0x4d7c>)
  104bb0:	4973      	ldr	r1, [pc, #460]	(104d80 <.text+0x4d80>)
  104bb2:	fbfff006 	bl	10b3b4 <____subdf3_from_thumb>
  104bb6:	1c02      	mov	r2, r0		(add r2, r0, #0)
  104bb8:	1c0b      	mov	r3, r1		(add r3, r1, #0)
  104bba:	9814      	ldr	r0, [sp, #80]
  104bbc:	9915      	ldr	r1, [sp, #84]
  104bbe:	fc09f006 	bl	10b3d4 <____gtdf2_from_thumb>
  104bc2:	2800      	cmp	r0, #0
  104bc4:	dd00      	ble	104bc8 <.text+0x4bc8>
  104bc6:	e0ab      	b	104d20 <.text+0x4d20>
  104bc8:	991b      	ldr	r1, [sp, #108]
  104bca:	2901      	cmp	r1, #1
  104bcc:	dd3d      	ble	104c4a <.text+0x4c4a>
  104bce:	2701      	mov	r7, #1
  104bd0:	9814      	ldr	r0, [sp, #80]
  104bd2:	9915      	ldr	r1, [sp, #84]
  104bd4:	4a6b      	ldr	r2, [pc, #428]	(104d84 <.text+0x4d84>)
  104bd6:	4b6c      	ldr	r3, [pc, #432]	(104d88 <.text+0x4d88>)
  104bd8:	fbf0f006 	bl	10b3bc <____muldf3_from_thumb>
  104bdc:	4a69      	ldr	r2, [pc, #420]	(104d84 <.text+0x4d84>)
  104bde:	4b6a      	ldr	r3, [pc, #424]	(104d88 <.text+0x4d88>)
  104be0:	9014      	str	r0, [sp, #80]
  104be2:	9115      	str	r1, [sp, #84]
  104be4:	1c28      	mov	r0, r5		(add r0, r5, #0)
  104be6:	1c31      	mov	r1, r6		(add r1, r6, #0)
  104be8:	fbe8f006 	bl	10b3bc <____muldf3_from_thumb>
  104bec:	1c0e      	mov	r6, r1		(add r6, r1, #0)
  104bee:	1c05      	mov	r5, r0		(add r5, r0, #0)
  104bf0:	fbd8f006 	bl	10b3a4 <____fixdfsi_from_thumb>
  104bf4:	1c04      	mov	r4, r0		(add r4, r0, #0)
  104bf6:	fbd9f006 	bl	10b3ac <____floatsidf_from_thumb>
  104bfa:	1c02      	mov	r2, r0		(add r2, r0, #0)
  104bfc:	1c0b      	mov	r3, r1		(add r3, r1, #0)
  104bfe:	1c28      	mov	r0, r5		(add r0, r5, #0)
  104c00:	1c31      	mov	r1, r6		(add r1, r6, #0)
  104c02:	fbd7f006 	bl	10b3b4 <____subdf3_from_thumb>
  104c06:	3430      	add	r4, #48
  104c08:	1c0e      	mov	r6, r1		(add r6, r1, #0)
  104c0a:	4641      	mov	r1, r8
  104c0c:	1c05      	mov	r5, r0		(add r5, r0, #0)
  104c0e:	2201      	mov	r2, #1
  104c10:	700c      	strb	r4, [r1, #0]
  104c12:	4490      	add	r8, r2
  104c14:	9814      	ldr	r0, [sp, #80]
  104c16:	9915      	ldr	r1, [sp, #84]
  104c18:	1c2a      	mov	r2, r5		(add r2, r5, #0)
  104c1a:	1c33      	mov	r3, r6		(add r3, r6, #0)
  104c1c:	fbdaf006 	bl	10b3d4 <____gtdf2_from_thumb>
  104c20:	2800      	cmp	r0, #0
  104c22:	dd00      	ble	104c26 <.text+0x4c26>
  104c24:	e22a      	b	10507c <.text+0x507c>
  104c26:	1c2a      	mov	r2, r5		(add r2, r5, #0)
  104c28:	1c33      	mov	r3, r6		(add r3, r6, #0)
  104c2a:	4854      	ldr	r0, [pc, #336]	(104d7c <.text+0x4d7c>)
  104c2c:	4954      	ldr	r1, [pc, #336]	(104d80 <.text+0x4d80>)
  104c2e:	fbc1f006 	bl	10b3b4 <____subdf3_from_thumb>
  104c32:	1c02      	mov	r2, r0		(add r2, r0, #0)
  104c34:	1c0b      	mov	r3, r1		(add r3, r1, #0)
  104c36:	9814      	ldr	r0, [sp, #80]
  104c38:	9915      	ldr	r1, [sp, #84]
  104c3a:	fbcbf006 	bl	10b3d4 <____gtdf2_from_thumb>
  104c3e:	2800      	cmp	r0, #0
  104c40:	dc6e      	bgt	104d20 <.text+0x4d20>
  104c42:	9b1b      	ldr	r3, [sp, #108]
  104c44:	3701      	add	r7, #1
  104c46:	42bb      	cmp	r3, r7
  104c48:	d1c2      	bne	104bd0 <.text+0x4bd0>
  104c4a:	9e02      	ldr	r6, [sp, #8]
  104c4c:	9f03      	ldr	r7, [sp, #12]
  104c4e:	9b1d      	ldr	r3, [sp, #116]
  104c50:	2b00      	cmp	r3, #0
  104c52:	da00      	bge	104c56 <.text+0x4c56>
  104c54:	e09e      	b	104d94 <.text+0x4d94>
  104c56:	4654      	mov	r4, sl
  104c58:	2c0e      	cmp	r4, #14
  104c5a:	dd00      	ble	104c5e <.text+0x4c5e>
  104c5c:	e09a      	b	104d94 <.text+0x4d94>
  104c5e:	4a44      	ldr	r2, [pc, #272]	(104d70 <.text+0x4d70>)
  104c60:	00e3      	lsl	r3, r4, #3
  104c62:	189b      	add	r3, r3, r2
  104c64:	6819      	ldr	r1, [r3, #0]
  104c66:	685a      	ldr	r2, [r3, #4]
  104c68:	9118      	str	r1, [sp, #96]
  104c6a:	9219      	str	r2, [sp, #100]
  104c6c:	9a28      	ldr	r2, [sp, #160]
  104c6e:	2a00      	cmp	r2, #0
  104c70:	da00      	bge	104c74 <.text+0x4c74>
  104c72:	e34b      	b	10530c <.text+0x530c>
  104c74:	9904      	ldr	r1, [sp, #16]
  104c76:	1c3d      	mov	r5, r7		(add r5, r7, #0)
  104c78:	1c34      	mov	r4, r6		(add r4, r6, #0)
  104c7a:	4688      	mov	r8, r1
  104c7c:	2701      	mov	r7, #1
  104c7e:	e00f      	b	104ca0 <.text+0x4ca0>
  104c80:	1c20      	mov	r0, r4		(add r0, r4, #0)
  104c82:	1c29      	mov	r1, r5		(add r1, r5, #0)
  104c84:	4a3f      	ldr	r2, [pc, #252]	(104d84 <.text+0x4d84>)
  104c86:	4b40      	ldr	r3, [pc, #256]	(104d88 <.text+0x4d88>)
  104c88:	fb98f006 	bl	10b3bc <____muldf3_from_thumb>
  104c8c:	4a3f      	ldr	r2, [pc, #252]	(104d8c <.text+0x4d8c>)
  104c8e:	4b40      	ldr	r3, [pc, #256]	(104d90 <.text+0x4d90>)
  104c90:	1c04      	mov	r4, r0		(add r4, r0, #0)
  104c92:	1c0d      	mov	r5, r1		(add r5, r1, #0)
  104c94:	fbaaf006 	bl	10b3ec <____nedf2_from_thumb>
  104c98:	2800      	cmp	r0, #0
  104c9a:	d100      	bne	104c9e <.text+0x4c9e>
  104c9c:	e292      	b	1051c4 <.text+0x51c4>
  104c9e:	3701      	add	r7, #1
  104ca0:	9a18      	ldr	r2, [sp, #96]
  104ca2:	9b19      	ldr	r3, [sp, #100]
  104ca4:	1c20      	mov	r0, r4		(add r0, r4, #0)
  104ca6:	1c29      	mov	r1, r5		(add r1, r5, #0)
  104ca8:	fba4f006 	bl	10b3f4 <____divdf3_from_thumb>
  104cac:	fb7af006 	bl	10b3a4 <____fixdfsi_from_thumb>
  104cb0:	1c06      	mov	r6, r0		(add r6, r0, #0)
  104cb2:	fb7bf006 	bl	10b3ac <____floatsidf_from_thumb>
  104cb6:	1c02      	mov	r2, r0		(add r2, r0, #0)
  104cb8:	1c0b      	mov	r3, r1		(add r3, r1, #0)
  104cba:	9818      	ldr	r0, [sp, #96]
  104cbc:	9919      	ldr	r1, [sp, #100]
  104cbe:	fb7df006 	bl	10b3bc <____muldf3_from_thumb>
  104cc2:	1c02      	mov	r2, r0		(add r2, r0, #0)
  104cc4:	1c0b      	mov	r3, r1		(add r3, r1, #0)
  104cc6:	1c20      	mov	r0, r4		(add r0, r4, #0)
  104cc8:	1c29      	mov	r1, r5		(add r1, r5, #0)
  104cca:	fb73f006 	bl	10b3b4 <____subdf3_from_thumb>
  104cce:	1c33      	mov	r3, r6		(add r3, r6, #0)
  104cd0:	3330      	add	r3, #48
  104cd2:	4642      	mov	r2, r8
  104cd4:	7013      	strb	r3, [r2, #0]
  104cd6:	1c0d      	mov	r5, r1		(add r5, r1, #0)
  104cd8:	990b      	ldr	r1, [sp, #44]
  104cda:	2301      	mov	r3, #1
  104cdc:	1c04      	mov	r4, r0		(add r4, r0, #0)
  104cde:	4498      	add	r8, r3
  104ce0:	428f      	cmp	r7, r1
  104ce2:	d1cd      	bne	104c80 <.text+0x4c80>
  104ce4:	1c22      	mov	r2, r4		(add r2, r4, #0)
  104ce6:	1c2b      	mov	r3, r5		(add r3, r5, #0)
  104ce8:	1c20      	mov	r0, r4		(add r0, r4, #0)
  104cea:	1c29      	mov	r1, r5		(add r1, r5, #0)
  104cec:	fb6ef006 	bl	10b3cc <____adddf3_from_thumb>
  104cf0:	1c04      	mov	r4, r0		(add r4, r0, #0)
  104cf2:	1c0d      	mov	r5, r1		(add r5, r1, #0)
  104cf4:	1c22      	mov	r2, r4		(add r2, r4, #0)
  104cf6:	9818      	ldr	r0, [sp, #96]
  104cf8:	9919      	ldr	r1, [sp, #100]
  104cfa:	1c2b      	mov	r3, r5		(add r3, r5, #0)
  104cfc:	fb4ef006 	bl	10b39c <____ltdf2_from_thumb>
  104d00:	2800      	cmp	r0, #0
  104d02:	db0b      	blt	104d1c <.text+0x4d1c>
  104d04:	9818      	ldr	r0, [sp, #96]
  104d06:	9919      	ldr	r1, [sp, #100]
  104d08:	1c22      	mov	r2, r4		(add r2, r4, #0)
  104d0a:	1c2b      	mov	r3, r5		(add r3, r5, #0)
  104d0c:	fb6af006 	bl	10b3e4 <____eqdf2_from_thumb>
  104d10:	2800      	cmp	r0, #0
  104d12:	d000      	beq	104d16 <.text+0x4d16>
  104d14:	e256      	b	1051c4 <.text+0x51c4>
  104d16:	07f2      	lsl	r2, r6, #31
  104d18:	d400      	bmi	104d1c <.text+0x4d1c>
  104d1a:	e253      	b	1051c4 <.text+0x51c4>
  104d1c:	4651      	mov	r1, sl
  104d1e:	911c      	str	r1, [sp, #112]
  104d20:	4640      	mov	r0, r8
  104d22:	e000      	b	104d26 <.text+0x4d26>
  104d24:	1c10      	mov	r0, r2		(add r0, r2, #0)
  104d26:	1e42      	sub	r2, r0, #1
  104d28:	7811      	ldrb	r1, [r2, #0]
  104d2a:	060b      	lsl	r3, r1, #24
  104d2c:	0e1b      	lsr	r3, r3, #24
  104d2e:	2b39      	cmp	r3, #57
  104d30:	d10a      	bne	104d48 <.text+0x4d48>
  104d32:	9b04      	ldr	r3, [sp, #16]
  104d34:	429a      	cmp	r2, r3
  104d36:	d1f5      	bne	104d24 <.text+0x4d24>
  104d38:	9c1c      	ldr	r4, [sp, #112]
  104d3a:	9d04      	ldr	r5, [sp, #16]
  104d3c:	3401      	add	r4, #1
  104d3e:	2330      	mov	r3, #48
  104d40:	941c      	str	r4, [sp, #112]
  104d42:	702b      	strb	r3, [r5, #0]
  104d44:	9a04      	ldr	r2, [sp, #16]
  104d46:	2130      	mov	r1, #48
  104d48:	1c4b      	add	r3, r1, #1
  104d4a:	4680      	mov	r8, r0
  104d4c:	7013      	strb	r3, [r2, #0]
  104d4e:	e195      	b	10507c <.text+0x507c>
  104d50:	4a07      	ldr	r2, [pc, #28]	(104d70 <.text+0x4d70>)
  104d52:	4654      	mov	r4, sl
  104d54:	00e3      	lsl	r3, r4, #3
  104d56:	189b      	add	r3, r3, r2
  104d58:	681a      	ldr	r2, [r3, #0]
  104d5a:	685b      	ldr	r3, [r3, #4]
  104d5c:	9802      	ldr	r0, [sp, #8]
  104d5e:	9903      	ldr	r1, [sp, #12]
  104d60:	fb1cf006 	bl	10b39c <____ltdf2_from_thumb>
  104d64:	2800      	cmp	r0, #0
  104d66:	da00      	bge	104d6a <.text+0x4d6a>
  104d68:	e10c      	b	104f84 <.text+0x4f84>
  104d6a:	2500      	mov	r5, #0
  104d6c:	950d      	str	r5, [sp, #52]
  104d6e:	e59c      	b	1048aa <_dtoa_r+0x122>
  104d70:	b980      	undefined instruction 0xb980
  104d72:	0010      	lsl	r0, r2, #0
  104d74:	0000      	lsl	r0, r0, #0
  104d76:	3fe0      	sub	r7, #224
  104d78:	0000      	lsl	r0, r0, #0
  104d7a:	0000      	lsl	r0, r0, #0
  104d7c:	0000      	lsl	r0, r0, #0
  104d7e:	3ff0      	sub	r7, #240
  104d80:	0000      	lsl	r0, r0, #0
  104d82:	0000      	lsl	r0, r0, #0
  104d84:	0000      	lsl	r0, r0, #0
  104d86:	4024      	and	r4, r4
	...
  104d94:	990e      	ldr	r1, [sp, #56]
  104d96:	2900      	cmp	r1, #0
  104d98:	d000      	beq	104d9c <.text+0x4d9c>
  104d9a:	e104      	b	104fa6 <.text+0x4fa6>
  104d9c:	9a09      	ldr	r2, [sp, #36]
  104d9e:	2300      	mov	r3, #0
  104da0:	9d08      	ldr	r5, [sp, #32]
  104da2:	931a      	str	r3, [sp, #104]
  104da4:	4690      	mov	r8, r2
  104da6:	2d00      	cmp	r5, #0
  104da8:	dd0d      	ble	104dc6 <.text+0x4dc6>
  104daa:	4659      	mov	r1, fp
  104dac:	2900      	cmp	r1, #0
  104dae:	dd0a      	ble	104dc6 <.text+0x4dc6>
  104db0:	465b      	mov	r3, fp
  104db2:	45ab      	cmp	fp, r5
  104db4:	dd00      	ble	104db8 <.text+0x4db8>
  104db6:	e174      	b	1050a2 <.text+0x50a2>
  104db8:	9a08      	ldr	r2, [sp, #32]
  104dba:	465c      	mov	r4, fp
  104dbc:	1ad2      	sub	r2, r2, r3
  104dbe:	1ae4      	sub	r4, r4, r3
  104dc0:	9208      	str	r2, [sp, #32]
  104dc2:	1aed      	sub	r5, r5, r3
  104dc4:	46a3      	mov	fp, r4
  104dc6:	9909      	ldr	r1, [sp, #36]
  104dc8:	2900      	cmp	r1, #0
  104dca:	dd1d      	ble	104e08 <.text+0x4e08>
  104dcc:	9a0e      	ldr	r2, [sp, #56]
  104dce:	2a00      	cmp	r2, #0
  104dd0:	d100      	bne	104dd4 <.text+0x4dd4>
  104dd2:	e237      	b	105244 <.text+0x5244>
  104dd4:	4643      	mov	r3, r8
  104dd6:	2b00      	cmp	r3, #0
  104dd8:	dd10      	ble	104dfc <.text+0x4dfc>
  104dda:	991a      	ldr	r1, [sp, #104]
  104ddc:	4642      	mov	r2, r8
  104dde:	4648      	mov	r0, r9
  104de0:	fd94f001 	bl	10690c <_pow5mult>
  104de4:	901a      	str	r0, [sp, #104]
  104de6:	991a      	ldr	r1, [sp, #104]
  104de8:	9a11      	ldr	r2, [sp, #68]
  104dea:	4648      	mov	r0, r9
  104dec:	fce8f001 	bl	1067c0 <_multiply>
  104df0:	9911      	ldr	r1, [sp, #68]
  104df2:	1c04      	mov	r4, r0		(add r4, r0, #0)
  104df4:	4648      	mov	r0, r9
  104df6:	fbd3f001 	bl	1065a0 <_Bfree>
  104dfa:	9411      	str	r4, [sp, #68]
  104dfc:	9c09      	ldr	r4, [sp, #36]
  104dfe:	4641      	mov	r1, r8
  104e00:	1a62      	sub	r2, r4, r1
  104e02:	2a00      	cmp	r2, #0
  104e04:	d000      	beq	104e08 <.text+0x4e08>
  104e06:	e178      	b	1050fa <.text+0x50fa>
  104e08:	4648      	mov	r0, r9
  104e0a:	2101      	mov	r1, #1
  104e0c:	fcccf001 	bl	1067a8 <_i2b>
  104e10:	9a0f      	ldr	r2, [sp, #60]
  104e12:	9013      	str	r0, [sp, #76]
  104e14:	2a00      	cmp	r2, #0
  104e16:	dd04      	ble	104e22 <.text+0x4e22>
  104e18:	4648      	mov	r0, r9
  104e1a:	9913      	ldr	r1, [sp, #76]
  104e1c:	fd76f001 	bl	10690c <_pow5mult>
  104e20:	9013      	str	r0, [sp, #76]
  104e22:	9b01      	ldr	r3, [sp, #4]
  104e24:	2b01      	cmp	r3, #1
  104e26:	dc00      	bgt	104e2a <.text+0x4e2a>
  104e28:	e155      	b	1050d6 <.text+0x50d6>
  104e2a:	2400      	mov	r4, #0
  104e2c:	9a0f      	ldr	r2, [sp, #60]
  104e2e:	2a00      	cmp	r2, #0
  104e30:	d000      	beq	104e34 <.text+0x4e34>
  104e32:	e1fd      	b	105230 <.text+0x5230>
  104e34:	2301      	mov	r3, #1
  104e36:	4659      	mov	r1, fp
  104e38:	18ca      	add	r2, r1, r3
  104e3a:	231f      	mov	r3, #31
  104e3c:	401a      	and	r2, r3
  104e3e:	d001      	beq	104e44 <.text+0x4e44>
  104e40:	2320      	mov	r3, #32
  104e42:	1a9a      	sub	r2, r3, r2
  104e44:	2a04      	cmp	r2, #4
  104e46:	dc00      	bgt	104e4a <.text+0x4e4a>
  104e48:	e0a2      	b	104f90 <.text+0x4f90>
  104e4a:	1f13      	sub	r3, r2, #4
  104e4c:	9a08      	ldr	r2, [sp, #32]
  104e4e:	18d2      	add	r2, r2, r3
  104e50:	9208      	str	r2, [sp, #32]
  104e52:	18ed      	add	r5, r5, r3
  104e54:	449b      	add	fp, r3
  104e56:	9a08      	ldr	r2, [sp, #32]
  104e58:	2a00      	cmp	r2, #0
  104e5a:	dd04      	ble	104e66 <.text+0x4e66>
  104e5c:	4648      	mov	r0, r9
  104e5e:	9911      	ldr	r1, [sp, #68]
  104e60:	fda4f001 	bl	1069ac <_lshift>
  104e64:	9011      	str	r0, [sp, #68]
  104e66:	465b      	mov	r3, fp
  104e68:	2b00      	cmp	r3, #0
  104e6a:	dd05      	ble	104e78 <.text+0x4e78>
  104e6c:	4648      	mov	r0, r9
  104e6e:	9913      	ldr	r1, [sp, #76]
  104e70:	465a      	mov	r2, fp
  104e72:	fd9bf001 	bl	1069ac <_lshift>
  104e76:	9013      	str	r0, [sp, #76]
  104e78:	990d      	ldr	r1, [sp, #52]
  104e7a:	2900      	cmp	r1, #0
  104e7c:	d000      	beq	104e80 <.text+0x4e80>
  104e7e:	e112      	b	1050a6 <.text+0x50a6>
  104e80:	4653      	mov	r3, sl
  104e82:	931c      	str	r3, [sp, #112]
  104e84:	990b      	ldr	r1, [sp, #44]
  104e86:	2900      	cmp	r1, #0
  104e88:	dc00      	bgt	104e8c <.text+0x4e8c>
  104e8a:	e1e8      	b	10525e <.text+0x525e>
  104e8c:	9a0e      	ldr	r2, [sp, #56]
  104e8e:	2a00      	cmp	r2, #0
  104e90:	d100      	bne	104e94 <.text+0x4e94>
  104e92:	e0a7      	b	104fe4 <.text+0x4fe4>
  104e94:	2d00      	cmp	r5, #0
  104e96:	dc00      	bgt	104e9a <.text+0x4e9a>
  104e98:	e21e      	b	1052d8 <.text+0x52d8>
  104e9a:	1c2a      	mov	r2, r5		(add r2, r5, #0)
  104e9c:	4648      	mov	r0, r9
  104e9e:	991a      	ldr	r1, [sp, #104]
  104ea0:	fd84f001 	bl	1069ac <_lshift>
  104ea4:	1c05      	mov	r5, r0		(add r5, r0, #0)
  104ea6:	2c00      	cmp	r4, #0
  104ea8:	d000      	beq	104eac <.text+0x4eac>
  104eaa:	e25f      	b	10536c <.text+0x536c>
  104eac:	951a      	str	r5, [sp, #104]
  104eae:	2301      	mov	r3, #1
  104eb0:	403b      	and	r3, r7
  104eb2:	9307      	str	r3, [sp, #28]
  104eb4:	9b04      	ldr	r3, [sp, #16]
  104eb6:	2401      	mov	r4, #1
  104eb8:	9512      	str	r5, [sp, #72]
  104eba:	4698      	mov	r8, r3
  104ebc:	46a3      	mov	fp, r4
  104ebe:	9913      	ldr	r1, [sp, #76]
  104ec0:	9811      	ldr	r0, [sp, #68]
  104ec2:	fbb9f7ff 	bl	104638 <quorem>
  104ec6:	9912      	ldr	r1, [sp, #72]
  104ec8:	1c07      	mov	r7, r0		(add r7, r0, #0)
  104eca:	4682      	mov	sl, r0
  104ecc:	9811      	ldr	r0, [sp, #68]
  104ece:	fdc7f001 	bl	106a60 <__mcmp>
  104ed2:	9913      	ldr	r1, [sp, #76]
  104ed4:	1c05      	mov	r5, r0		(add r5, r0, #0)
  104ed6:	9a1a      	ldr	r2, [sp, #104]
  104ed8:	4648      	mov	r0, r9
  104eda:	fde3f001 	bl	106aa4 <__mdiff>
  104ede:	68c3      	ldr	r3, [r0, #12]
  104ee0:	3730      	add	r7, #48
  104ee2:	1c04      	mov	r4, r0		(add r4, r0, #0)
  104ee4:	2b00      	cmp	r3, #0
  104ee6:	d100      	bne	104eea <.text+0x4eea>
  104ee8:	e16f      	b	1051ca <.text+0x51ca>
  104eea:	2601      	mov	r6, #1
  104eec:	4648      	mov	r0, r9
  104eee:	1c21      	mov	r1, r4		(add r1, r4, #0)
  104ef0:	fb56f001 	bl	1065a0 <_Bfree>
  104ef4:	2e00      	cmp	r6, #0
  104ef6:	d106      	bne	104f06 <.text+0x4f06>
  104ef8:	9901      	ldr	r1, [sp, #4]
  104efa:	2900      	cmp	r1, #0
  104efc:	d103      	bne	104f06 <.text+0x4f06>
  104efe:	9a07      	ldr	r2, [sp, #28]
  104f00:	2a00      	cmp	r2, #0
  104f02:	d100      	bne	104f06 <.text+0x4f06>
  104f04:	e2f5      	b	1054f2 <.text+0x54f2>
  104f06:	2d00      	cmp	r5, #0
  104f08:	da00      	bge	104f0c <.text+0x4f0c>
  104f0a:	e1e7      	b	1052dc <.text+0x52dc>
  104f0c:	2d00      	cmp	r5, #0
  104f0e:	d106      	bne	104f1e <.text+0x4f1e>
  104f10:	9d01      	ldr	r5, [sp, #4]
  104f12:	2d00      	cmp	r5, #0
  104f14:	d103      	bne	104f1e <.text+0x4f1e>
  104f16:	9907      	ldr	r1, [sp, #28]
  104f18:	2900      	cmp	r1, #0
  104f1a:	d100      	bne	104f1e <.text+0x4f1e>
  104f1c:	e1de      	b	1052dc <.text+0x52dc>
  104f1e:	2e00      	cmp	r6, #0
  104f20:	dd00      	ble	104f24 <.text+0x4f24>
  104f22:	e237      	b	105394 <.text+0x5394>
  104f24:	4644      	mov	r4, r8
  104f26:	7027      	strb	r7, [r4, #0]
  104f28:	990b      	ldr	r1, [sp, #44]
  104f2a:	2501      	mov	r5, #1
  104f2c:	44a8      	add	r8, r5
  104f2e:	458b      	cmp	fp, r1
  104f30:	d073      	beq	10501a <.text+0x501a>
  104f32:	220a      	mov	r2, #10
  104f34:	2300      	mov	r3, #0
  104f36:	4648      	mov	r0, r9
  104f38:	9911      	ldr	r1, [sp, #68]
  104f3a:	fb3df001 	bl	1065b8 <_multadd>
  104f3e:	9a1a      	ldr	r2, [sp, #104]
  104f40:	9b12      	ldr	r3, [sp, #72]
  104f42:	9011      	str	r0, [sp, #68]
  104f44:	429a      	cmp	r2, r3
  104f46:	d100      	bne	104f4a <.text+0x4f4a>
  104f48:	e145      	b	1051d6 <.text+0x51d6>
  104f4a:	9912      	ldr	r1, [sp, #72]
  104f4c:	220a      	mov	r2, #10
  104f4e:	2300      	mov	r3, #0
  104f50:	4648      	mov	r0, r9
  104f52:	fb31f001 	bl	1065b8 <_multadd>
  104f56:	991a      	ldr	r1, [sp, #104]
  104f58:	9012      	str	r0, [sp, #72]
  104f5a:	220a      	mov	r2, #10
  104f5c:	4648      	mov	r0, r9
  104f5e:	2300      	mov	r3, #0
  104f60:	fb2af001 	bl	1065b8 <_multadd>
  104f64:	2401      	mov	r4, #1
  104f66:	44a3      	add	fp, r4
  104f68:	901a      	str	r0, [sp, #104]
  104f6a:	e7a8      	b	104ebe <.text+0x4ebe>
  104f6c:	2301      	mov	r3, #1
  104f6e:	930e      	str	r3, [sp, #56]
  104f70:	4640      	mov	r0, r8
  104f72:	425b      	neg	r3, r3
  104f74:	930b      	str	r3, [sp, #44]
  104f76:	930c      	str	r3, [sp, #48]
  104f78:	e509      	b	10498e <_dtoa_r+0x206>
  104f7a:	2320      	mov	r3, #32
  104f7c:	1a5b      	sub	r3, r3, r1
  104f7e:	1c3c      	mov	r4, r7		(add r4, r7, #0)
  104f80:	409c      	lsl	r4, r3
  104f82:	e4eb      	b	10495c <_dtoa_r+0x1d4>
  104f84:	2101      	mov	r1, #1
  104f86:	4249      	neg	r1, r1
  104f88:	2200      	mov	r2, #0
  104f8a:	448a      	add	sl, r1
  104f8c:	920d      	str	r2, [sp, #52]
  104f8e:	e48c      	b	1048aa <_dtoa_r+0x122>
  104f90:	2a03      	cmp	r2, #3
  104f92:	dd00      	ble	104f96 <.text+0x4f96>
  104f94:	e75f      	b	104e56 <.text+0x4e56>
  104f96:	9908      	ldr	r1, [sp, #32]
  104f98:	1c13      	mov	r3, r2		(add r3, r2, #0)
  104f9a:	331c      	add	r3, #28
  104f9c:	18c9      	add	r1, r1, r3
  104f9e:	18ed      	add	r5, r5, r3
  104fa0:	449b      	add	fp, r3
  104fa2:	9108      	str	r1, [sp, #32]
  104fa4:	e757      	b	104e56 <.text+0x4e56>
  104fa6:	9c01      	ldr	r4, [sp, #4]
  104fa8:	2c01      	cmp	r4, #1
  104faa:	dc00      	bgt	104fae <.text+0x4fae>
  104fac:	e0e1      	b	105172 <.text+0x5172>
  104fae:	9a0b      	ldr	r2, [sp, #44]
  104fb0:	9d09      	ldr	r5, [sp, #36]
  104fb2:	3a01      	sub	r2, #1
  104fb4:	4295      	cmp	r5, r2
  104fb6:	da00      	bge	104fba <.text+0x4fba>
  104fb8:	e180      	b	1052bc <.text+0x52bc>
  104fba:	1aad      	sub	r5, r5, r2
  104fbc:	46a8      	mov	r8, r5
  104fbe:	9c0b      	ldr	r4, [sp, #44]
  104fc0:	2c00      	cmp	r4, #0
  104fc2:	da00      	bge	104fc6 <.text+0x4fc6>
  104fc4:	e258      	b	105478 <.text+0x5478>
  104fc6:	9d08      	ldr	r5, [sp, #32]
  104fc8:	1c23      	mov	r3, r4		(add r3, r4, #0)
  104fca:	9c08      	ldr	r4, [sp, #32]
  104fcc:	4648      	mov	r0, r9
  104fce:	18e4      	add	r4, r4, r3
  104fd0:	2101      	mov	r1, #1
  104fd2:	9408      	str	r4, [sp, #32]
  104fd4:	449b      	add	fp, r3
  104fd6:	fbe7f001 	bl	1067a8 <_i2b>
  104fda:	901a      	str	r0, [sp, #104]
  104fdc:	e6e3      	b	104da6 <.text+0x4da6>
  104fde:	48d9      	ldr	r0, [pc, #868]	(105344 <.text+0x5344>)
  104fe0:	fc0ef7ff 	bl	104800 <_dtoa_r+0x78>
  104fe4:	9d04      	ldr	r5, [sp, #16]
  104fe6:	2401      	mov	r4, #1
  104fe8:	46a8      	mov	r8, r5
  104fea:	e007      	b	104ffc <.text+0x4ffc>
  104fec:	4648      	mov	r0, r9
  104fee:	9911      	ldr	r1, [sp, #68]
  104ff0:	220a      	mov	r2, #10
  104ff2:	2300      	mov	r3, #0
  104ff4:	fae0f001 	bl	1065b8 <_multadd>
  104ff8:	9011      	str	r0, [sp, #68]
  104ffa:	3401      	add	r4, #1
  104ffc:	9913      	ldr	r1, [sp, #76]
  104ffe:	9811      	ldr	r0, [sp, #68]
  105000:	fb1af7ff 	bl	104638 <quorem>
  105004:	1c07      	mov	r7, r0		(add r7, r0, #0)
  105006:	4641      	mov	r1, r8
  105008:	3730      	add	r7, #48
  10500a:	700f      	strb	r7, [r1, #0]
  10500c:	9b0b      	ldr	r3, [sp, #44]
  10500e:	2201      	mov	r2, #1
  105010:	4490      	add	r8, r2
  105012:	429c      	cmp	r4, r3
  105014:	dbea      	blt	104fec <.text+0x4fec>
  105016:	2400      	mov	r4, #0
  105018:	9412      	str	r4, [sp, #72]
  10501a:	9911      	ldr	r1, [sp, #68]
  10501c:	4648      	mov	r0, r9
  10501e:	2201      	mov	r2, #1
  105020:	fcc4f001 	bl	1069ac <_lshift>
  105024:	9913      	ldr	r1, [sp, #76]
  105026:	9011      	str	r0, [sp, #68]
  105028:	fd1af001 	bl	106a60 <__mcmp>
  10502c:	2800      	cmp	r0, #0
  10502e:	dd6a      	ble	105106 <.text+0x5106>
  105030:	4641      	mov	r1, r8
  105032:	e000      	b	105036 <.text+0x5036>
  105034:	1c11      	mov	r1, r2		(add r1, r2, #0)
  105036:	1e4a      	sub	r2, r1, #1
  105038:	7813      	ldrb	r3, [r2, #0]
  10503a:	2b39      	cmp	r3, #57
  10503c:	d000      	beq	105040 <.text+0x5040>
  10503e:	e147      	b	1052d0 <.text+0x52d0>
  105040:	9904      	ldr	r1, [sp, #16]
  105042:	4291      	cmp	r1, r2
  105044:	d1f6      	bne	105034 <.text+0x5034>
  105046:	9a1c      	ldr	r2, [sp, #112]
  105048:	9c04      	ldr	r4, [sp, #16]
  10504a:	3201      	add	r2, #1
  10504c:	2331      	mov	r3, #49
  10504e:	921c      	str	r2, [sp, #112]
  105050:	7023      	strb	r3, [r4, #0]
  105052:	3401      	add	r4, #1
  105054:	46a0      	mov	r8, r4
  105056:	4648      	mov	r0, r9
  105058:	9913      	ldr	r1, [sp, #76]
  10505a:	faa1f001 	bl	1065a0 <_Bfree>
  10505e:	9d1a      	ldr	r5, [sp, #104]
  105060:	2d00      	cmp	r5, #0
  105062:	d00b      	beq	10507c <.text+0x507c>
  105064:	9912      	ldr	r1, [sp, #72]
  105066:	2900      	cmp	r1, #0
  105068:	d004      	beq	105074 <.text+0x5074>
  10506a:	42a9      	cmp	r1, r5
  10506c:	d002      	beq	105074 <.text+0x5074>
  10506e:	4648      	mov	r0, r9
  105070:	fa96f001 	bl	1065a0 <_Bfree>
  105074:	4648      	mov	r0, r9
  105076:	991a      	ldr	r1, [sp, #104]
  105078:	fa92f001 	bl	1065a0 <_Bfree>
  10507c:	9911      	ldr	r1, [sp, #68]
  10507e:	4648      	mov	r0, r9
  105080:	fa8ef001 	bl	1065a0 <_Bfree>
  105084:	2300      	mov	r3, #0
  105086:	4641      	mov	r1, r8
  105088:	700b      	strb	r3, [r1, #0]
  10508a:	9b1c      	ldr	r3, [sp, #112]
  10508c:	9a29      	ldr	r2, [sp, #164]
  10508e:	3301      	add	r3, #1
  105090:	6013      	str	r3, [r2, #0]
  105092:	9b2b      	ldr	r3, [sp, #172]
  105094:	2b00      	cmp	r3, #0
  105096:	d001      	beq	10509c <.text+0x509c>
  105098:	9d2b      	ldr	r5, [sp, #172]
  10509a:	6029      	str	r1, [r5, #0]
  10509c:	9804      	ldr	r0, [sp, #16]
  10509e:	fbaff7ff 	bl	104800 <_dtoa_r+0x78>
  1050a2:	1c2b      	mov	r3, r5		(add r3, r5, #0)
  1050a4:	e688      	b	104db8 <.text+0x4db8>
  1050a6:	9811      	ldr	r0, [sp, #68]
  1050a8:	9913      	ldr	r1, [sp, #76]
  1050aa:	fcd9f001 	bl	106a60 <__mcmp>
  1050ae:	2800      	cmp	r0, #0
  1050b0:	db00      	blt	1050b4 <.text+0x50b4>
  1050b2:	e6e5      	b	104e80 <.text+0x4e80>
  1050b4:	4652      	mov	r2, sl
  1050b6:	3a01      	sub	r2, #1
  1050b8:	921c      	str	r2, [sp, #112]
  1050ba:	2300      	mov	r3, #0
  1050bc:	4648      	mov	r0, r9
  1050be:	9911      	ldr	r1, [sp, #68]
  1050c0:	220a      	mov	r2, #10
  1050c2:	fa79f001 	bl	1065b8 <_multadd>
  1050c6:	9b0e      	ldr	r3, [sp, #56]
  1050c8:	9011      	str	r0, [sp, #68]
  1050ca:	2b00      	cmp	r3, #0
  1050cc:	d000      	beq	1050d0 <.text+0x50d0>
  1050ce:	e21f      	b	105510 <.text+0x5510>
  1050d0:	990c      	ldr	r1, [sp, #48]
  1050d2:	910b      	str	r1, [sp, #44]
  1050d4:	e6d6      	b	104e84 <.text+0x4e84>
  1050d6:	2f00      	cmp	r7, #0
  1050d8:	d000      	beq	1050dc <.text+0x50dc>
  1050da:	e6a6      	b	104e2a <.text+0x4e2a>
  1050dc:	4b9a      	ldr	r3, [pc, #616]	(105348 <.text+0x5348>)
  1050de:	421e      	tst	r6, r3
  1050e0:	d000      	beq	1050e4 <.text+0x50e4>
  1050e2:	e6a2      	b	104e2a <.text+0x4e2a>
  1050e4:	4b99      	ldr	r3, [pc, #612]	(10534c <.text+0x534c>)
  1050e6:	421e      	tst	r6, r3
  1050e8:	d100      	bne	1050ec <.text+0x50ec>
  1050ea:	e69e      	b	104e2a <.text+0x4e2a>
  1050ec:	9c08      	ldr	r4, [sp, #32]
  1050ee:	2101      	mov	r1, #1
  1050f0:	3401      	add	r4, #1
  1050f2:	9408      	str	r4, [sp, #32]
  1050f4:	448b      	add	fp, r1
  1050f6:	2401      	mov	r4, #1
  1050f8:	e698      	b	104e2c <.text+0x4e2c>
  1050fa:	4648      	mov	r0, r9
  1050fc:	9911      	ldr	r1, [sp, #68]
  1050fe:	fc05f001 	bl	10690c <_pow5mult>
  105102:	9011      	str	r0, [sp, #68]
  105104:	e680      	b	104e08 <.text+0x4e08>
  105106:	2800      	cmp	r0, #0
  105108:	d103      	bne	105112 <.text+0x5112>
  10510a:	07fd      	lsl	r5, r7, #31
  10510c:	d490      	bmi	105030 <.text+0x5030>
  10510e:	e000      	b	105112 <.text+0x5112>
  105110:	4690      	mov	r8, r2
  105112:	4642      	mov	r2, r8
  105114:	3a01      	sub	r2, #1
  105116:	7813      	ldrb	r3, [r2, #0]
  105118:	2b30      	cmp	r3, #48
  10511a:	d0f9      	beq	105110 <.text+0x5110>
  10511c:	e79b      	b	105056 <.text+0x5056>
  10511e:	4655      	mov	r5, sl
  105120:	426c      	neg	r4, r5
  105122:	2c00      	cmp	r4, #0
  105124:	d100      	bne	105128 <.text+0x5128>
  105126:	e1ac      	b	105482 <.text+0x5482>
  105128:	230f      	mov	r3, #15
  10512a:	4a89      	ldr	r2, [pc, #548]	(105350 <.text+0x5350>)
  10512c:	4023      	and	r3, r4
  10512e:	00db      	lsl	r3, r3, #3
  105130:	189b      	add	r3, r3, r2
  105132:	681a      	ldr	r2, [r3, #0]
  105134:	685b      	ldr	r3, [r3, #4]
  105136:	9802      	ldr	r0, [sp, #8]
  105138:	9903      	ldr	r1, [sp, #12]
  10513a:	f93ff006 	bl	10b3bc <____muldf3_from_thumb>
  10513e:	1124      	asr	r4, r4, #4
  105140:	1c06      	mov	r6, r0		(add r6, r0, #0)
  105142:	1c0f      	mov	r7, r1		(add r7, r1, #0)
  105144:	2c00      	cmp	r4, #0
  105146:	d100      	bne	10514a <.text+0x514a>
  105148:	e19b      	b	105482 <.text+0x5482>
  10514a:	2202      	mov	r2, #2
  10514c:	920a      	str	r2, [sp, #40]
  10514e:	4d81      	ldr	r5, [pc, #516]	(105354 <.text+0x5354>)
  105150:	2601      	mov	r6, #1
  105152:	4234      	tst	r4, r6
  105154:	d006      	beq	105164 <.text+0x5164>
  105156:	9b0a      	ldr	r3, [sp, #40]
  105158:	3301      	add	r3, #1
  10515a:	930a      	str	r3, [sp, #40]
  10515c:	682a      	ldr	r2, [r5, #0]
  10515e:	686b      	ldr	r3, [r5, #4]
  105160:	f92cf006 	bl	10b3bc <____muldf3_from_thumb>
  105164:	1064      	asr	r4, r4, #1
  105166:	3508      	add	r5, #8
  105168:	2c00      	cmp	r4, #0
  10516a:	d1f2      	bne	105152 <.text+0x5152>
  10516c:	1c06      	mov	r6, r0		(add r6, r0, #0)
  10516e:	1c0f      	mov	r7, r1		(add r7, r1, #0)
  105170:	e45f      	b	104a32 <_dtoa_r+0x2aa>
  105172:	9d10      	ldr	r5, [sp, #64]
  105174:	2d00      	cmp	r5, #0
  105176:	d100      	bne	10517a <.text+0x517a>
  105178:	e1a9      	b	1054ce <.text+0x54ce>
  10517a:	4977      	ldr	r1, [pc, #476]	(105358 <.text+0x5358>)
  10517c:	9a09      	ldr	r2, [sp, #36]
  10517e:	9d08      	ldr	r5, [sp, #32]
  105180:	185b      	add	r3, r3, r1
  105182:	4690      	mov	r8, r2
  105184:	e721      	b	104fca <.text+0x4fca>
  105186:	2501      	mov	r5, #1
  105188:	950e      	str	r5, [sp, #56]
  10518a:	9928      	ldr	r1, [sp, #160]
  10518c:	4451      	add	r1, sl
  10518e:	1c0b      	mov	r3, r1		(add r3, r1, #0)
  105190:	3301      	add	r3, #1
  105192:	910c      	str	r1, [sp, #48]
  105194:	2b00      	cmp	r3, #0
  105196:	dc00      	bgt	10519a <.text+0x519a>
  105198:	e1a7      	b	1054ea <.text+0x54ea>
  10519a:	1c18      	mov	r0, r3		(add r0, r3, #0)
  10519c:	930b      	str	r3, [sp, #44]
  10519e:	fbf6f7ff 	bl	10498e <_dtoa_r+0x206>
  1051a2:	2100      	mov	r1, #0
  1051a4:	910e      	str	r1, [sp, #56]
  1051a6:	9a28      	ldr	r2, [sp, #160]
  1051a8:	2a00      	cmp	r2, #0
  1051aa:	dc00      	bgt	1051ae <.text+0x51ae>
  1051ac:	e196      	b	1054dc <.text+0x54dc>
  1051ae:	9828      	ldr	r0, [sp, #160]
  1051b0:	900c      	str	r0, [sp, #48]
  1051b2:	900b      	str	r0, [sp, #44]
  1051b4:	fbebf7ff 	bl	10498e <_dtoa_r+0x206>
  1051b8:	2500      	mov	r5, #0
  1051ba:	950e      	str	r5, [sp, #56]
  1051bc:	e7e5      	b	10518a <.text+0x518a>
  1051be:	2101      	mov	r1, #1
  1051c0:	910e      	str	r1, [sp, #56]
  1051c2:	e7f0      	b	1051a6 <.text+0x51a6>
  1051c4:	4652      	mov	r2, sl
  1051c6:	921c      	str	r2, [sp, #112]
  1051c8:	e758      	b	10507c <.text+0x507c>
  1051ca:	9811      	ldr	r0, [sp, #68]
  1051cc:	1c21      	mov	r1, r4		(add r1, r4, #0)
  1051ce:	fc47f001 	bl	106a60 <__mcmp>
  1051d2:	1c06      	mov	r6, r0		(add r6, r0, #0)
  1051d4:	e68a      	b	104eec <.text+0x4eec>
  1051d6:	1c11      	mov	r1, r2		(add r1, r2, #0)
  1051d8:	4648      	mov	r0, r9
  1051da:	220a      	mov	r2, #10
  1051dc:	2300      	mov	r3, #0
  1051de:	f9ebf001 	bl	1065b8 <_multadd>
  1051e2:	2401      	mov	r4, #1
  1051e4:	44a3      	add	fp, r4
  1051e6:	901a      	str	r0, [sp, #104]
  1051e8:	9012      	str	r0, [sp, #72]
  1051ea:	e668      	b	104ebe <.text+0x4ebe>
  1051ec:	4650      	mov	r0, sl
  1051ee:	f8ddf006 	bl	10b3ac <____floatsidf_from_thumb>
  1051f2:	1c02      	mov	r2, r0		(add r2, r0, #0)
  1051f4:	1c0b      	mov	r3, r1		(add r3, r1, #0)
  1051f6:	1c20      	mov	r0, r4		(add r0, r4, #0)
  1051f8:	1c29      	mov	r1, r5		(add r1, r5, #0)
  1051fa:	f8f7f006 	bl	10b3ec <____nedf2_from_thumb>
  1051fe:	2800      	cmp	r0, #0
  105200:	d101      	bne	105206 <.text+0x5206>
  105202:	fb4cf7ff 	bl	10489e <_dtoa_r+0x116>
  105206:	2401      	mov	r4, #1
  105208:	4264      	neg	r4, r4
  10520a:	44a2      	add	sl, r4
  10520c:	fb47f7ff 	bl	10489e <_dtoa_r+0x116>
  105210:	9a08      	ldr	r2, [sp, #32]
  105212:	4653      	mov	r3, sl
  105214:	1ad2      	sub	r2, r2, r3
  105216:	2400      	mov	r4, #0
  105218:	425b      	neg	r3, r3
  10521a:	9208      	str	r2, [sp, #32]
  10521c:	9309      	str	r3, [sp, #36]
  10521e:	940f      	str	r4, [sp, #60]
  105220:	fb56f7ff 	bl	1048d0 <_dtoa_r+0x148>
  105224:	4252      	neg	r2, r2
  105226:	9208      	str	r2, [sp, #32]
  105228:	2200      	mov	r2, #0
  10522a:	4693      	mov	fp, r2
  10522c:	fb47f7ff 	bl	1048be <_dtoa_r+0x136>
  105230:	9913      	ldr	r1, [sp, #76]
  105232:	690b      	ldr	r3, [r1, #16]
  105234:	009b      	lsl	r3, r3, #2
  105236:	185b      	add	r3, r3, r1
  105238:	6918      	ldr	r0, [r3, #16]
  10523a:	fa5bf001 	bl	1066f4 <_hi0bits>
  10523e:	2320      	mov	r3, #32
  105240:	1a1b      	sub	r3, r3, r0
  105242:	e5f8      	b	104e36 <.text+0x4e36>
  105244:	4648      	mov	r0, r9
  105246:	9911      	ldr	r1, [sp, #68]
  105248:	9a09      	ldr	r2, [sp, #36]
  10524a:	fb5ff001 	bl	10690c <_pow5mult>
  10524e:	9011      	str	r0, [sp, #68]
  105250:	e5da      	b	104e08 <.text+0x4e08>
  105252:	4a42      	ldr	r2, [pc, #264]	(10535c <.text+0x535c>)
  105254:	4b42      	ldr	r3, [pc, #264]	(105360 <.text+0x5360>)
  105256:	f8b9f006 	bl	10b3cc <____adddf3_from_thumb>
  10525a:	fb86f7ff 	bl	10496a <_dtoa_r+0x1e2>
  10525e:	9a01      	ldr	r2, [sp, #4]
  105260:	2a02      	cmp	r2, #2
  105262:	dc00      	bgt	105266 <.text+0x5266>
  105264:	e612      	b	104e8c <.text+0x4e8c>
  105266:	2900      	cmp	r1, #0
  105268:	da00      	bge	10526c <.text+0x526c>
  10526a:	e422      	b	104ab2 <_dtoa_r+0x32a>
  10526c:	9913      	ldr	r1, [sp, #76]
  10526e:	4648      	mov	r0, r9
  105270:	2205      	mov	r2, #5
  105272:	2300      	mov	r3, #0
  105274:	f9a0f001 	bl	1065b8 <_multadd>
  105278:	9013      	str	r0, [sp, #76]
  10527a:	9913      	ldr	r1, [sp, #76]
  10527c:	9811      	ldr	r0, [sp, #68]
  10527e:	fbeff001 	bl	106a60 <__mcmp>
  105282:	2800      	cmp	r0, #0
  105284:	dc01      	bgt	10528a <.text+0x528a>
  105286:	fc14f7ff 	bl	104ab2 <_dtoa_r+0x32a>
  10528a:	9c04      	ldr	r4, [sp, #16]
  10528c:	2331      	mov	r3, #49
  10528e:	7023      	strb	r3, [r4, #0]
  105290:	9d1c      	ldr	r5, [sp, #112]
  105292:	3401      	add	r4, #1
  105294:	3501      	add	r5, #1
  105296:	2100      	mov	r1, #0
  105298:	46a0      	mov	r8, r4
  10529a:	951c      	str	r5, [sp, #112]
  10529c:	9112      	str	r1, [sp, #72]
  10529e:	e6da      	b	105056 <.text+0x5056>
  1052a0:	4b2c      	ldr	r3, [pc, #176]	(105354 <.text+0x5354>)
  1052a2:	400c      	and	r4, r1
  1052a4:	6a1a      	ldr	r2, [r3, #32]
  1052a6:	6a5b      	ldr	r3, [r3, #36]
  1052a8:	9802      	ldr	r0, [sp, #8]
  1052aa:	9903      	ldr	r1, [sp, #12]
  1052ac:	f8a2f006 	bl	10b3f4 <____divdf3_from_thumb>
  1052b0:	2503      	mov	r5, #3
  1052b2:	1c06      	mov	r6, r0		(add r6, r0, #0)
  1052b4:	1c0f      	mov	r7, r1		(add r7, r1, #0)
  1052b6:	950a      	str	r5, [sp, #40]
  1052b8:	fb9cf7ff 	bl	1049f4 <_dtoa_r+0x26c>
  1052bc:	9909      	ldr	r1, [sp, #36]
  1052be:	1a53      	sub	r3, r2, r1
  1052c0:	9a0f      	ldr	r2, [sp, #60]
  1052c2:	18c9      	add	r1, r1, r3
  1052c4:	18d2      	add	r2, r2, r3
  1052c6:	2300      	mov	r3, #0
  1052c8:	4698      	mov	r8, r3
  1052ca:	920f      	str	r2, [sp, #60]
  1052cc:	9109      	str	r1, [sp, #36]
  1052ce:	e676      	b	104fbe <.text+0x4fbe>
  1052d0:	3301      	add	r3, #1
  1052d2:	4688      	mov	r8, r1
  1052d4:	7013      	strb	r3, [r2, #0]
  1052d6:	e6be      	b	105056 <.text+0x5056>
  1052d8:	9d1a      	ldr	r5, [sp, #104]
  1052da:	e5e4      	b	104ea6 <.text+0x4ea6>
  1052dc:	2e00      	cmp	r6, #0
  1052de:	dd10      	ble	105302 <.text+0x5302>
  1052e0:	9911      	ldr	r1, [sp, #68]
  1052e2:	4648      	mov	r0, r9
  1052e4:	2201      	mov	r2, #1
  1052e6:	fb61f001 	bl	1069ac <_lshift>
  1052ea:	9913      	ldr	r1, [sp, #76]
  1052ec:	9011      	str	r0, [sp, #68]
  1052ee:	fbb7f001 	bl	106a60 <__mcmp>
  1052f2:	2800      	cmp	r0, #0
  1052f4:	dc00      	bgt	1052f8 <.text+0x52f8>
  1052f6:	e104      	b	105502 <.text+0x5502>
  1052f8:	4657      	mov	r7, sl
  1052fa:	3731      	add	r7, #49
  1052fc:	2f3a      	cmp	r7, #58
  1052fe:	d100      	bne	105302 <.text+0x5302>
  105300:	e0c3      	b	10548a <.text+0x548a>
  105302:	2401      	mov	r4, #1
  105304:	4643      	mov	r3, r8
  105306:	44a0      	add	r8, r4
  105308:	701f      	strb	r7, [r3, #0]
  10530a:	e6a4      	b	105056 <.text+0x5056>
  10530c:	9b0b      	ldr	r3, [sp, #44]
  10530e:	2b00      	cmp	r3, #0
  105310:	dd00      	ble	105314 <.text+0x5314>
  105312:	e4af      	b	104c74 <.text+0x4c74>
  105314:	9a0b      	ldr	r2, [sp, #44]
  105316:	2a00      	cmp	r2, #0
  105318:	da01      	bge	10531e <.text+0x531e>
  10531a:	fbc7f7ff 	bl	104aac <_dtoa_r+0x324>
  10531e:	4a11      	ldr	r2, [pc, #68]	(105364 <.text+0x5364>)
  105320:	4b11      	ldr	r3, [pc, #68]	(105368 <.text+0x5368>)
  105322:	9818      	ldr	r0, [sp, #96]
  105324:	9919      	ldr	r1, [sp, #100]
  105326:	f849f006 	bl	10b3bc <____muldf3_from_thumb>
  10532a:	1c32      	mov	r2, r6		(add r2, r6, #0)
  10532c:	1c3b      	mov	r3, r7		(add r3, r7, #0)
  10532e:	f855f006 	bl	10b3dc <____gedf2_from_thumb>
  105332:	2800      	cmp	r0, #0
  105334:	db01      	blt	10533a <.text+0x533a>
  105336:	fbb9f7ff 	bl	104aac <_dtoa_r+0x324>
  10533a:	2100      	mov	r1, #0
  10533c:	941c      	str	r4, [sp, #112]
  10533e:	911a      	str	r1, [sp, #104]
  105340:	9113      	str	r1, [sp, #76]
  105342:	e7a2      	b	10528a <.text+0x528a>
  105344:	b89c      	undefined instruction 0xb89c
  105346:	0010      	lsl	r0, r2, #0
  105348:	ffff      	second half of BL instruction 0xffff
  10534a:	000f      	lsl	r7, r1, #0
  10534c:	0000      	lsl	r0, r0, #0
  10534e:	7ff0      	ldrb	r0, [r6, #31]
  105350:	b980      	undefined instruction 0xb980
  105352:	0010      	lsl	r0, r2, #0
  105354:	b958      	undefined instruction 0xb958
  105356:	0010      	lsl	r0, r2, #0
  105358:	0433      	lsl	r3, r6, #16
  10535a:	0000      	lsl	r0, r0, #0
  10535c:	0000      	lsl	r0, r0, #0
  10535e:	41f0      	ror	r0, r6
  105360:	0000      	lsl	r0, r0, #0
  105362:	0000      	lsl	r0, r0, #0
  105364:	0000      	lsl	r0, r0, #0
  105366:	4014      	and	r4, r2
  105368:	0000      	lsl	r0, r0, #0
  10536a:	0000      	lsl	r0, r0, #0
  10536c:	6869      	ldr	r1, [r5, #4]
  10536e:	4648      	mov	r0, r9
  105370:	f8eaf001 	bl	106548 <_Balloc>
  105374:	692a      	ldr	r2, [r5, #16]
  105376:	1c29      	mov	r1, r5		(add r1, r5, #0)
  105378:	0092      	lsl	r2, r2, #2
  10537a:	1c04      	mov	r4, r0		(add r4, r0, #0)
  10537c:	310c      	add	r1, #12
  10537e:	3208      	add	r2, #8
  105380:	300c      	add	r0, #12
  105382:	f93df7fd 	bl	102600 <memcpy>
  105386:	4648      	mov	r0, r9
  105388:	1c21      	mov	r1, r4		(add r1, r4, #0)
  10538a:	2201      	mov	r2, #1
  10538c:	fb0ef001 	bl	1069ac <_lshift>
  105390:	901a      	str	r0, [sp, #104]
  105392:	e58c      	b	104eae <.text+0x4eae>
  105394:	2f39      	cmp	r7, #57
  105396:	d078      	beq	10548a <.text+0x548a>
  105398:	1c7b      	add	r3, r7, #1
  10539a:	4642      	mov	r2, r8
  10539c:	7013      	strb	r3, [r2, #0]
  10539e:	2301      	mov	r3, #1
  1053a0:	4498      	add	r8, r3
  1053a2:	e658      	b	105056 <.text+0x5056>
  1053a4:	2200      	mov	r2, #0
  1053a6:	921a      	str	r2, [sp, #104]
  1053a8:	9213      	str	r2, [sp, #76]
  1053aa:	e76e      	b	10528a <.text+0x528a>
  1053ac:	991b      	ldr	r1, [sp, #108]
  1053ae:	4a5f      	ldr	r2, [pc, #380]	(10552c <.text+0x552c>)
  1053b0:	00cb      	lsl	r3, r1, #3
  1053b2:	189b      	add	r3, r3, r2
  1053b4:	3b08      	sub	r3, #8
  1053b6:	1c22      	mov	r2, r4		(add r2, r4, #0)
  1053b8:	6818      	ldr	r0, [r3, #0]
  1053ba:	6859      	ldr	r1, [r3, #4]
  1053bc:	1c2b      	mov	r3, r5		(add r3, r5, #0)
  1053be:	fffdf005 	bl	10b3bc <____muldf3_from_thumb>
  1053c2:	9005      	str	r0, [sp, #20]
  1053c4:	9106      	str	r1, [sp, #24]
  1053c6:	1c30      	mov	r0, r6		(add r0, r6, #0)
  1053c8:	1c39      	mov	r1, r7		(add r1, r7, #0)
  1053ca:	ffebf005 	bl	10b3a4 <____fixdfsi_from_thumb>
  1053ce:	1c04      	mov	r4, r0		(add r4, r0, #0)
  1053d0:	ffecf005 	bl	10b3ac <____floatsidf_from_thumb>
  1053d4:	1c02      	mov	r2, r0		(add r2, r0, #0)
  1053d6:	1c0b      	mov	r3, r1		(add r3, r1, #0)
  1053d8:	1c30      	mov	r0, r6		(add r0, r6, #0)
  1053da:	1c39      	mov	r1, r7		(add r1, r7, #0)
  1053dc:	ffeaf005 	bl	10b3b4 <____subdf3_from_thumb>
  1053e0:	9a04      	ldr	r2, [sp, #16]
  1053e2:	3430      	add	r4, #48
  1053e4:	7014      	strb	r4, [r2, #0]
  1053e6:	9b1b      	ldr	r3, [sp, #108]
  1053e8:	3201      	add	r2, #1
  1053ea:	1c05      	mov	r5, r0		(add r5, r0, #0)
  1053ec:	1c0e      	mov	r6, r1		(add r6, r1, #0)
  1053ee:	4690      	mov	r8, r2
  1053f0:	2b01      	cmp	r3, #1
  1053f2:	d01e      	beq	105432 <.text+0x5432>
  1053f4:	2701      	mov	r7, #1
  1053f6:	4a4e      	ldr	r2, [pc, #312]	(105530 <.text+0x5530>)
  1053f8:	4b4e      	ldr	r3, [pc, #312]	(105534 <.text+0x5534>)
  1053fa:	1c28      	mov	r0, r5		(add r0, r5, #0)
  1053fc:	1c31      	mov	r1, r6		(add r1, r6, #0)
  1053fe:	ffddf005 	bl	10b3bc <____muldf3_from_thumb>
  105402:	1c0e      	mov	r6, r1		(add r6, r1, #0)
  105404:	1c05      	mov	r5, r0		(add r5, r0, #0)
  105406:	ffcdf005 	bl	10b3a4 <____fixdfsi_from_thumb>
  10540a:	1c04      	mov	r4, r0		(add r4, r0, #0)
  10540c:	ffcef005 	bl	10b3ac <____floatsidf_from_thumb>
  105410:	1c02      	mov	r2, r0		(add r2, r0, #0)
  105412:	1c0b      	mov	r3, r1		(add r3, r1, #0)
  105414:	1c28      	mov	r0, r5		(add r0, r5, #0)
  105416:	1c31      	mov	r1, r6		(add r1, r6, #0)
  105418:	ffccf005 	bl	10b3b4 <____subdf3_from_thumb>
  10541c:	3430      	add	r4, #48
  10541e:	1c0e      	mov	r6, r1		(add r6, r1, #0)
  105420:	4641      	mov	r1, r8
  105422:	700c      	strb	r4, [r1, #0]
  105424:	9b1b      	ldr	r3, [sp, #108]
  105426:	2201      	mov	r2, #1
  105428:	3701      	add	r7, #1
  10542a:	1c05      	mov	r5, r0		(add r5, r0, #0)
  10542c:	4490      	add	r8, r2
  10542e:	42bb      	cmp	r3, r7
  105430:	d1e1      	bne	1053f6 <.text+0x53f6>
  105432:	4a41      	ldr	r2, [pc, #260]	(105538 <.text+0x5538>)
  105434:	4b41      	ldr	r3, [pc, #260]	(10553c <.text+0x553c>)
  105436:	9805      	ldr	r0, [sp, #20]
  105438:	9906      	ldr	r1, [sp, #24]
  10543a:	ffc7f005 	bl	10b3cc <____adddf3_from_thumb>
  10543e:	1c2a      	mov	r2, r5		(add r2, r5, #0)
  105440:	1c33      	mov	r3, r6		(add r3, r6, #0)
  105442:	ffabf005 	bl	10b39c <____ltdf2_from_thumb>
  105446:	2800      	cmp	r0, #0
  105448:	da00      	bge	10544c <.text+0x544c>
  10544a:	e469      	b	104d20 <.text+0x4d20>
  10544c:	9a05      	ldr	r2, [sp, #20]
  10544e:	9b06      	ldr	r3, [sp, #24]
  105450:	4839      	ldr	r0, [pc, #228]	(105538 <.text+0x5538>)
  105452:	493a      	ldr	r1, [pc, #232]	(10553c <.text+0x553c>)
  105454:	ffaef005 	bl	10b3b4 <____subdf3_from_thumb>
  105458:	1c2a      	mov	r2, r5		(add r2, r5, #0)
  10545a:	1c33      	mov	r3, r6		(add r3, r6, #0)
  10545c:	ffbaf005 	bl	10b3d4 <____gtdf2_from_thumb>
  105460:	2800      	cmp	r0, #0
  105462:	dc01      	bgt	105468 <.text+0x5468>
  105464:	fbf1f7ff 	bl	104c4a <.text+0x4c4a>
  105468:	e000      	b	10546c <.text+0x546c>
  10546a:	4690      	mov	r8, r2
  10546c:	4642      	mov	r2, r8
  10546e:	3a01      	sub	r2, #1
  105470:	7813      	ldrb	r3, [r2, #0]
  105472:	2b30      	cmp	r3, #48
  105474:	d0f9      	beq	10546a <.text+0x546a>
  105476:	e601      	b	10507c <.text+0x507c>
  105478:	9908      	ldr	r1, [sp, #32]
  10547a:	9a0b      	ldr	r2, [sp, #44]
  10547c:	2300      	mov	r3, #0
  10547e:	1a8d      	sub	r5, r1, r2
  105480:	e5a3      	b	104fca <.text+0x4fca>
  105482:	2402      	mov	r4, #2
  105484:	940a      	str	r4, [sp, #40]
  105486:	fad4f7ff 	bl	104a32 <_dtoa_r+0x2aa>
  10548a:	2101      	mov	r1, #1
  10548c:	4645      	mov	r5, r8
  10548e:	2339      	mov	r3, #57
  105490:	4488      	add	r8, r1
  105492:	702b      	strb	r3, [r5, #0]
  105494:	e5cc      	b	105030 <.text+0x5030>
  105496:	990b      	ldr	r1, [sp, #44]
  105498:	2900      	cmp	r1, #0
  10549a:	dc01      	bgt	1054a0 <.text+0x54a0>
  10549c:	fad6f7ff 	bl	104a4c <_dtoa_r+0x2c4>
  1054a0:	9a0c      	ldr	r2, [sp, #48]
  1054a2:	2a00      	cmp	r2, #0
  1054a4:	dc01      	bgt	1054aa <.text+0x54aa>
  1054a6:	fbd0f7ff 	bl	104c4a <.text+0x4c4a>
  1054aa:	4653      	mov	r3, sl
  1054ac:	3b01      	sub	r3, #1
  1054ae:	931c      	str	r3, [sp, #112]
  1054b0:	1c30      	mov	r0, r6		(add r0, r6, #0)
  1054b2:	1c39      	mov	r1, r7		(add r1, r7, #0)
  1054b4:	4a1e      	ldr	r2, [pc, #120]	(105530 <.text+0x5530>)
  1054b6:	4b1f      	ldr	r3, [pc, #124]	(105534 <.text+0x5534>)
  1054b8:	ff80f005 	bl	10b3bc <____muldf3_from_thumb>
  1054bc:	9c0a      	ldr	r4, [sp, #40]
  1054be:	9d0c      	ldr	r5, [sp, #48]
  1054c0:	3401      	add	r4, #1
  1054c2:	1c06      	mov	r6, r0		(add r6, r0, #0)
  1054c4:	1c0f      	mov	r7, r1		(add r7, r1, #0)
  1054c6:	940a      	str	r4, [sp, #40]
  1054c8:	951b      	str	r5, [sp, #108]
  1054ca:	fac3f7ff 	bl	104a54 <_dtoa_r+0x2cc>
  1054ce:	9a1e      	ldr	r2, [sp, #120]
  1054d0:	9c09      	ldr	r4, [sp, #36]
  1054d2:	2336      	mov	r3, #54
  1054d4:	9d08      	ldr	r5, [sp, #32]
  1054d6:	1a9b      	sub	r3, r3, r2
  1054d8:	46a0      	mov	r8, r4
  1054da:	e576      	b	104fca <.text+0x4fca>
  1054dc:	2301      	mov	r3, #1
  1054de:	2001      	mov	r0, #1
  1054e0:	930c      	str	r3, [sp, #48]
  1054e2:	930b      	str	r3, [sp, #44]
  1054e4:	9328      	str	r3, [sp, #160]
  1054e6:	fa52f7ff 	bl	10498e <_dtoa_r+0x206>
  1054ea:	2001      	mov	r0, #1
  1054ec:	930b      	str	r3, [sp, #44]
  1054ee:	fa4ef7ff 	bl	10498e <_dtoa_r+0x206>
  1054f2:	2f39      	cmp	r7, #57
  1054f4:	d0c9      	beq	10548a <.text+0x548a>
  1054f6:	2d00      	cmp	r5, #0
  1054f8:	dc00      	bgt	1054fc <.text+0x54fc>
  1054fa:	e702      	b	105302 <.text+0x5302>
  1054fc:	4657      	mov	r7, sl
  1054fe:	3731      	add	r7, #49
  105500:	e6ff      	b	105302 <.text+0x5302>
  105502:	2800      	cmp	r0, #0
  105504:	d000      	beq	105508 <.text+0x5508>
  105506:	e6fc      	b	105302 <.text+0x5302>
  105508:	07fa      	lsl	r2, r7, #31
  10550a:	d400      	bmi	10550e <.text+0x550e>
  10550c:	e6f9      	b	105302 <.text+0x5302>
  10550e:	e6f3      	b	1052f8 <.text+0x52f8>
  105510:	220a      	mov	r2, #10
  105512:	4648      	mov	r0, r9
  105514:	991a      	ldr	r1, [sp, #104]
  105516:	2300      	mov	r3, #0
  105518:	f84ef001 	bl	1065b8 <_multadd>
  10551c:	9a0c      	ldr	r2, [sp, #48]
  10551e:	901a      	str	r0, [sp, #104]
  105520:	920b      	str	r2, [sp, #44]
  105522:	e4af      	b	104e84 <.text+0x4e84>
  105524:	2401      	mov	r4, #1
  105526:	f9def7ff 	bl	1048e6 <_dtoa_r+0x15e>
  10552a:	0000      	lsl	r0, r0, #0
  10552c:	b980      	undefined instruction 0xb980
  10552e:	0010      	lsl	r0, r2, #0
  105530:	0000      	lsl	r0, r0, #0
  105532:	4024      	and	r4, r4
  105534:	0000      	lsl	r0, r0, #0
  105536:	0000      	lsl	r0, r0, #0
  105538:	0000      	lsl	r0, r0, #0
  10553a:	3fe0      	sub	r7, #224
  10553c:	0000      	lsl	r0, r0, #0
	...

00105540 <fflush>:
  105540:	b570      	push	{r4, r5, r6, lr}
  105542:	1c05      	mov	r5, r0		(add r5, r0, #0)
  105544:	2800      	cmp	r0, #0
  105546:	d034      	beq	1055b2 <fflush+0x72>
  105548:	4b1d      	ldr	r3, [pc, #116]	(1055c0 <.text+0x55c0>)
  10554a:	6818      	ldr	r0, [r3, #0]
  10554c:	2800      	cmp	r0, #0
  10554e:	d002      	beq	105556 <fflush+0x16>
  105550:	6b83      	ldr	r3, [r0, #56]
  105552:	2b00      	cmp	r3, #0
  105554:	d023      	beq	10559e <fflush+0x5e>
  105556:	89ab      	ldrh	r3, [r5, #12]
  105558:	041b      	lsl	r3, r3, #16
  10555a:	141a      	asr	r2, r3, #16
  10555c:	0713      	lsl	r3, r2, #28
  10555e:	d518      	bpl	105592 <fflush+0x52>
  105560:	692e      	ldr	r6, [r5, #16]
  105562:	2e00      	cmp	r6, #0
  105564:	d015      	beq	105592 <fflush+0x52>
  105566:	682b      	ldr	r3, [r5, #0]
  105568:	1b9c      	sub	r4, r3, r6
  10556a:	2303      	mov	r3, #3
  10556c:	602e      	str	r6, [r5, #0]
  10556e:	421a      	tst	r2, r3
  105570:	d013      	beq	10559a <fflush+0x5a>
  105572:	2300      	mov	r3, #0
  105574:	60ab      	str	r3, [r5, #8]
  105576:	2c00      	cmp	r4, #0
  105578:	dd0b      	ble	105592 <fflush+0x52>
  10557a:	69e8      	ldr	r0, [r5, #28]
  10557c:	6a6b      	ldr	r3, [r5, #36]
  10557e:	1c31      	mov	r1, r6		(add r1, r6, #0)
  105580:	1c22      	mov	r2, r4		(add r2, r4, #0)
  105582:	f823f000 	bl	1055cc <.text+0x55cc>
  105586:	2800      	cmp	r0, #0
  105588:	dd0c      	ble	1055a4 <fflush+0x64>
  10558a:	1a24      	sub	r4, r4, r0
  10558c:	1836      	add	r6, r6, r0
  10558e:	2c00      	cmp	r4, #0
  105590:	dcf3      	bgt	10557a <fflush+0x3a>
  105592:	2000      	mov	r0, #0
  105594:	bc70      	pop	{r4, r5, r6}
  105596:	bc02      	pop	{r1}
  105598:	4708      	bx	r1
  10559a:	696b      	ldr	r3, [r5, #20]
  10559c:	e7ea      	b	105574 <fflush+0x34>
  10559e:	f867f000 	bl	105670 <__sinit>
  1055a2:	e7d8      	b	105556 <fflush+0x16>
  1055a4:	89ab      	ldrh	r3, [r5, #12]
  1055a6:	2240      	mov	r2, #64
  1055a8:	2001      	mov	r0, #1
  1055aa:	4313      	orr	r3, r2
  1055ac:	4240      	neg	r0, r0
  1055ae:	81ab      	strh	r3, [r5, #12]
  1055b0:	e7f0      	b	105594 <fflush+0x54>
  1055b2:	4b04      	ldr	r3, [pc, #16]	(1055c4 <.text+0x55c4>)
  1055b4:	4904      	ldr	r1, [pc, #16]	(1055c8 <.text+0x55c8>)
  1055b6:	6818      	ldr	r0, [r3, #0]
  1055b8:	fb6ef000 	bl	105c98 <_fwalk>
  1055bc:	e7ea      	b	105594 <fflush+0x54>
  1055be:	0000      	lsl	r0, r0, #0
  1055c0:	0458      	lsl	r0, r3, #17
  1055c2:	0020      	lsl	r0, r4, #0
  1055c4:	b8ec      	undefined instruction 0xb8ec
  1055c6:	0010      	lsl	r0, r2, #0
  1055c8:	5541      	strb	r1, [r0, r5]
  1055ca:	0010      	lsl	r0, r2, #0
  1055cc:	4718      	bx	r3
  1055ce:	46c0      	nop			(mov r8, r8)

001055d0 <std>:
  1055d0:	2300      	mov	r3, #0
  1055d2:	6003      	str	r3, [r0, #0]
  1055d4:	6043      	str	r3, [r0, #4]
  1055d6:	6083      	str	r3, [r0, #8]
  1055d8:	6103      	str	r3, [r0, #16]
  1055da:	6143      	str	r3, [r0, #20]
  1055dc:	6183      	str	r3, [r0, #24]
  1055de:	4b06      	ldr	r3, [pc, #24]	(1055f8 <.text+0x55f8>)
  1055e0:	6203      	str	r3, [r0, #32]
  1055e2:	4b06      	ldr	r3, [pc, #24]	(1055fc <.text+0x55fc>)
  1055e4:	6243      	str	r3, [r0, #36]
  1055e6:	4b06      	ldr	r3, [pc, #24]	(105600 <.text+0x5600>)
  1055e8:	6283      	str	r3, [r0, #40]
  1055ea:	4b06      	ldr	r3, [pc, #24]	(105604 <.text+0x5604>)
  1055ec:	8181      	strh	r1, [r0, #12]
  1055ee:	81c2      	strh	r2, [r0, #14]
  1055f0:	61c0      	str	r0, [r0, #28]
  1055f2:	62c3      	str	r3, [r0, #44]
  1055f4:	4770      	bx	lr
  1055f6:	0000      	lsl	r0, r0, #0
  1055f8:	7249      	strb	r1, [r1, #9]
  1055fa:	0010      	lsl	r0, r2, #0
  1055fc:	7285      	strb	r5, [r0, #10]
  1055fe:	0010      	lsl	r0, r2, #0
  105600:	72d1      	strb	r1, [r2, #11]
  105602:	0010      	lsl	r0, r2, #0
  105604:	7311      	strb	r1, [r2, #12]
  105606:	0010      	lsl	r0, r2, #0

00105608 <__sfmoreglue>:
  105608:	b570      	push	{r4, r5, r6, lr}
  10560a:	235c      	mov	r3, #92
  10560c:	1c0e      	mov	r6, r1		(add r6, r1, #0)
  10560e:	435e      	mul	r6, r3
  105610:	1c0d      	mov	r5, r1		(add r5, r1, #0)
  105612:	1c31      	mov	r1, r6		(add r1, r6, #0)
  105614:	310c      	add	r1, #12
  105616:	fc5ff000 	bl	105ed8 <_malloc_r>
  10561a:	1c04      	mov	r4, r0		(add r4, r0, #0)
  10561c:	2800      	cmp	r0, #0
  10561e:	d008      	beq	105632 <__sfmoreglue+0x2a>
  105620:	300c      	add	r0, #12
  105622:	2300      	mov	r3, #0
  105624:	6023      	str	r3, [r4, #0]
  105626:	6065      	str	r5, [r4, #4]
  105628:	60a0      	str	r0, [r4, #8]
  10562a:	2100      	mov	r1, #0
  10562c:	1c32      	mov	r2, r6		(add r2, r6, #0)
  10562e:	f81bf7fd 	bl	102668 <memset>
  105632:	1c20      	mov	r0, r4		(add r0, r4, #0)
  105634:	bc70      	pop	{r4, r5, r6}
  105636:	bc02      	pop	{r1}
  105638:	4708      	bx	r1
	...

0010563c <__sfp_lock_acquire>:
  10563c:	4770      	bx	lr
	...

00105640 <__sfp_lock_release>:
  105640:	4770      	bx	lr
	...

00105644 <_cleanup_r>:
  105644:	b500      	push	{lr}
  105646:	4902      	ldr	r1, [pc, #8]	(105650 <.text+0x5650>)
  105648:	fb26f000 	bl	105c98 <_fwalk>
  10564c:	bc01      	pop	{r0}
  10564e:	4700      	bx	r0
  105650:	7a21      	ldrb	r1, [r4, #8]
  105652:	0010      	lsl	r0, r2, #0

00105654 <_cleanup>:
  105654:	b500      	push	{lr}
  105656:	4b03      	ldr	r3, [pc, #12]	(105664 <.text+0x5664>)
  105658:	6818      	ldr	r0, [r3, #0]
  10565a:	fff3f7ff 	bl	105644 <_cleanup_r>
  10565e:	bc01      	pop	{r0}
  105660:	4700      	bx	r0
  105662:	0000      	lsl	r0, r0, #0
  105664:	b8ec      	undefined instruction 0xb8ec
  105666:	0010      	lsl	r0, r2, #0

00105668 <__sinit_lock_acquire>:
  105668:	4770      	bx	lr
	...

0010566c <__sinit_lock_release>:
  10566c:	4770      	bx	lr
	...

00105670 <__sinit>:
  105670:	b510      	push	{r4, lr}
  105672:	6b82      	ldr	r2, [r0, #56]
  105674:	1c04      	mov	r4, r0		(add r4, r0, #0)
  105676:	2a00      	cmp	r2, #0
  105678:	d122      	bne	1056c0 <__sinit+0x50>
  10567a:	4b13      	ldr	r3, [pc, #76]	(1056c8 <.text+0x56c8>)
  10567c:	63c3      	str	r3, [r0, #60]
  10567e:	2301      	mov	r3, #1
  105680:	6383      	str	r3, [r0, #56]
  105682:	23b8      	mov	r3, #184
  105684:	009b      	lsl	r3, r3, #2
  105686:	50c2      	str	r2, [r0, r3]
  105688:	23b9      	mov	r3, #185
  10568a:	009b      	lsl	r3, r3, #2
  10568c:	2203      	mov	r2, #3
  10568e:	21bb      	mov	r1, #187
  105690:	50c2      	str	r2, [r0, r3]
  105692:	0089      	lsl	r1, r1, #2
  105694:	23ba      	mov	r3, #186
  105696:	1842      	add	r2, r0, r1
  105698:	009b      	lsl	r3, r3, #2
  10569a:	50c2      	str	r2, [r0, r3]
  10569c:	2104      	mov	r1, #4
  10569e:	6840      	ldr	r0, [r0, #4]
  1056a0:	2200      	mov	r2, #0
  1056a2:	1c23      	mov	r3, r4		(add r3, r4, #0)
  1056a4:	ff94f7ff 	bl	1055d0 <std>
  1056a8:	68a0      	ldr	r0, [r4, #8]
  1056aa:	2109      	mov	r1, #9
  1056ac:	2201      	mov	r2, #1
  1056ae:	1c23      	mov	r3, r4		(add r3, r4, #0)
  1056b0:	ff8ef7ff 	bl	1055d0 <std>
  1056b4:	68e0      	ldr	r0, [r4, #12]
  1056b6:	210a      	mov	r1, #10
  1056b8:	2202      	mov	r2, #2
  1056ba:	1c23      	mov	r3, r4		(add r3, r4, #0)
  1056bc:	ff88f7ff 	bl	1055d0 <std>
  1056c0:	bc10      	pop	{r4}
  1056c2:	bc01      	pop	{r0}
  1056c4:	4700      	bx	r0
  1056c6:	0000      	lsl	r0, r0, #0
  1056c8:	5645      	ldrsb	r5, [r0, r1]
  1056ca:	0010      	lsl	r0, r2, #0

001056cc <__sfp>:
  1056cc:	b5f0      	push	{r4, r5, r6, r7, lr}
  1056ce:	4b21      	ldr	r3, [pc, #132]	(105754 <.text+0x5754>)
  1056d0:	681c      	ldr	r4, [r3, #0]
  1056d2:	6ba3      	ldr	r3, [r4, #56]
  1056d4:	1c07      	mov	r7, r0		(add r7, r0, #0)
  1056d6:	2b00      	cmp	r3, #0
  1056d8:	d02c      	beq	105734 <__sfp+0x68>
  1056da:	23b8      	mov	r3, #184
  1056dc:	009b      	lsl	r3, r3, #2
  1056de:	18e5      	add	r5, r4, r3
  1056e0:	2600      	mov	r6, #0
  1056e2:	686b      	ldr	r3, [r5, #4]
  1056e4:	68a8      	ldr	r0, [r5, #8]
  1056e6:	1e5c      	sub	r4, r3, #1
  1056e8:	d41f      	bmi	10572a <__sfp+0x5e>
  1056ea:	8983      	ldrh	r3, [r0, #12]
  1056ec:	2b00      	cmp	r3, #0
  1056ee:	d00a      	beq	105706 <__sfp+0x3a>
  1056f0:	1c01      	mov	r1, r0		(add r1, r0, #0)
  1056f2:	3168      	add	r1, #104
  1056f4:	2200      	mov	r2, #0
  1056f6:	305c      	add	r0, #92
  1056f8:	42a2      	cmp	r2, r4
  1056fa:	d016      	beq	10572a <__sfp+0x5e>
  1056fc:	880b      	ldrh	r3, [r1, #0]
  1056fe:	3201      	add	r2, #1
  105700:	315c      	add	r1, #92
  105702:	2b00      	cmp	r3, #0
  105704:	d1f7      	bne	1056f6 <__sfp+0x2a>
  105706:	2301      	mov	r3, #1
  105708:	425b      	neg	r3, r3
  10570a:	81c3      	strh	r3, [r0, #14]
  10570c:	2301      	mov	r3, #1
  10570e:	8183      	strh	r3, [r0, #12]
  105710:	6006      	str	r6, [r0, #0]
  105712:	6086      	str	r6, [r0, #8]
  105714:	6046      	str	r6, [r0, #4]
  105716:	6106      	str	r6, [r0, #16]
  105718:	6146      	str	r6, [r0, #20]
  10571a:	6186      	str	r6, [r0, #24]
  10571c:	6306      	str	r6, [r0, #48]
  10571e:	6346      	str	r6, [r0, #52]
  105720:	6446      	str	r6, [r0, #68]
  105722:	6486      	str	r6, [r0, #72]
  105724:	bcf0      	pop	{r4, r5, r6, r7}
  105726:	bc02      	pop	{r1}
  105728:	4708      	bx	r1
  10572a:	6828      	ldr	r0, [r5, #0]
  10572c:	2800      	cmp	r0, #0
  10572e:	d005      	beq	10573c <__sfp+0x70>
  105730:	1c05      	mov	r5, r0		(add r5, r0, #0)
  105732:	e7d6      	b	1056e2 <__sfp+0x16>
  105734:	1c20      	mov	r0, r4		(add r0, r4, #0)
  105736:	ff9bf7ff 	bl	105670 <__sinit>
  10573a:	e7ce      	b	1056da <__sfp+0xe>
  10573c:	1c38      	mov	r0, r7		(add r0, r7, #0)
  10573e:	2104      	mov	r1, #4
  105740:	ff62f7ff 	bl	105608 <__sfmoreglue>
  105744:	6028      	str	r0, [r5, #0]
  105746:	2800      	cmp	r0, #0
  105748:	d1f2      	bne	105730 <__sfp+0x64>
  10574a:	230c      	mov	r3, #12
  10574c:	2000      	mov	r0, #0
  10574e:	603b      	str	r3, [r7, #0]
  105750:	e7e8      	b	105724 <__sfp+0x58>
  105752:	0000      	lsl	r0, r0, #0
  105754:	b8ec      	undefined instruction 0xb8ec
  105756:	0010      	lsl	r0, r2, #0

00105758 <__fp_lock>:
  105758:	2000      	mov	r0, #0
  10575a:	4770      	bx	lr

0010575c <__fp_unlock>:
  10575c:	2000      	mov	r0, #0
  10575e:	4770      	bx	lr

00105760 <__fp_lock_all>:
  105760:	b500      	push	{lr}
  105762:	4b03      	ldr	r3, [pc, #12]	(105770 <.text+0x5770>)
  105764:	4903      	ldr	r1, [pc, #12]	(105774 <.text+0x5774>)
  105766:	6818      	ldr	r0, [r3, #0]
  105768:	fa96f000 	bl	105c98 <_fwalk>
  10576c:	bc01      	pop	{r0}
  10576e:	4700      	bx	r0
  105770:	0458      	lsl	r0, r3, #17
  105772:	0020      	lsl	r0, r4, #0
  105774:	5759      	ldrsb	r1, [r3, r5]
  105776:	0010      	lsl	r0, r2, #0

00105778 <__fp_unlock_all>:
  105778:	b500      	push	{lr}
  10577a:	4b03      	ldr	r3, [pc, #12]	(105788 <.text+0x5788>)
  10577c:	4903      	ldr	r1, [pc, #12]	(10578c <.text+0x578c>)
  10577e:	6818      	ldr	r0, [r3, #0]
  105780:	fa8af000 	bl	105c98 <_fwalk>
  105784:	bc01      	pop	{r0}
  105786:	4700      	bx	r0
  105788:	0458      	lsl	r0, r3, #17
  10578a:	0020      	lsl	r0, r4, #0
  10578c:	575d      	ldrsb	r5, [r3, r5]
  10578e:	0010      	lsl	r0, r2, #0

00105790 <_malloc_trim_r>:
  105790:	b5f0      	push	{r4, r5, r6, r7, lr}
  105792:	1c0c      	mov	r4, r1		(add r4, r1, #0)
  105794:	1c06      	mov	r6, r0		(add r6, r0, #0)
  105796:	fed3f000 	bl	106540 <__malloc_lock>
  10579a:	4f21      	ldr	r7, [pc, #132]	(105820 <.text+0x5820>)
  10579c:	68bb      	ldr	r3, [r7, #8]
  10579e:	685a      	ldr	r2, [r3, #4]
  1057a0:	2303      	mov	r3, #3
  1057a2:	1c15      	mov	r5, r2		(add r5, r2, #0)
  1057a4:	439d      	bic	r5, r3
  1057a6:	4b1f      	ldr	r3, [pc, #124]	(105824 <.text+0x5824>)
  1057a8:	1b2c      	sub	r4, r5, r4
  1057aa:	18e4      	add	r4, r4, r3
  1057ac:	0b24      	lsr	r4, r4, #12
  1057ae:	3c01      	sub	r4, #1
  1057b0:	0324      	lsl	r4, r4, #12
  1057b2:	3310      	add	r3, #16
  1057b4:	429c      	cmp	r4, r3
  1057b6:	dd07      	ble	1057c8 <_malloc_trim_r+0x38>
  1057b8:	1c30      	mov	r0, r6		(add r0, r6, #0)
  1057ba:	2100      	mov	r1, #0
  1057bc:	fd30f001 	bl	107220 <_sbrk_r>
  1057c0:	68bb      	ldr	r3, [r7, #8]
  1057c2:	195b      	add	r3, r3, r5
  1057c4:	4298      	cmp	r0, r3
  1057c6:	d006      	beq	1057d6 <_malloc_trim_r+0x46>
  1057c8:	1c30      	mov	r0, r6		(add r0, r6, #0)
  1057ca:	febbf000 	bl	106544 <__malloc_unlock>
  1057ce:	2000      	mov	r0, #0
  1057d0:	bcf0      	pop	{r4, r5, r6, r7}
  1057d2:	bc02      	pop	{r1}
  1057d4:	4708      	bx	r1
  1057d6:	4261      	neg	r1, r4
  1057d8:	1c30      	mov	r0, r6		(add r0, r6, #0)
  1057da:	fd21f001 	bl	107220 <_sbrk_r>
  1057de:	3001      	add	r0, #1
  1057e0:	d00d      	beq	1057fe <_malloc_trim_r+0x6e>
  1057e2:	2201      	mov	r2, #1
  1057e4:	1b2b      	sub	r3, r5, r4
  1057e6:	4313      	orr	r3, r2
  1057e8:	68b9      	ldr	r1, [r7, #8]
  1057ea:	4a0f      	ldr	r2, [pc, #60]	(105828 <.text+0x5828>)
  1057ec:	604b      	str	r3, [r1, #4]
  1057ee:	6813      	ldr	r3, [r2, #0]
  1057f0:	1b1b      	sub	r3, r3, r4
  1057f2:	1c30      	mov	r0, r6		(add r0, r6, #0)
  1057f4:	6013      	str	r3, [r2, #0]
  1057f6:	fea5f000 	bl	106544 <__malloc_unlock>
  1057fa:	2001      	mov	r0, #1
  1057fc:	e7e8      	b	1057d0 <_malloc_trim_r+0x40>
  1057fe:	2100      	mov	r1, #0
  105800:	1c30      	mov	r0, r6		(add r0, r6, #0)
  105802:	fd0df001 	bl	107220 <_sbrk_r>
  105806:	68bc      	ldr	r4, [r7, #8]
  105808:	1b01      	sub	r1, r0, r4
  10580a:	290f      	cmp	r1, #15
  10580c:	dddc      	ble	1057c8 <_malloc_trim_r+0x38>
  10580e:	4b07      	ldr	r3, [pc, #28]	(10582c <.text+0x582c>)
  105810:	681b      	ldr	r3, [r3, #0]
  105812:	4a05      	ldr	r2, [pc, #20]	(105828 <.text+0x5828>)
  105814:	1ac3      	sub	r3, r0, r3
  105816:	6013      	str	r3, [r2, #0]
  105818:	2301      	mov	r3, #1
  10581a:	430b      	orr	r3, r1
  10581c:	6063      	str	r3, [r4, #4]
  10581e:	e7d3      	b	1057c8 <_malloc_trim_r+0x38>
  105820:	0478      	lsl	r0, r7, #17
  105822:	0020      	lsl	r0, r4, #0
  105824:	0fef      	lsr	r7, r5, #31
  105826:	0000      	lsl	r0, r0, #0
  105828:	0888      	lsr	r0, r1, #2
  10582a:	0020      	lsl	r0, r4, #0
  10582c:	0470      	lsl	r0, r6, #17
  10582e:	0020      	lsl	r0, r4, #0

00105830 <_free_r>:
  105830:	b5f0      	push	{r4, r5, r6, r7, lr}
  105832:	4657      	mov	r7, sl
  105834:	4646      	mov	r6, r8
  105836:	b4c0      	push	{r6, r7}
  105838:	4680      	mov	r8, r0
  10583a:	1c0c      	mov	r4, r1		(add r4, r1, #0)
  10583c:	2900      	cmp	r1, #0
  10583e:	d030      	beq	1058a2 <_free_r+0x72>
  105840:	1c25      	mov	r5, r4		(add r5, r4, #0)
  105842:	3d08      	sub	r5, #8
  105844:	fe7cf000 	bl	106540 <__malloc_lock>
  105848:	686c      	ldr	r4, [r5, #4]
  10584a:	2701      	mov	r7, #1
  10584c:	1c21      	mov	r1, r4		(add r1, r4, #0)
  10584e:	43b9      	bic	r1, r7
  105850:	1868      	add	r0, r5, r1
  105852:	6843      	ldr	r3, [r0, #4]
  105854:	2203      	mov	r2, #3
  105856:	1c1e      	mov	r6, r3		(add r6, r3, #0)
  105858:	4396      	bic	r6, r2
  10585a:	4a60      	ldr	r2, [pc, #384]	(1059dc <.text+0x59dc>)
  10585c:	6893      	ldr	r3, [r2, #8]
  10585e:	4694      	mov	ip, r2
  105860:	4692      	mov	sl, r2
  105862:	4298      	cmp	r0, r3
  105864:	d066      	beq	105934 <_free_r+0x104>
  105866:	6046      	str	r6, [r0, #4]
  105868:	423c      	tst	r4, r7
  10586a:	d10b      	bne	105884 <_free_r+0x54>
  10586c:	682b      	ldr	r3, [r5, #0]
  10586e:	1aed      	sub	r5, r5, r3
  105870:	18c9      	add	r1, r1, r3
  105872:	68aa      	ldr	r2, [r5, #8]
  105874:	4663      	mov	r3, ip
  105876:	3308      	add	r3, #8
  105878:	429a      	cmp	r2, r3
  10587a:	d100      	bne	10587e <_free_r+0x4e>
  10587c:	e07b      	b	105976 <_free_r+0x146>
  10587e:	68eb      	ldr	r3, [r5, #12]
  105880:	60d3      	str	r3, [r2, #12]
  105882:	609a      	str	r2, [r3, #8]
  105884:	2400      	mov	r4, #0
  105886:	1983      	add	r3, r0, r6
  105888:	685b      	ldr	r3, [r3, #4]
  10588a:	07da      	lsl	r2, r3, #31
  10588c:	d52a      	bpl	1058e4 <_free_r+0xb4>
  10588e:	2001      	mov	r0, #1
  105890:	1c0b      	mov	r3, r1		(add r3, r1, #0)
  105892:	4303      	orr	r3, r0
  105894:	606b      	str	r3, [r5, #4]
  105896:	5069      	str	r1, [r5, r1]
  105898:	2c00      	cmp	r4, #0
  10589a:	d008      	beq	1058ae <_free_r+0x7e>
  10589c:	4640      	mov	r0, r8
  10589e:	fe51f000 	bl	106544 <__malloc_unlock>
  1058a2:	bc0c      	pop	{r2, r3}
  1058a4:	4690      	mov	r8, r2
  1058a6:	469a      	mov	sl, r3
  1058a8:	bcf0      	pop	{r4, r5, r6, r7}
  1058aa:	bc01      	pop	{r0}
  1058ac:	4700      	bx	r0
  1058ae:	4b4c      	ldr	r3, [pc, #304]	(1059e0 <.text+0x59e0>)
  1058b0:	4299      	cmp	r1, r3
  1058b2:	d92c      	bls	10590e <_free_r+0xde>
  1058b4:	0a4a      	lsr	r2, r1, #9
  1058b6:	2a00      	cmp	r2, #0
  1058b8:	d155      	bne	105966 <_free_r+0x136>
  1058ba:	08cb      	lsr	r3, r1, #3
  1058bc:	00da      	lsl	r2, r3, #3
  1058be:	4650      	mov	r0, sl
  1058c0:	1814      	add	r4, r2, r0
  1058c2:	68a0      	ldr	r0, [r4, #8]
  1058c4:	4284      	cmp	r4, r0
  1058c6:	d05e      	beq	105986 <_free_r+0x156>
  1058c8:	6843      	ldr	r3, [r0, #4]
  1058ca:	2203      	mov	r2, #3
  1058cc:	4393      	bic	r3, r2
  1058ce:	4299      	cmp	r1, r3
  1058d0:	d202      	bcs	1058d8 <_free_r+0xa8>
  1058d2:	6880      	ldr	r0, [r0, #8]
  1058d4:	4284      	cmp	r4, r0
  1058d6:	d1f7      	bne	1058c8 <_free_r+0x98>
  1058d8:	68c4      	ldr	r4, [r0, #12]
  1058da:	60ec      	str	r4, [r5, #12]
  1058dc:	60a8      	str	r0, [r5, #8]
  1058de:	60c5      	str	r5, [r0, #12]
  1058e0:	60a5      	str	r5, [r4, #8]
  1058e2:	e7db      	b	10589c <_free_r+0x6c>
  1058e4:	1989      	add	r1, r1, r6
  1058e6:	2c00      	cmp	r4, #0
  1058e8:	d10f      	bne	10590a <_free_r+0xda>
  1058ea:	4653      	mov	r3, sl
  1058ec:	6882      	ldr	r2, [r0, #8]
  1058ee:	3308      	add	r3, #8
  1058f0:	429a      	cmp	r2, r3
  1058f2:	d052      	beq	10599a <_free_r+0x16a>
  1058f4:	68c3      	ldr	r3, [r0, #12]
  1058f6:	2001      	mov	r0, #1
  1058f8:	60d3      	str	r3, [r2, #12]
  1058fa:	609a      	str	r2, [r3, #8]
  1058fc:	1c0b      	mov	r3, r1		(add r3, r1, #0)
  1058fe:	4303      	orr	r3, r0
  105900:	606b      	str	r3, [r5, #4]
  105902:	5069      	str	r1, [r5, r1]
  105904:	2c00      	cmp	r4, #0
  105906:	d1c9      	bne	10589c <_free_r+0x6c>
  105908:	e7d1      	b	1058ae <_free_r+0x7e>
  10590a:	6882      	ldr	r2, [r0, #8]
  10590c:	e7f2      	b	1058f4 <_free_r+0xc4>
  10590e:	08c9      	lsr	r1, r1, #3
  105910:	1c0a      	mov	r2, r1		(add r2, r1, #0)
  105912:	2900      	cmp	r1, #0
  105914:	db35      	blt	105982 <_free_r+0x152>
  105916:	1092      	asr	r2, r2, #2
  105918:	4090      	lsl	r0, r2
  10591a:	1c02      	mov	r2, r0		(add r2, r0, #0)
  10591c:	4660      	mov	r0, ip
  10591e:	6843      	ldr	r3, [r0, #4]
  105920:	4313      	orr	r3, r2
  105922:	6043      	str	r3, [r0, #4]
  105924:	00cb      	lsl	r3, r1, #3
  105926:	4453      	add	r3, sl
  105928:	689a      	ldr	r2, [r3, #8]
  10592a:	60eb      	str	r3, [r5, #12]
  10592c:	60aa      	str	r2, [r5, #8]
  10592e:	60d5      	str	r5, [r2, #12]
  105930:	609d      	str	r5, [r3, #8]
  105932:	e7b3      	b	10589c <_free_r+0x6c>
  105934:	1989      	add	r1, r1, r6
  105936:	423c      	tst	r4, r7
  105938:	d106      	bne	105948 <_free_r+0x118>
  10593a:	682b      	ldr	r3, [r5, #0]
  10593c:	1aed      	sub	r5, r5, r3
  10593e:	68ea      	ldr	r2, [r5, #12]
  105940:	18c9      	add	r1, r1, r3
  105942:	68ab      	ldr	r3, [r5, #8]
  105944:	60da      	str	r2, [r3, #12]
  105946:	6093      	str	r3, [r2, #8]
  105948:	1c0b      	mov	r3, r1		(add r3, r1, #0)
  10594a:	433b      	orr	r3, r7
  10594c:	606b      	str	r3, [r5, #4]
  10594e:	4663      	mov	r3, ip
  105950:	609d      	str	r5, [r3, #8]
  105952:	4b24      	ldr	r3, [pc, #144]	(1059e4 <.text+0x59e4>)
  105954:	681b      	ldr	r3, [r3, #0]
  105956:	4299      	cmp	r1, r3
  105958:	d3a0      	bcc	10589c <_free_r+0x6c>
  10595a:	4b23      	ldr	r3, [pc, #140]	(1059e8 <.text+0x59e8>)
  10595c:	4640      	mov	r0, r8
  10595e:	6819      	ldr	r1, [r3, #0]
  105960:	ff16f7ff 	bl	105790 <_malloc_trim_r>
  105964:	e79a      	b	10589c <_free_r+0x6c>
  105966:	2a04      	cmp	r2, #4
  105968:	d907      	bls	10597a <_free_r+0x14a>
  10596a:	2a14      	cmp	r2, #20
  10596c:	d81b      	bhi	1059a6 <_free_r+0x176>
  10596e:	1c13      	mov	r3, r2		(add r3, r2, #0)
  105970:	335b      	add	r3, #91
  105972:	00da      	lsl	r2, r3, #3
  105974:	e7a3      	b	1058be <_free_r+0x8e>
  105976:	2401      	mov	r4, #1
  105978:	e785      	b	105886 <_free_r+0x56>
  10597a:	098b      	lsr	r3, r1, #6
  10597c:	3338      	add	r3, #56
  10597e:	00da      	lsl	r2, r3, #3
  105980:	e79d      	b	1058be <_free_r+0x8e>
  105982:	1cca      	add	r2, r1, #3
  105984:	e7c7      	b	105916 <_free_r+0xe6>
  105986:	2b00      	cmp	r3, #0
  105988:	db1b      	blt	1059c2 <_free_r+0x192>
  10598a:	109b      	asr	r3, r3, #2
  10598c:	4661      	mov	r1, ip
  10598e:	2201      	mov	r2, #1
  105990:	409a      	lsl	r2, r3
  105992:	684b      	ldr	r3, [r1, #4]
  105994:	4313      	orr	r3, r2
  105996:	604b      	str	r3, [r1, #4]
  105998:	e79f      	b	1058da <_free_r+0xaa>
  10599a:	2401      	mov	r4, #1
  10599c:	60d5      	str	r5, [r2, #12]
  10599e:	6095      	str	r5, [r2, #8]
  1059a0:	60ea      	str	r2, [r5, #12]
  1059a2:	60aa      	str	r2, [r5, #8]
  1059a4:	e773      	b	10588e <_free_r+0x5e>
  1059a6:	2a54      	cmp	r2, #84
  1059a8:	d803      	bhi	1059b2 <_free_r+0x182>
  1059aa:	0b0b      	lsr	r3, r1, #12
  1059ac:	336e      	add	r3, #110
  1059ae:	00da      	lsl	r2, r3, #3
  1059b0:	e785      	b	1058be <_free_r+0x8e>
  1059b2:	23aa      	mov	r3, #170
  1059b4:	005b      	lsl	r3, r3, #1
  1059b6:	429a      	cmp	r2, r3
  1059b8:	d805      	bhi	1059c6 <_free_r+0x196>
  1059ba:	0bcb      	lsr	r3, r1, #15
  1059bc:	3377      	add	r3, #119
  1059be:	00da      	lsl	r2, r3, #3
  1059c0:	e77d      	b	1058be <_free_r+0x8e>
  1059c2:	3303      	add	r3, #3
  1059c4:	e7e1      	b	10598a <_free_r+0x15a>
  1059c6:	4b09      	ldr	r3, [pc, #36]	(1059ec <.text+0x59ec>)
  1059c8:	429a      	cmp	r2, r3
  1059ca:	d903      	bls	1059d4 <_free_r+0x1a4>
  1059cc:	22fc      	mov	r2, #252
  1059ce:	237e      	mov	r3, #126
  1059d0:	0092      	lsl	r2, r2, #2
  1059d2:	e774      	b	1058be <_free_r+0x8e>
  1059d4:	0c8b      	lsr	r3, r1, #18
  1059d6:	337c      	add	r3, #124
  1059d8:	00da      	lsl	r2, r3, #3
  1059da:	e770      	b	1058be <_free_r+0x8e>
  1059dc:	0478      	lsl	r0, r7, #17
  1059de:	0020      	lsl	r0, r4, #0
  1059e0:	01ff      	lsl	r7, r7, #7
  1059e2:	0000      	lsl	r0, r0, #0
  1059e4:	0474      	lsl	r4, r6, #17
  1059e6:	0020      	lsl	r0, r4, #0
  1059e8:	08b8      	lsr	r0, r7, #2
  1059ea:	0020      	lsl	r0, r4, #0
  1059ec:	0554      	lsl	r4, r2, #21
	...

001059f0 <__sfvwrite>:
  1059f0:	b5f0      	push	{r4, r5, r6, r7, lr}
  1059f2:	465f      	mov	r7, fp
  1059f4:	4656      	mov	r6, sl
  1059f6:	464d      	mov	r5, r9
  1059f8:	4644      	mov	r4, r8
  1059fa:	b4f0      	push	{r4, r5, r6, r7}
  1059fc:	688b      	ldr	r3, [r1, #8]
  1059fe:	b082      	sub	sp, #8
  105a00:	1c06      	mov	r6, r0		(add r6, r0, #0)
  105a02:	4689      	mov	r9, r1
  105a04:	2b00      	cmp	r3, #0
  105a06:	d036      	beq	105a76 <__sfvwrite+0x86>
  105a08:	8982      	ldrh	r2, [r0, #12]
  105a0a:	2308      	mov	r3, #8
  105a0c:	4213      	tst	r3, r2
  105a0e:	d100      	bne	105a12 <__sfvwrite+0x22>
  105a10:	e130      	b	105c74 <__sfvwrite+0x284>
  105a12:	6903      	ldr	r3, [r0, #16]
  105a14:	2b00      	cmp	r3, #0
  105a16:	d100      	bne	105a1a <__sfvwrite+0x2a>
  105a18:	e12c      	b	105c74 <__sfvwrite+0x284>
  105a1a:	4649      	mov	r1, r9
  105a1c:	6809      	ldr	r1, [r1, #0]
  105a1e:	0413      	lsl	r3, r2, #16
  105a20:	0c1b      	lsr	r3, r3, #16
  105a22:	468b      	mov	fp, r1
  105a24:	0799      	lsl	r1, r3, #30
  105a26:	d530      	bpl	105a8a <__sfvwrite+0x9a>
  105a28:	465a      	mov	r2, fp
  105a2a:	6854      	ldr	r4, [r2, #4]
  105a2c:	2308      	mov	r3, #8
  105a2e:	6815      	ldr	r5, [r2, #0]
  105a30:	449b      	add	fp, r3
  105a32:	2c00      	cmp	r4, #0
  105a34:	d0f8      	beq	105a28 <__sfvwrite+0x38>
  105a36:	2780      	mov	r7, #128
  105a38:	00ff      	lsl	r7, r7, #3
  105a3a:	e009      	b	105a50 <__sfvwrite+0x60>
  105a3c:	4649      	mov	r1, r9
  105a3e:	688b      	ldr	r3, [r1, #8]
  105a40:	1a1b      	sub	r3, r3, r0
  105a42:	182d      	add	r5, r5, r0
  105a44:	1a24      	sub	r4, r4, r0
  105a46:	608b      	str	r3, [r1, #8]
  105a48:	2b00      	cmp	r3, #0
  105a4a:	d014      	beq	105a76 <__sfvwrite+0x86>
  105a4c:	2c00      	cmp	r4, #0
  105a4e:	d0eb      	beq	105a28 <__sfvwrite+0x38>
  105a50:	69f0      	ldr	r0, [r6, #28]
  105a52:	1c22      	mov	r2, r4		(add r2, r4, #0)
  105a54:	42bc      	cmp	r4, r7
  105a56:	d901      	bls	105a5c <__sfvwrite+0x6c>
  105a58:	2280      	mov	r2, #128
  105a5a:	00d2      	lsl	r2, r2, #3
  105a5c:	6a73      	ldr	r3, [r6, #36]
  105a5e:	1c29      	mov	r1, r5		(add r1, r5, #0)
  105a60:	f918f000 	bl	105c94 <.text+0x5c94>
  105a64:	2800      	cmp	r0, #0
  105a66:	dce9      	bgt	105a3c <__sfvwrite+0x4c>
  105a68:	89b3      	ldrh	r3, [r6, #12]
  105a6a:	2240      	mov	r2, #64
  105a6c:	4313      	orr	r3, r2
  105a6e:	81b3      	strh	r3, [r6, #12]
  105a70:	2001      	mov	r0, #1
  105a72:	4240      	neg	r0, r0
  105a74:	e000      	b	105a78 <__sfvwrite+0x88>
  105a76:	2000      	mov	r0, #0
  105a78:	b002      	add	sp, #8
  105a7a:	bc3c      	pop	{r2, r3, r4, r5}
  105a7c:	4690      	mov	r8, r2
  105a7e:	4699      	mov	r9, r3
  105a80:	46a2      	mov	sl, r4
  105a82:	46ab      	mov	fp, r5
  105a84:	bcf0      	pop	{r4, r5, r6, r7}
  105a86:	bc02      	pop	{r1}
  105a88:	4708      	bx	r1
  105a8a:	07d9      	lsl	r1, r3, #31
  105a8c:	d44e      	bmi	105b2c <__sfvwrite+0x13c>
  105a8e:	4b80      	ldr	r3, [pc, #512]	(105c90 <.text+0x5c90>)
  105a90:	9300      	str	r3, [sp, #0]
  105a92:	4659      	mov	r1, fp
  105a94:	6809      	ldr	r1, [r1, #0]
  105a96:	465b      	mov	r3, fp
  105a98:	685d      	ldr	r5, [r3, #4]
  105a9a:	468a      	mov	sl, r1
  105a9c:	2108      	mov	r1, #8
  105a9e:	448b      	add	fp, r1
  105aa0:	2d00      	cmp	r5, #0
  105aa2:	d0f6      	beq	105a92 <__sfvwrite+0xa2>
  105aa4:	0413      	lsl	r3, r2, #16
  105aa6:	0c1b      	lsr	r3, r3, #16
  105aa8:	68b4      	ldr	r4, [r6, #8]
  105aaa:	059a      	lsl	r2, r3, #22
  105aac:	d528      	bpl	105b00 <__sfvwrite+0x110>
  105aae:	1c22      	mov	r2, r4		(add r2, r4, #0)
  105ab0:	42ac      	cmp	r4, r5
  105ab2:	d202      	bcs	105aba <__sfvwrite+0xca>
  105ab4:	0619      	lsl	r1, r3, #24
  105ab6:	d500      	bpl	105aba <__sfvwrite+0xca>
  105ab8:	e0c8      	b	105c4c <__sfvwrite+0x25c>
  105aba:	42aa      	cmp	r2, r5
  105abc:	d901      	bls	105ac2 <__sfvwrite+0xd2>
  105abe:	1c2a      	mov	r2, r5		(add r2, r5, #0)
  105ac0:	1c2c      	mov	r4, r5		(add r4, r5, #0)
  105ac2:	6830      	ldr	r0, [r6, #0]
  105ac4:	4651      	mov	r1, sl
  105ac6:	fcf3f000 	bl	1064b0 <memmove>
  105aca:	68b3      	ldr	r3, [r6, #8]
  105acc:	1b1b      	sub	r3, r3, r4
  105ace:	60b3      	str	r3, [r6, #8]
  105ad0:	6833      	ldr	r3, [r6, #0]
  105ad2:	191b      	add	r3, r3, r4
  105ad4:	6033      	str	r3, [r6, #0]
  105ad6:	46a8      	mov	r8, r5
  105ad8:	1c2f      	mov	r7, r5		(add r7, r5, #0)
  105ada:	1c2c      	mov	r4, r5		(add r4, r5, #0)
  105adc:	4643      	mov	r3, r8
  105ade:	4649      	mov	r1, r9
  105ae0:	1aed      	sub	r5, r5, r3
  105ae2:	688b      	ldr	r3, [r1, #8]
  105ae4:	1b1b      	sub	r3, r3, r4
  105ae6:	44ba      	add	sl, r7
  105ae8:	608b      	str	r3, [r1, #8]
  105aea:	2b00      	cmp	r3, #0
  105aec:	d0c3      	beq	105a76 <__sfvwrite+0x86>
  105aee:	2d00      	cmp	r5, #0
  105af0:	d100      	bne	105af4 <__sfvwrite+0x104>
  105af2:	e09a      	b	105c2a <__sfvwrite+0x23a>
  105af4:	89b2      	ldrh	r2, [r6, #12]
  105af6:	0413      	lsl	r3, r2, #16
  105af8:	0c1b      	lsr	r3, r3, #16
  105afa:	68b4      	ldr	r4, [r6, #8]
  105afc:	059a      	lsl	r2, r3, #22
  105afe:	d4d6      	bmi	105aae <__sfvwrite+0xbe>
  105b00:	6830      	ldr	r0, [r6, #0]
  105b02:	6933      	ldr	r3, [r6, #16]
  105b04:	4298      	cmp	r0, r3
  105b06:	d903      	bls	105b10 <__sfvwrite+0x120>
  105b08:	46a0      	mov	r8, r4
  105b0a:	42ac      	cmp	r4, r5
  105b0c:	d200      	bcs	105b10 <__sfvwrite+0x120>
  105b0e:	e08e      	b	105c2e <__sfvwrite+0x23e>
  105b10:	6972      	ldr	r2, [r6, #20]
  105b12:	42aa      	cmp	r2, r5
  105b14:	d87b      	bhi	105c0e <__sfvwrite+0x21e>
  105b16:	69f0      	ldr	r0, [r6, #28]
  105b18:	6a73      	ldr	r3, [r6, #36]
  105b1a:	4651      	mov	r1, sl
  105b1c:	f8baf000 	bl	105c94 <.text+0x5c94>
  105b20:	1c04      	mov	r4, r0		(add r4, r0, #0)
  105b22:	2800      	cmp	r0, #0
  105b24:	dda0      	ble	105a68 <__sfvwrite+0x78>
  105b26:	1c07      	mov	r7, r0		(add r7, r0, #0)
  105b28:	4680      	mov	r8, r0
  105b2a:	e7d7      	b	105adc <__sfvwrite+0xec>
  105b2c:	465a      	mov	r2, fp
  105b2e:	465b      	mov	r3, fp
  105b30:	6812      	ldr	r2, [r2, #0]
  105b32:	685f      	ldr	r7, [r3, #4]
  105b34:	2108      	mov	r1, #8
  105b36:	4692      	mov	sl, r2
  105b38:	448b      	add	fp, r1
  105b3a:	2f00      	cmp	r7, #0
  105b3c:	d0f6      	beq	105b2c <__sfvwrite+0x13c>
  105b3e:	4650      	mov	r0, sl
  105b40:	210a      	mov	r1, #10
  105b42:	1c3a      	mov	r2, r7		(add r2, r7, #0)
  105b44:	fc6cf000 	bl	106420 <memchr>
  105b48:	2800      	cmp	r0, #0
  105b4a:	d037      	beq	105bbc <__sfvwrite+0x1cc>
  105b4c:	4651      	mov	r1, sl
  105b4e:	1a43      	sub	r3, r0, r1
  105b50:	3301      	add	r3, #1
  105b52:	4698      	mov	r8, r3
  105b54:	2201      	mov	r2, #1
  105b56:	9201      	str	r2, [sp, #4]
  105b58:	4645      	mov	r5, r8
  105b5a:	45b8      	cmp	r8, r7
  105b5c:	d900      	bls	105b60 <__sfvwrite+0x170>
  105b5e:	1c3d      	mov	r5, r7		(add r5, r7, #0)
  105b60:	68b3      	ldr	r3, [r6, #8]
  105b62:	6972      	ldr	r2, [r6, #20]
  105b64:	6830      	ldr	r0, [r6, #0]
  105b66:	189c      	add	r4, r3, r2
  105b68:	6933      	ldr	r3, [r6, #16]
  105b6a:	4298      	cmp	r0, r3
  105b6c:	d901      	bls	105b72 <__sfvwrite+0x182>
  105b6e:	42a5      	cmp	r5, r4
  105b70:	dc40      	bgt	105bf4 <__sfvwrite+0x204>
  105b72:	4295      	cmp	r5, r2
  105b74:	db25      	blt	105bc2 <__sfvwrite+0x1d2>
  105b76:	69f0      	ldr	r0, [r6, #28]
  105b78:	6a73      	ldr	r3, [r6, #36]
  105b7a:	4651      	mov	r1, sl
  105b7c:	f88af000 	bl	105c94 <.text+0x5c94>
  105b80:	1c04      	mov	r4, r0		(add r4, r0, #0)
  105b82:	2800      	cmp	r0, #0
  105b84:	dc00      	bgt	105b88 <__sfvwrite+0x198>
  105b86:	e76f      	b	105a68 <__sfvwrite+0x78>
  105b88:	4641      	mov	r1, r8
  105b8a:	1b09      	sub	r1, r1, r4
  105b8c:	4688      	mov	r8, r1
  105b8e:	2900      	cmp	r1, #0
  105b90:	d027      	beq	105be2 <__sfvwrite+0x1f2>
  105b92:	4649      	mov	r1, r9
  105b94:	688b      	ldr	r3, [r1, #8]
  105b96:	1b1b      	sub	r3, r3, r4
  105b98:	44a2      	add	sl, r4
  105b9a:	1b3f      	sub	r7, r7, r4
  105b9c:	608b      	str	r3, [r1, #8]
  105b9e:	2b00      	cmp	r3, #0
  105ba0:	d100      	bne	105ba4 <__sfvwrite+0x1b4>
  105ba2:	e768      	b	105a76 <__sfvwrite+0x86>
  105ba4:	2f00      	cmp	r7, #0
  105ba6:	d0c1      	beq	105b2c <__sfvwrite+0x13c>
  105ba8:	9a01      	ldr	r2, [sp, #4]
  105baa:	2a00      	cmp	r2, #0
  105bac:	d1d4      	bne	105b58 <__sfvwrite+0x168>
  105bae:	4650      	mov	r0, sl
  105bb0:	210a      	mov	r1, #10
  105bb2:	1c3a      	mov	r2, r7		(add r2, r7, #0)
  105bb4:	fc34f000 	bl	106420 <memchr>
  105bb8:	2800      	cmp	r0, #0
  105bba:	d1c7      	bne	105b4c <__sfvwrite+0x15c>
  105bbc:	1c7b      	add	r3, r7, #1
  105bbe:	4698      	mov	r8, r3
  105bc0:	e7c8      	b	105b54 <__sfvwrite+0x164>
  105bc2:	4651      	mov	r1, sl
  105bc4:	1c2a      	mov	r2, r5		(add r2, r5, #0)
  105bc6:	fc73f000 	bl	1064b0 <memmove>
  105bca:	68b3      	ldr	r3, [r6, #8]
  105bcc:	1b5b      	sub	r3, r3, r5
  105bce:	60b3      	str	r3, [r6, #8]
  105bd0:	6833      	ldr	r3, [r6, #0]
  105bd2:	4641      	mov	r1, r8
  105bd4:	1c2c      	mov	r4, r5		(add r4, r5, #0)
  105bd6:	195b      	add	r3, r3, r5
  105bd8:	1b09      	sub	r1, r1, r4
  105bda:	6033      	str	r3, [r6, #0]
  105bdc:	4688      	mov	r8, r1
  105bde:	2900      	cmp	r1, #0
  105be0:	d1d7      	bne	105b92 <__sfvwrite+0x1a2>
  105be2:	1c30      	mov	r0, r6		(add r0, r6, #0)
  105be4:	fcacf7ff 	bl	105540 <fflush>
  105be8:	2800      	cmp	r0, #0
  105bea:	d000      	beq	105bee <__sfvwrite+0x1fe>
  105bec:	e73c      	b	105a68 <__sfvwrite+0x78>
  105bee:	2200      	mov	r2, #0
  105bf0:	9201      	str	r2, [sp, #4]
  105bf2:	e7ce      	b	105b92 <__sfvwrite+0x1a2>
  105bf4:	4651      	mov	r1, sl
  105bf6:	1c22      	mov	r2, r4		(add r2, r4, #0)
  105bf8:	fc5af000 	bl	1064b0 <memmove>
  105bfc:	6833      	ldr	r3, [r6, #0]
  105bfe:	191b      	add	r3, r3, r4
  105c00:	6033      	str	r3, [r6, #0]
  105c02:	1c30      	mov	r0, r6		(add r0, r6, #0)
  105c04:	fc9cf7ff 	bl	105540 <fflush>
  105c08:	2800      	cmp	r0, #0
  105c0a:	d0bd      	beq	105b88 <__sfvwrite+0x198>
  105c0c:	e72c      	b	105a68 <__sfvwrite+0x78>
  105c0e:	4651      	mov	r1, sl
  105c10:	1c2a      	mov	r2, r5		(add r2, r5, #0)
  105c12:	fc4df000 	bl	1064b0 <memmove>
  105c16:	68b3      	ldr	r3, [r6, #8]
  105c18:	1b5b      	sub	r3, r3, r5
  105c1a:	60b3      	str	r3, [r6, #8]
  105c1c:	6833      	ldr	r3, [r6, #0]
  105c1e:	1c2c      	mov	r4, r5		(add r4, r5, #0)
  105c20:	195b      	add	r3, r3, r5
  105c22:	46a8      	mov	r8, r5
  105c24:	1c2f      	mov	r7, r5		(add r7, r5, #0)
  105c26:	6033      	str	r3, [r6, #0]
  105c28:	e758      	b	105adc <__sfvwrite+0xec>
  105c2a:	89b2      	ldrh	r2, [r6, #12]
  105c2c:	e731      	b	105a92 <__sfvwrite+0xa2>
  105c2e:	4651      	mov	r1, sl
  105c30:	1c22      	mov	r2, r4		(add r2, r4, #0)
  105c32:	fc3df000 	bl	1064b0 <memmove>
  105c36:	6833      	ldr	r3, [r6, #0]
  105c38:	191b      	add	r3, r3, r4
  105c3a:	6033      	str	r3, [r6, #0]
  105c3c:	1c30      	mov	r0, r6		(add r0, r6, #0)
  105c3e:	1c27      	mov	r7, r4		(add r7, r4, #0)
  105c40:	fc7ef7ff 	bl	105540 <fflush>
  105c44:	2800      	cmp	r0, #0
  105c46:	d100      	bne	105c4a <__sfvwrite+0x25a>
  105c48:	e748      	b	105adc <__sfvwrite+0xec>
  105c4a:	e70d      	b	105a68 <__sfvwrite+0x78>
  105c4c:	6931      	ldr	r1, [r6, #16]
  105c4e:	6833      	ldr	r3, [r6, #0]
  105c50:	4a0f      	ldr	r2, [pc, #60]	(105c90 <.text+0x5c90>)
  105c52:	1a5c      	sub	r4, r3, r1
  105c54:	1967      	add	r7, r4, r5
  105c56:	4690      	mov	r8, r2
  105c58:	6810      	ldr	r0, [r2, #0]
  105c5a:	1c3a      	mov	r2, r7		(add r2, r7, #0)
  105c5c:	f8eaf001 	bl	106e34 <_realloc_r>
  105c60:	2800      	cmp	r0, #0
  105c62:	d00f      	beq	105c84 <__sfvwrite+0x294>
  105c64:	1903      	add	r3, r0, r4
  105c66:	1c2a      	mov	r2, r5		(add r2, r5, #0)
  105c68:	1c2c      	mov	r4, r5		(add r4, r5, #0)
  105c6a:	6130      	str	r0, [r6, #16]
  105c6c:	6033      	str	r3, [r6, #0]
  105c6e:	6177      	str	r7, [r6, #20]
  105c70:	60b5      	str	r5, [r6, #8]
  105c72:	e722      	b	105aba <__sfvwrite+0xca>
  105c74:	1c30      	mov	r0, r6		(add r0, r6, #0)
  105c76:	fc8bf7fe 	bl	104590 <__swsetup>
  105c7a:	2800      	cmp	r0, #0
  105c7c:	d000      	beq	105c80 <__sfvwrite+0x290>
  105c7e:	e6f7      	b	105a70 <__sfvwrite+0x80>
  105c80:	89b2      	ldrh	r2, [r6, #12]
  105c82:	e6ca      	b	105a1a <__sfvwrite+0x2a>
  105c84:	4642      	mov	r2, r8
  105c86:	6810      	ldr	r0, [r2, #0]
  105c88:	6931      	ldr	r1, [r6, #16]
  105c8a:	fdd1f7ff 	bl	105830 <_free_r>
  105c8e:	e6eb      	b	105a68 <__sfvwrite+0x78>
  105c90:	0458      	lsl	r0, r3, #17
  105c92:	0020      	lsl	r0, r4, #0
  105c94:	4718      	bx	r3
  105c96:	46c0      	nop			(mov r8, r8)

00105c98 <_fwalk>:
  105c98:	b5f0      	push	{r4, r5, r6, r7, lr}
  105c9a:	4657      	mov	r7, sl
  105c9c:	4646      	mov	r6, r8
  105c9e:	b4c0      	push	{r6, r7}
  105ca0:	1c04      	mov	r4, r0		(add r4, r0, #0)
  105ca2:	4688      	mov	r8, r1
  105ca4:	fccaf7ff 	bl	10563c <__sfp_lock_acquire>
  105ca8:	23b8      	mov	r3, #184
  105caa:	009b      	lsl	r3, r3, #2
  105cac:	18e7      	add	r7, r4, r3
  105cae:	2f00      	cmp	r7, #0
  105cb0:	d024      	beq	105cfc <_fwalk+0x64>
  105cb2:	2300      	mov	r3, #0
  105cb4:	469a      	mov	sl, r3
  105cb6:	687e      	ldr	r6, [r7, #4]
  105cb8:	68bc      	ldr	r4, [r7, #8]
  105cba:	2e01      	cmp	r6, #1
  105cbc:	d412      	bmi	105ce4 <_fwalk+0x4c>
  105cbe:	2500      	mov	r5, #0
  105cc0:	89a3      	ldrh	r3, [r4, #12]
  105cc2:	2b00      	cmp	r3, #0
  105cc4:	d00a      	beq	105cdc <_fwalk+0x44>
  105cc6:	89e3      	ldrh	r3, [r4, #14]
  105cc8:	041b      	lsl	r3, r3, #16
  105cca:	141b      	asr	r3, r3, #16
  105ccc:	3301      	add	r3, #1
  105cce:	d005      	beq	105cdc <_fwalk+0x44>
  105cd0:	1c20      	mov	r0, r4		(add r0, r4, #0)
  105cd2:	f84ff000 	bl	105d74 <_fwalk_reent+0x70>
  105cd6:	4653      	mov	r3, sl
  105cd8:	4303      	orr	r3, r0
  105cda:	469a      	mov	sl, r3
  105cdc:	3501      	add	r5, #1
  105cde:	345c      	add	r4, #92
  105ce0:	42ae      	cmp	r6, r5
  105ce2:	d1ed      	bne	105cc0 <_fwalk+0x28>
  105ce4:	683f      	ldr	r7, [r7, #0]
  105ce6:	2f00      	cmp	r7, #0
  105ce8:	d1e5      	bne	105cb6 <_fwalk+0x1e>
  105cea:	fca9f7ff 	bl	105640 <__sfp_lock_release>
  105cee:	4650      	mov	r0, sl
  105cf0:	bc0c      	pop	{r2, r3}
  105cf2:	4690      	mov	r8, r2
  105cf4:	469a      	mov	sl, r3
  105cf6:	bcf0      	pop	{r4, r5, r6, r7}
  105cf8:	bc02      	pop	{r1}
  105cfa:	4708      	bx	r1
  105cfc:	2300      	mov	r3, #0
  105cfe:	469a      	mov	sl, r3
  105d00:	e7f3      	b	105cea <_fwalk+0x52>
	...

00105d04 <_fwalk_reent>:
  105d04:	b5f0      	push	{r4, r5, r6, r7, lr}
  105d06:	4657      	mov	r7, sl
  105d08:	464e      	mov	r6, r9
  105d0a:	4645      	mov	r5, r8
  105d0c:	b4e0      	push	{r5, r6, r7}
  105d0e:	27b8      	mov	r7, #184
  105d10:	4680      	mov	r8, r0
  105d12:	00bf      	lsl	r7, r7, #2
  105d14:	4447      	add	r7, r8
  105d16:	468a      	mov	sl, r1
  105d18:	fc90f7ff 	bl	10563c <__sfp_lock_acquire>
  105d1c:	2f00      	cmp	r7, #0
  105d1e:	d026      	beq	105d6e <_fwalk_reent+0x6a>
  105d20:	2300      	mov	r3, #0
  105d22:	4699      	mov	r9, r3
  105d24:	687e      	ldr	r6, [r7, #4]
  105d26:	68bc      	ldr	r4, [r7, #8]
  105d28:	2e01      	cmp	r6, #1
  105d2a:	d413      	bmi	105d54 <_fwalk_reent+0x50>
  105d2c:	2500      	mov	r5, #0
  105d2e:	89a3      	ldrh	r3, [r4, #12]
  105d30:	2b00      	cmp	r3, #0
  105d32:	d00b      	beq	105d4c <_fwalk_reent+0x48>
  105d34:	89e3      	ldrh	r3, [r4, #14]
  105d36:	041b      	lsl	r3, r3, #16
  105d38:	141b      	asr	r3, r3, #16
  105d3a:	3301      	add	r3, #1
  105d3c:	d006      	beq	105d4c <_fwalk_reent+0x48>
  105d3e:	4640      	mov	r0, r8
  105d40:	1c21      	mov	r1, r4		(add r1, r4, #0)
  105d42:	f818f000 	bl	105d76 <_fwalk_reent+0x72>
  105d46:	464b      	mov	r3, r9
  105d48:	4303      	orr	r3, r0
  105d4a:	4699      	mov	r9, r3
  105d4c:	3501      	add	r5, #1
  105d4e:	345c      	add	r4, #92
  105d50:	42ae      	cmp	r6, r5
  105d52:	d1ec      	bne	105d2e <_fwalk_reent+0x2a>
  105d54:	683f      	ldr	r7, [r7, #0]
  105d56:	2f00      	cmp	r7, #0
  105d58:	d1e4      	bne	105d24 <_fwalk_reent+0x20>
  105d5a:	fc71f7ff 	bl	105640 <__sfp_lock_release>
  105d5e:	4648      	mov	r0, r9
  105d60:	bc1c      	pop	{r2, r3, r4}
  105d62:	4690      	mov	r8, r2
  105d64:	4699      	mov	r9, r3
  105d66:	46a2      	mov	sl, r4
  105d68:	bcf0      	pop	{r4, r5, r6, r7}
  105d6a:	bc02      	pop	{r1}
  105d6c:	4708      	bx	r1
  105d6e:	2300      	mov	r3, #0
  105d70:	4699      	mov	r9, r3
  105d72:	e7f2      	b	105d5a <_fwalk_reent+0x56>
  105d74:	4740      	bx	r8
  105d76:	4750      	bx	sl

00105d78 <_setlocale_r>:
  105d78:	b570      	push	{r4, r5, r6, lr}
  105d7a:	1c05      	mov	r5, r0		(add r5, r0, #0)
  105d7c:	1c0e      	mov	r6, r1		(add r6, r1, #0)
  105d7e:	1c14      	mov	r4, r2		(add r4, r2, #0)
  105d80:	2a00      	cmp	r2, #0
  105d82:	d007      	beq	105d94 <_setlocale_r+0x1c>
  105d84:	4909      	ldr	r1, [pc, #36]	(105dac <.text+0x5dac>)
  105d86:	1c10      	mov	r0, r2		(add r0, r2, #0)
  105d88:	fad0f001 	bl	10732c <strcmp>
  105d8c:	2800      	cmp	r0, #0
  105d8e:	d105      	bne	105d9c <_setlocale_r+0x24>
  105d90:	632e      	str	r6, [r5, #48]
  105d92:	636c      	str	r4, [r5, #52]
  105d94:	4805      	ldr	r0, [pc, #20]	(105dac <.text+0x5dac>)
  105d96:	bc70      	pop	{r4, r5, r6}
  105d98:	bc02      	pop	{r1}
  105d9a:	4708      	bx	r1
  105d9c:	4904      	ldr	r1, [pc, #16]	(105db0 <.text+0x5db0>)
  105d9e:	1c20      	mov	r0, r4		(add r0, r4, #0)
  105da0:	fac4f001 	bl	10732c <strcmp>
  105da4:	2800      	cmp	r0, #0
  105da6:	d0f3      	beq	105d90 <_setlocale_r+0x18>
  105da8:	2000      	mov	r0, #0
  105daa:	e7f4      	b	105d96 <_setlocale_r+0x1e>
  105dac:	b8f0      	undefined instruction 0xb8f0
  105dae:	0010      	lsl	r0, r2, #0
  105db0:	b468      	push	{r3, r5, r6}
  105db2:	0010      	lsl	r0, r2, #0

00105db4 <__locale_charset>:
  105db4:	4b01      	ldr	r3, [pc, #4]	(105dbc <.text+0x5dbc>)
  105db6:	6818      	ldr	r0, [r3, #0]
  105db8:	4770      	bx	lr
  105dba:	0000      	lsl	r0, r0, #0
  105dbc:	046c      	lsl	r4, r5, #17
  105dbe:	0020      	lsl	r0, r4, #0

00105dc0 <_localeconv_r>:
  105dc0:	4800      	ldr	r0, [pc, #0]	(105dc4 <.text+0x5dc4>)
  105dc2:	4770      	bx	lr
  105dc4:	b900      	undefined instruction 0xb900
  105dc6:	0010      	lsl	r0, r2, #0

00105dc8 <setlocale>:
  105dc8:	b510      	push	{r4, lr}
  105dca:	4b05      	ldr	r3, [pc, #20]	(105de0 <.text+0x5de0>)
  105dcc:	1c04      	mov	r4, r0		(add r4, r0, #0)
  105dce:	1c0a      	mov	r2, r1		(add r2, r1, #0)
  105dd0:	6818      	ldr	r0, [r3, #0]
  105dd2:	1c21      	mov	r1, r4		(add r1, r4, #0)
  105dd4:	ffd0f7ff 	bl	105d78 <_setlocale_r>
  105dd8:	bc10      	pop	{r4}
  105dda:	bc02      	pop	{r1}
  105ddc:	4708      	bx	r1
  105dde:	0000      	lsl	r0, r0, #0
  105de0:	0458      	lsl	r0, r3, #17
  105de2:	0020      	lsl	r0, r4, #0

00105de4 <localeconv>:
  105de4:	b500      	push	{lr}
  105de6:	4b03      	ldr	r3, [pc, #12]	(105df4 <.text+0x5df4>)
  105de8:	6818      	ldr	r0, [r3, #0]
  105dea:	ffe9f7ff 	bl	105dc0 <_localeconv_r>
  105dee:	bc02      	pop	{r1}
  105df0:	4708      	bx	r1
  105df2:	0000      	lsl	r0, r0, #0
  105df4:	0458      	lsl	r0, r3, #17
  105df6:	0020      	lsl	r0, r4, #0

00105df8 <__smakebuf>:
  105df8:	b5f0      	push	{r4, r5, r6, r7, lr}
  105dfa:	8982      	ldrh	r2, [r0, #12]
  105dfc:	2302      	mov	r3, #2
  105dfe:	b08f      	sub	sp, #60
  105e00:	1c04      	mov	r4, r0		(add r4, r0, #0)
  105e02:	4213      	tst	r3, r2
  105e04:	d122      	bne	105e4c <__smakebuf+0x54>
  105e06:	89c3      	ldrh	r3, [r0, #14]
  105e08:	041b      	lsl	r3, r3, #16
  105e0a:	1419      	asr	r1, r3, #16
  105e0c:	2900      	cmp	r1, #0
  105e0e:	db28      	blt	105e62 <__smakebuf+0x6a>
  105e10:	4b2e      	ldr	r3, [pc, #184]	(105ecc <.text+0x5ecc>)
  105e12:	466a      	mov	r2, sp
  105e14:	6818      	ldr	r0, [r3, #0]
  105e16:	fe0ff001 	bl	107a38 <_fstat_r>
  105e1a:	2800      	cmp	r0, #0
  105e1c:	db20      	blt	105e60 <__smakebuf+0x68>
  105e1e:	9b01      	ldr	r3, [sp, #4]
  105e20:	22f0      	mov	r2, #240
  105e22:	0212      	lsl	r2, r2, #8
  105e24:	401a      	and	r2, r3
  105e26:	2380      	mov	r3, #128
  105e28:	019b      	lsl	r3, r3, #6
  105e2a:	2700      	mov	r7, #0
  105e2c:	429a      	cmp	r2, r3
  105e2e:	d03e      	beq	105eae <__smakebuf+0xb6>
  105e30:	2380      	mov	r3, #128
  105e32:	021b      	lsl	r3, r3, #8
  105e34:	429a      	cmp	r2, r3
  105e36:	d03c      	beq	105eb2 <__smakebuf+0xba>
  105e38:	89a3      	ldrh	r3, [r4, #12]
  105e3a:	2280      	mov	r2, #128
  105e3c:	0112      	lsl	r2, r2, #4
  105e3e:	4313      	orr	r3, r2
  105e40:	81a3      	strh	r3, [r4, #12]
  105e42:	e013      	b	105e6c <__smakebuf+0x74>
  105e44:	89a3      	ldrh	r3, [r4, #12]
  105e46:	2202      	mov	r2, #2
  105e48:	4313      	orr	r3, r2
  105e4a:	81a3      	strh	r3, [r4, #12]
  105e4c:	1c23      	mov	r3, r4		(add r3, r4, #0)
  105e4e:	3343      	add	r3, #67
  105e50:	6023      	str	r3, [r4, #0]
  105e52:	6123      	str	r3, [r4, #16]
  105e54:	2301      	mov	r3, #1
  105e56:	6163      	str	r3, [r4, #20]
  105e58:	b00f      	add	sp, #60
  105e5a:	bcf0      	pop	{r4, r5, r6, r7}
  105e5c:	bc01      	pop	{r0}
  105e5e:	4700      	bx	r0
  105e60:	89a2      	ldrh	r2, [r4, #12]
  105e62:	2380      	mov	r3, #128
  105e64:	011b      	lsl	r3, r3, #4
  105e66:	4313      	orr	r3, r2
  105e68:	81a3      	strh	r3, [r4, #12]
  105e6a:	2700      	mov	r7, #0
  105e6c:	4d17      	ldr	r5, [pc, #92]	(105ecc <.text+0x5ecc>)
  105e6e:	2680      	mov	r6, #128
  105e70:	00f6      	lsl	r6, r6, #3
  105e72:	6828      	ldr	r0, [r5, #0]
  105e74:	1c31      	mov	r1, r6		(add r1, r6, #0)
  105e76:	f82ff000 	bl	105ed8 <_malloc_r>
  105e7a:	2800      	cmp	r0, #0
  105e7c:	d0e2      	beq	105e44 <__smakebuf+0x4c>
  105e7e:	682a      	ldr	r2, [r5, #0]
  105e80:	4b13      	ldr	r3, [pc, #76]	(105ed0 <.text+0x5ed0>)
  105e82:	63d3      	str	r3, [r2, #60]
  105e84:	89a3      	ldrh	r3, [r4, #12]
  105e86:	2280      	mov	r2, #128
  105e88:	4313      	orr	r3, r2
  105e8a:	81a3      	strh	r3, [r4, #12]
  105e8c:	6020      	str	r0, [r4, #0]
  105e8e:	6120      	str	r0, [r4, #16]
  105e90:	6166      	str	r6, [r4, #20]
  105e92:	2f00      	cmp	r7, #0
  105e94:	d0e0      	beq	105e58 <__smakebuf+0x60>
  105e96:	89e0      	ldrh	r0, [r4, #14]
  105e98:	0400      	lsl	r0, r0, #16
  105e9a:	1400      	asr	r0, r0, #16
  105e9c:	fb0cf001 	bl	1074b8 <isatty>
  105ea0:	2800      	cmp	r0, #0
  105ea2:	d0d9      	beq	105e58 <__smakebuf+0x60>
  105ea4:	89a3      	ldrh	r3, [r4, #12]
  105ea6:	2201      	mov	r2, #1
  105ea8:	4313      	orr	r3, r2
  105eaa:	81a3      	strh	r3, [r4, #12]
  105eac:	e7d4      	b	105e58 <__smakebuf+0x60>
  105eae:	2701      	mov	r7, #1
  105eb0:	e7be      	b	105e30 <__smakebuf+0x38>
  105eb2:	6aa2      	ldr	r2, [r4, #40]
  105eb4:	4b07      	ldr	r3, [pc, #28]	(105ed4 <.text+0x5ed4>)
  105eb6:	429a      	cmp	r2, r3
  105eb8:	d1be      	bne	105e38 <__smakebuf+0x40>
  105eba:	89a3      	ldrh	r3, [r4, #12]
  105ebc:	2280      	mov	r2, #128
  105ebe:	00d2      	lsl	r2, r2, #3
  105ec0:	4313      	orr	r3, r2
  105ec2:	81a3      	strh	r3, [r4, #12]
  105ec4:	2380      	mov	r3, #128
  105ec6:	00db      	lsl	r3, r3, #3
  105ec8:	64e3      	str	r3, [r4, #76]
  105eca:	e7cf      	b	105e6c <__smakebuf+0x74>
  105ecc:	0458      	lsl	r0, r3, #17
  105ece:	0020      	lsl	r0, r4, #0
  105ed0:	5645      	ldrsb	r5, [r0, r1]
  105ed2:	0010      	lsl	r0, r2, #0
  105ed4:	72d1      	strb	r1, [r2, #11]
  105ed6:	0010      	lsl	r0, r2, #0

00105ed8 <_malloc_r>:
  105ed8:	b5f0      	push	{r4, r5, r6, r7, lr}
  105eda:	465f      	mov	r7, fp
  105edc:	4656      	mov	r6, sl
  105ede:	464d      	mov	r5, r9
  105ee0:	4644      	mov	r4, r8
  105ee2:	b4f0      	push	{r4, r5, r6, r7}
  105ee4:	1c0a      	mov	r2, r1		(add r2, r1, #0)
  105ee6:	320b      	add	r2, #11
  105ee8:	b082      	sub	sp, #8
  105eea:	4680      	mov	r8, r0
  105eec:	2a16      	cmp	r2, #22
  105eee:	d80f      	bhi	105f10 <_malloc_r+0x38>
  105ef0:	2610      	mov	r6, #16
  105ef2:	428e      	cmp	r6, r1
  105ef4:	d213      	bcs	105f1e <_malloc_r+0x46>
  105ef6:	230c      	mov	r3, #12
  105ef8:	4641      	mov	r1, r8
  105efa:	600b      	str	r3, [r1, #0]
  105efc:	2000      	mov	r0, #0
  105efe:	b002      	add	sp, #8
  105f00:	bc3c      	pop	{r2, r3, r4, r5}
  105f02:	4690      	mov	r8, r2
  105f04:	4699      	mov	r9, r3
  105f06:	46a2      	mov	sl, r4
  105f08:	46ab      	mov	fp, r5
  105f0a:	bcf0      	pop	{r4, r5, r6, r7}
  105f0c:	bc02      	pop	{r1}
  105f0e:	4708      	bx	r1
  105f10:	2307      	mov	r3, #7
  105f12:	1c16      	mov	r6, r2		(add r6, r2, #0)
  105f14:	439e      	bic	r6, r3
  105f16:	2e00      	cmp	r6, #0
  105f18:	dbed      	blt	105ef6 <_malloc_r+0x1e>
  105f1a:	428e      	cmp	r6, r1
  105f1c:	d3eb      	bcc	105ef6 <_malloc_r+0x1e>
  105f1e:	4640      	mov	r0, r8
  105f20:	fb0ef000 	bl	106540 <__malloc_lock>
  105f24:	4bc6      	ldr	r3, [pc, #792]	(106240 <.text+0x6240>)
  105f26:	429e      	cmp	r6, r3
  105f28:	d914      	bls	105f54 <_malloc_r+0x7c>
  105f2a:	0a72      	lsr	r2, r6, #9
  105f2c:	2a00      	cmp	r2, #0
  105f2e:	d158      	bne	105fe2 <_malloc_r+0x10a>
  105f30:	08f5      	lsr	r5, r6, #3
  105f32:	00eb      	lsl	r3, r5, #3
  105f34:	4fc3      	ldr	r7, [pc, #780]	(106244 <.text+0x6244>)
  105f36:	19d8      	add	r0, r3, r7
  105f38:	68c4      	ldr	r4, [r0, #12]
  105f3a:	46bc      	mov	ip, r7
  105f3c:	42a0      	cmp	r0, r4
  105f3e:	d02f      	beq	105fa0 <_malloc_r+0xc8>
  105f40:	6862      	ldr	r2, [r4, #4]
  105f42:	2303      	mov	r3, #3
  105f44:	1c11      	mov	r1, r2		(add r1, r2, #0)
  105f46:	4399      	bic	r1, r3
  105f48:	1b8b      	sub	r3, r1, r6
  105f4a:	2b0f      	cmp	r3, #15
  105f4c:	dc52      	bgt	105ff4 <_malloc_r+0x11c>
  105f4e:	2b00      	cmp	r3, #0
  105f50:	da0b      	bge	105f6a <_malloc_r+0x92>
  105f52:	e022      	b	105f9a <_malloc_r+0xc2>
  105f54:	4fbb      	ldr	r7, [pc, #748]	(106244 <.text+0x6244>)
  105f56:	08f2      	lsr	r2, r6, #3
  105f58:	00d3      	lsl	r3, r2, #3
  105f5a:	19db      	add	r3, r3, r7
  105f5c:	68dc      	ldr	r4, [r3, #12]
  105f5e:	46bc      	mov	ip, r7
  105f60:	42a3      	cmp	r3, r4
  105f62:	d049      	beq	105ff8 <_malloc_r+0x120>
  105f64:	6861      	ldr	r1, [r4, #4]
  105f66:	2303      	mov	r3, #3
  105f68:	4399      	bic	r1, r3
  105f6a:	68e2      	ldr	r2, [r4, #12]
  105f6c:	68a3      	ldr	r3, [r4, #8]
  105f6e:	1861      	add	r1, r4, r1
  105f70:	60da      	str	r2, [r3, #12]
  105f72:	6093      	str	r3, [r2, #8]
  105f74:	684b      	ldr	r3, [r1, #4]
  105f76:	2201      	mov	r2, #1
  105f78:	4313      	orr	r3, r2
  105f7a:	4640      	mov	r0, r8
  105f7c:	604b      	str	r3, [r1, #4]
  105f7e:	fae1f000 	bl	106544 <__malloc_unlock>
  105f82:	1c20      	mov	r0, r4		(add r0, r4, #0)
  105f84:	3008      	add	r0, #8
  105f86:	e7ba      	b	105efe <_malloc_r+0x26>
  105f88:	6862      	ldr	r2, [r4, #4]
  105f8a:	2303      	mov	r3, #3
  105f8c:	1c11      	mov	r1, r2		(add r1, r2, #0)
  105f8e:	4399      	bic	r1, r3
  105f90:	1b8b      	sub	r3, r1, r6
  105f92:	2b0f      	cmp	r3, #15
  105f94:	dc2e      	bgt	105ff4 <_malloc_r+0x11c>
  105f96:	2b00      	cmp	r3, #0
  105f98:	dae7      	bge	105f6a <_malloc_r+0x92>
  105f9a:	68e4      	ldr	r4, [r4, #12]
  105f9c:	42a0      	cmp	r0, r4
  105f9e:	d1f3      	bne	105f88 <_malloc_r+0xb0>
  105fa0:	3501      	add	r5, #1
  105fa2:	46aa      	mov	sl, r5
  105fa4:	2208      	mov	r2, #8
  105fa6:	19d2      	add	r2, r2, r7
  105fa8:	6894      	ldr	r4, [r2, #8]
  105faa:	4691      	mov	r9, r2
  105fac:	454c      	cmp	r4, r9
  105fae:	d100      	bne	105fb2 <_malloc_r+0xda>
  105fb0:	e0db      	b	10616a <_malloc_r+0x292>
  105fb2:	6862      	ldr	r2, [r4, #4]
  105fb4:	2303      	mov	r3, #3
  105fb6:	1c15      	mov	r5, r2		(add r5, r2, #0)
  105fb8:	439d      	bic	r5, r3
  105fba:	1ba8      	sub	r0, r5, r6
  105fbc:	280f      	cmp	r0, #15
  105fbe:	dd00      	ble	105fc2 <_malloc_r+0xea>
  105fc0:	e084      	b	1060cc <_malloc_r+0x1f4>
  105fc2:	4649      	mov	r1, r9
  105fc4:	60c9      	str	r1, [r1, #12]
  105fc6:	6089      	str	r1, [r1, #8]
  105fc8:	2800      	cmp	r0, #0
  105fca:	db22      	blt	106012 <_malloc_r+0x13a>
  105fcc:	1963      	add	r3, r4, r5
  105fce:	685a      	ldr	r2, [r3, #4]
  105fd0:	2101      	mov	r1, #1
  105fd2:	430a      	orr	r2, r1
  105fd4:	4640      	mov	r0, r8
  105fd6:	605a      	str	r2, [r3, #4]
  105fd8:	fab4f000 	bl	106544 <__malloc_unlock>
  105fdc:	1c20      	mov	r0, r4		(add r0, r4, #0)
  105fde:	3008      	add	r0, #8
  105fe0:	e78d      	b	105efe <_malloc_r+0x26>
  105fe2:	2a04      	cmp	r2, #4
  105fe4:	d910      	bls	106008 <_malloc_r+0x130>
  105fe6:	2a14      	cmp	r2, #20
  105fe8:	d900      	bls	105fec <_malloc_r+0x114>
  105fea:	e0c2      	b	106172 <_malloc_r+0x29a>
  105fec:	1c15      	mov	r5, r2		(add r5, r2, #0)
  105fee:	355b      	add	r5, #91
  105ff0:	00eb      	lsl	r3, r5, #3
  105ff2:	e79f      	b	105f34 <_malloc_r+0x5c>
  105ff4:	3d01      	sub	r5, #1
  105ff6:	e7d3      	b	105fa0 <_malloc_r+0xc8>
  105ff8:	1c23      	mov	r3, r4		(add r3, r4, #0)
  105ffa:	3308      	add	r3, #8
  105ffc:	68dc      	ldr	r4, [r3, #12]
  105ffe:	42a3      	cmp	r3, r4
  106000:	d1b0      	bne	105f64 <_malloc_r+0x8c>
  106002:	3202      	add	r2, #2
  106004:	4692      	mov	sl, r2
  106006:	e7cd      	b	105fa4 <_malloc_r+0xcc>
  106008:	09b3      	lsr	r3, r6, #6
  10600a:	1c1d      	mov	r5, r3		(add r5, r3, #0)
  10600c:	3538      	add	r5, #56
  10600e:	00eb      	lsl	r3, r5, #3
  106010:	e790      	b	105f34 <_malloc_r+0x5c>
  106012:	4b8d      	ldr	r3, [pc, #564]	(106248 <.text+0x6248>)
  106014:	429d      	cmp	r5, r3
  106016:	d900      	bls	10601a <_malloc_r+0x142>
  106018:	e0c2      	b	1061a0 <_malloc_r+0x2c8>
  10601a:	08e9      	lsr	r1, r5, #3
  10601c:	1c0a      	mov	r2, r1		(add r2, r1, #0)
  10601e:	2900      	cmp	r1, #0
  106020:	da00      	bge	106024 <_malloc_r+0x14c>
  106022:	e1b7      	b	106394 <.text+0x6394>
  106024:	1092      	asr	r2, r2, #2
  106026:	2301      	mov	r3, #1
  106028:	4093      	lsl	r3, r2
  10602a:	4a86      	ldr	r2, [pc, #536]	(106244 <.text+0x6244>)
  10602c:	6852      	ldr	r2, [r2, #4]
  10602e:	1c15      	mov	r5, r2		(add r5, r2, #0)
  106030:	431d      	orr	r5, r3
  106032:	4a84      	ldr	r2, [pc, #528]	(106244 <.text+0x6244>)
  106034:	00cb      	lsl	r3, r1, #3
  106036:	18fb      	add	r3, r7, r3
  106038:	6055      	str	r5, [r2, #4]
  10603a:	689a      	ldr	r2, [r3, #8]
  10603c:	60e3      	str	r3, [r4, #12]
  10603e:	60a2      	str	r2, [r4, #8]
  106040:	60d4      	str	r4, [r2, #12]
  106042:	609c      	str	r4, [r3, #8]
  106044:	46ac      	mov	ip, r5
  106046:	4652      	mov	r2, sl
  106048:	2a00      	cmp	r2, #0
  10604a:	da00      	bge	10604e <_malloc_r+0x176>
  10604c:	e0f6      	b	10623c <_malloc_r+0x364>
  10604e:	2301      	mov	r3, #1
  106050:	1092      	asr	r2, r2, #2
  106052:	1c18      	mov	r0, r3		(add r0, r3, #0)
  106054:	4090      	lsl	r0, r2
  106056:	4560      	cmp	r0, ip
  106058:	d84c      	bhi	1060f4 <_malloc_r+0x21c>
  10605a:	4662      	mov	r2, ip
  10605c:	4210      	tst	r0, r2
  10605e:	d10e      	bne	10607e <_malloc_r+0x1a6>
  106060:	2303      	mov	r3, #3
  106062:	4655      	mov	r5, sl
  106064:	439d      	bic	r5, r3
  106066:	1c2b      	mov	r3, r5		(add r3, r5, #0)
  106068:	3304      	add	r3, #4
  10606a:	0040      	lsl	r0, r0, #1
  10606c:	469a      	mov	sl, r3
  10606e:	4202      	tst	r2, r0
  106070:	d105      	bne	10607e <_malloc_r+0x1a6>
  106072:	2104      	mov	r1, #4
  106074:	0040      	lsl	r0, r0, #1
  106076:	4662      	mov	r2, ip
  106078:	448a      	add	sl, r1
  10607a:	4202      	tst	r2, r0
  10607c:	d0f9      	beq	106072 <_malloc_r+0x19a>
  10607e:	4655      	mov	r5, sl
  106080:	00eb      	lsl	r3, r5, #3
  106082:	18fb      	add	r3, r7, r3
  106084:	9301      	str	r3, [sp, #4]
  106086:	46d3      	mov	fp, sl
  106088:	1c19      	mov	r1, r3		(add r1, r3, #0)
  10608a:	68cd      	ldr	r5, [r1, #12]
  10608c:	42a9      	cmp	r1, r5
  10608e:	d104      	bne	10609a <_malloc_r+0x1c2>
  106090:	e0a2      	b	1061d8 <_malloc_r+0x300>
  106092:	68ed      	ldr	r5, [r5, #12]
  106094:	42a9      	cmp	r1, r5
  106096:	d100      	bne	10609a <_malloc_r+0x1c2>
  106098:	e09e      	b	1061d8 <_malloc_r+0x300>
  10609a:	686a      	ldr	r2, [r5, #4]
  10609c:	2303      	mov	r3, #3
  10609e:	439a      	bic	r2, r3
  1060a0:	1b94      	sub	r4, r2, r6
  1060a2:	1c13      	mov	r3, r2		(add r3, r2, #0)
  1060a4:	2c0f      	cmp	r4, #15
  1060a6:	dd00      	ble	1060aa <_malloc_r+0x1d2>
  1060a8:	e119      	b	1062de <.text+0x62de>
  1060aa:	2c00      	cmp	r4, #0
  1060ac:	dbf1      	blt	106092 <_malloc_r+0x1ba>
  1060ae:	18e9      	add	r1, r5, r3
  1060b0:	684b      	ldr	r3, [r1, #4]
  1060b2:	2201      	mov	r2, #1
  1060b4:	4313      	orr	r3, r2
  1060b6:	604b      	str	r3, [r1, #4]
  1060b8:	68ea      	ldr	r2, [r5, #12]
  1060ba:	68ab      	ldr	r3, [r5, #8]
  1060bc:	4640      	mov	r0, r8
  1060be:	60da      	str	r2, [r3, #12]
  1060c0:	6093      	str	r3, [r2, #8]
  1060c2:	fa3ff000 	bl	106544 <__malloc_unlock>
  1060c6:	1c28      	mov	r0, r5		(add r0, r5, #0)
  1060c8:	3008      	add	r0, #8
  1060ca:	e718      	b	105efe <_malloc_r+0x26>
  1060cc:	2101      	mov	r1, #1
  1060ce:	1c33      	mov	r3, r6		(add r3, r6, #0)
  1060d0:	430b      	orr	r3, r1
  1060d2:	6063      	str	r3, [r4, #4]
  1060d4:	1c03      	mov	r3, r0		(add r3, r0, #0)
  1060d6:	19a2      	add	r2, r4, r6
  1060d8:	464d      	mov	r5, r9
  1060da:	430b      	orr	r3, r1
  1060dc:	60ea      	str	r2, [r5, #12]
  1060de:	60aa      	str	r2, [r5, #8]
  1060e0:	5010      	str	r0, [r2, r0]
  1060e2:	60d5      	str	r5, [r2, #12]
  1060e4:	4640      	mov	r0, r8
  1060e6:	6095      	str	r5, [r2, #8]
  1060e8:	6053      	str	r3, [r2, #4]
  1060ea:	fa2bf000 	bl	106544 <__malloc_unlock>
  1060ee:	1c20      	mov	r0, r4		(add r0, r4, #0)
  1060f0:	3008      	add	r0, #8
  1060f2:	e704      	b	105efe <_malloc_r+0x26>
  1060f4:	4953      	ldr	r1, [pc, #332]	(106244 <.text+0x6244>)
  1060f6:	688c      	ldr	r4, [r1, #8]
  1060f8:	6862      	ldr	r2, [r4, #4]
  1060fa:	2303      	mov	r3, #3
  1060fc:	439a      	bic	r2, r3
  1060fe:	4693      	mov	fp, r2
  106100:	9400      	str	r4, [sp, #0]
  106102:	1b90      	sub	r0, r2, r6
  106104:	455e      	cmp	r6, fp
  106106:	d801      	bhi	10610c <_malloc_r+0x234>
  106108:	280f      	cmp	r0, #15
  10610a:	dc39      	bgt	106180 <_malloc_r+0x2a8>
  10610c:	4b4f      	ldr	r3, [pc, #316]	(10624c <.text+0x624c>)
  10610e:	1c22      	mov	r2, r4		(add r2, r4, #0)
  106110:	681b      	ldr	r3, [r3, #0]
  106112:	445a      	add	r2, fp
  106114:	4691      	mov	r9, r2
  106116:	18f2      	add	r2, r6, r3
  106118:	4b4d      	ldr	r3, [pc, #308]	(106250 <.text+0x6250>)
  10611a:	681b      	ldr	r3, [r3, #0]
  10611c:	1c17      	mov	r7, r2		(add r7, r2, #0)
  10611e:	3710      	add	r7, #16
  106120:	3301      	add	r3, #1
  106122:	d004      	beq	10612e <_malloc_r+0x256>
  106124:	4b4b      	ldr	r3, [pc, #300]	(106254 <.text+0x6254>)
  106126:	18d2      	add	r2, r2, r3
  106128:	4b4b      	ldr	r3, [pc, #300]	(106258 <.text+0x6258>)
  10612a:	1c17      	mov	r7, r2		(add r7, r2, #0)
  10612c:	401f      	and	r7, r3
  10612e:	4640      	mov	r0, r8
  106130:	1c39      	mov	r1, r7		(add r1, r7, #0)
  106132:	f875f001 	bl	107220 <_sbrk_r>
  106136:	1c05      	mov	r5, r0		(add r5, r0, #0)
  106138:	1c41      	add	r1, r0, #1
  10613a:	d100      	bne	10613e <_malloc_r+0x266>
  10613c:	e10a      	b	106354 <.text+0x6354>
  10613e:	4581      	cmp	r9, r0
  106140:	d800      	bhi	106144 <_malloc_r+0x26c>
  106142:	e08b      	b	10625c <.text+0x625c>
  106144:	4a3f      	ldr	r2, [pc, #252]	(106244 <.text+0x6244>)
  106146:	4294      	cmp	r4, r2
  106148:	d100      	bne	10614c <_malloc_r+0x274>
  10614a:	e087      	b	10625c <.text+0x625c>
  10614c:	4b3d      	ldr	r3, [pc, #244]	(106244 <.text+0x6244>)
  10614e:	689c      	ldr	r4, [r3, #8]
  106150:	6863      	ldr	r3, [r4, #4]
  106152:	2203      	mov	r2, #3
  106154:	4393      	bic	r3, r2
  106156:	1b98      	sub	r0, r3, r6
  106158:	429e      	cmp	r6, r3
  10615a:	d801      	bhi	106160 <_malloc_r+0x288>
  10615c:	280f      	cmp	r0, #15
  10615e:	dc0f      	bgt	106180 <_malloc_r+0x2a8>
  106160:	4640      	mov	r0, r8
  106162:	f9eff000 	bl	106544 <__malloc_unlock>
  106166:	2000      	mov	r0, #0
  106168:	e6c9      	b	105efe <_malloc_r+0x26>
  10616a:	4b36      	ldr	r3, [pc, #216]	(106244 <.text+0x6244>)
  10616c:	685b      	ldr	r3, [r3, #4]
  10616e:	469c      	mov	ip, r3
  106170:	e769      	b	106046 <_malloc_r+0x16e>
  106172:	2a54      	cmp	r2, #84
  106174:	d858      	bhi	106228 <_malloc_r+0x350>
  106176:	0b33      	lsr	r3, r6, #12
  106178:	1c1d      	mov	r5, r3		(add r5, r3, #0)
  10617a:	356e      	add	r5, #110
  10617c:	00eb      	lsl	r3, r5, #3
  10617e:	e6d9      	b	105f34 <_malloc_r+0x5c>
  106180:	2101      	mov	r1, #1
  106182:	1c33      	mov	r3, r6		(add r3, r6, #0)
  106184:	430b      	orr	r3, r1
  106186:	6063      	str	r3, [r4, #4]
  106188:	4d2e      	ldr	r5, [pc, #184]	(106244 <.text+0x6244>)
  10618a:	1c03      	mov	r3, r0		(add r3, r0, #0)
  10618c:	19a2      	add	r2, r4, r6
  10618e:	430b      	orr	r3, r1
  106190:	4640      	mov	r0, r8
  106192:	60aa      	str	r2, [r5, #8]
  106194:	6053      	str	r3, [r2, #4]
  106196:	f9d5f000 	bl	106544 <__malloc_unlock>
  10619a:	1c20      	mov	r0, r4		(add r0, r4, #0)
  10619c:	3008      	add	r0, #8
  10619e:	e6ae      	b	105efe <_malloc_r+0x26>
  1061a0:	0a6a      	lsr	r2, r5, #9
  1061a2:	2a00      	cmp	r2, #0
  1061a4:	d000      	beq	1061a8 <_malloc_r+0x2d0>
  1061a6:	e094      	b	1062d2 <.text+0x62d2>
  1061a8:	08eb      	lsr	r3, r5, #3
  1061aa:	00da      	lsl	r2, r3, #3
  1061ac:	18b8      	add	r0, r7, r2
  1061ae:	6881      	ldr	r1, [r0, #8]
  1061b0:	4288      	cmp	r0, r1
  1061b2:	d100      	bne	1061b6 <_malloc_r+0x2de>
  1061b4:	e0f5      	b	1063a2 <.text+0x63a2>
  1061b6:	684b      	ldr	r3, [r1, #4]
  1061b8:	2203      	mov	r2, #3
  1061ba:	4393      	bic	r3, r2
  1061bc:	429d      	cmp	r5, r3
  1061be:	d202      	bcs	1061c6 <_malloc_r+0x2ee>
  1061c0:	6889      	ldr	r1, [r1, #8]
  1061c2:	4288      	cmp	r0, r1
  1061c4:	d1f7      	bne	1061b6 <_malloc_r+0x2de>
  1061c6:	68c8      	ldr	r0, [r1, #12]
  1061c8:	60a1      	str	r1, [r4, #8]
  1061ca:	60e0      	str	r0, [r4, #12]
  1061cc:	60cc      	str	r4, [r1, #12]
  1061ce:	491d      	ldr	r1, [pc, #116]	(106244 <.text+0x6244>)
  1061d0:	6849      	ldr	r1, [r1, #4]
  1061d2:	468c      	mov	ip, r1
  1061d4:	6084      	str	r4, [r0, #8]
  1061d6:	e736      	b	106046 <_malloc_r+0x16e>
  1061d8:	1c29      	mov	r1, r5		(add r1, r5, #0)
  1061da:	2501      	mov	r5, #1
  1061dc:	44ab      	add	fp, r5
  1061de:	2303      	mov	r3, #3
  1061e0:	465a      	mov	r2, fp
  1061e2:	3108      	add	r1, #8
  1061e4:	421a      	tst	r2, r3
  1061e6:	d000      	beq	1061ea <_malloc_r+0x312>
  1061e8:	e74f      	b	10608a <_malloc_r+0x1b2>
  1061ea:	9c01      	ldr	r4, [sp, #4]
  1061ec:	4652      	mov	r2, sl
  1061ee:	1c21      	mov	r1, r4		(add r1, r4, #0)
  1061f0:	2503      	mov	r5, #3
  1061f2:	422a      	tst	r2, r5
  1061f4:	d100      	bne	1061f8 <_malloc_r+0x320>
  1061f6:	e0f3      	b	1063e0 <.text+0x63e0>
  1061f8:	680b      	ldr	r3, [r1, #0]
  1061fa:	3c08      	sub	r4, #8
  1061fc:	3a01      	sub	r2, #1
  1061fe:	3908      	sub	r1, #8
  106200:	429c      	cmp	r4, r3
  106202:	d0f6      	beq	1061f2 <_malloc_r+0x31a>
  106204:	0040      	lsl	r0, r0, #1
  106206:	4560      	cmp	r0, ip
  106208:	d900      	bls	10620c <_malloc_r+0x334>
  10620a:	e773      	b	1060f4 <_malloc_r+0x21c>
  10620c:	2800      	cmp	r0, #0
  10620e:	d100      	bne	106212 <_malloc_r+0x33a>
  106210:	e770      	b	1060f4 <_malloc_r+0x21c>
  106212:	4661      	mov	r1, ip
  106214:	4208      	tst	r0, r1
  106216:	d105      	bne	106224 <_malloc_r+0x34c>
  106218:	2304      	mov	r3, #4
  10621a:	0040      	lsl	r0, r0, #1
  10621c:	4665      	mov	r5, ip
  10621e:	449b      	add	fp, r3
  106220:	4205      	tst	r5, r0
  106222:	d0f9      	beq	106218 <_malloc_r+0x340>
  106224:	46da      	mov	sl, fp
  106226:	e72a      	b	10607e <_malloc_r+0x1a6>
  106228:	23aa      	mov	r3, #170
  10622a:	005b      	lsl	r3, r3, #1
  10622c:	429a      	cmp	r2, r3
  10622e:	d900      	bls	106232 <_malloc_r+0x35a>
  106230:	e085      	b	10633e <.text+0x633e>
  106232:	0bf3      	lsr	r3, r6, #15
  106234:	1c1d      	mov	r5, r3		(add r5, r3, #0)
  106236:	3577      	add	r5, #119
  106238:	00eb      	lsl	r3, r5, #3
  10623a:	e67b      	b	105f34 <_malloc_r+0x5c>
  10623c:	3203      	add	r2, #3
  10623e:	e706      	b	10604e <_malloc_r+0x176>
  106240:	01f7      	lsl	r7, r6, #7
  106242:	0000      	lsl	r0, r0, #0
  106244:	0478      	lsl	r0, r7, #17
  106246:	0020      	lsl	r0, r4, #0
  106248:	01ff      	lsl	r7, r7, #7
  10624a:	0000      	lsl	r0, r0, #0
  10624c:	08b8      	lsr	r0, r7, #2
  10624e:	0020      	lsl	r0, r4, #0
  106250:	0470      	lsl	r0, r6, #17
  106252:	0020      	lsl	r0, r4, #0
  106254:	100f      	asr	r7, r1, #0
  106256:	0000      	lsl	r0, r0, #0
  106258:	fffff000 	bl	10725a <__sread+0x12>
  10625c:	4b69      	ldr	r3, [pc, #420]	(106404 <.text+0x6404>)
  10625e:	469a      	mov	sl, r3
  106260:	681b      	ldr	r3, [r3, #0]
  106262:	4652      	mov	r2, sl
  106264:	18f9      	add	r1, r7, r3
  106266:	6011      	str	r1, [r2, #0]
  106268:	45a9      	cmp	r9, r5
  10626a:	d050      	beq	10630e <.text+0x630e>
  10626c:	4a66      	ldr	r2, [pc, #408]	(106408 <.text+0x6408>)
  10626e:	6813      	ldr	r3, [r2, #0]
  106270:	3301      	add	r3, #1
  106272:	d100      	bne	106276 <.text+0x6276>
  106274:	e0a8      	b	1063c8 <.text+0x63c8>
  106276:	464a      	mov	r2, r9
  106278:	1aab      	sub	r3, r5, r2
  10627a:	18cb      	add	r3, r1, r3
  10627c:	4651      	mov	r1, sl
  10627e:	600b      	str	r3, [r1, #0]
  106280:	2307      	mov	r3, #7
  106282:	1c2a      	mov	r2, r5		(add r2, r5, #0)
  106284:	401a      	and	r2, r3
  106286:	d161      	bne	10634c <.text+0x634c>
  106288:	2100      	mov	r1, #0
  10628a:	4b60      	ldr	r3, [pc, #384]	(10640c <.text+0x640c>)
  10628c:	19ea      	add	r2, r5, r7
  10628e:	401a      	and	r2, r3
  106290:	2380      	mov	r3, #128
  106292:	015b      	lsl	r3, r3, #5
  106294:	1a9b      	sub	r3, r3, r2
  106296:	18cf      	add	r7, r1, r3
  106298:	4640      	mov	r0, r8
  10629a:	1c39      	mov	r1, r7		(add r1, r7, #0)
  10629c:	ffc0f000 	bl	107220 <_sbrk_r>
  1062a0:	1c42      	add	r2, r0, #1
  1062a2:	d100      	bne	1062a6 <.text+0x62a6>
  1062a4:	e087      	b	1063b6 <.text+0x63b6>
  1062a6:	1b40      	sub	r0, r0, r5
  1062a8:	4b56      	ldr	r3, [pc, #344]	(106404 <.text+0x6404>)
  1062aa:	469a      	mov	sl, r3
  1062ac:	681b      	ldr	r3, [r3, #0]
  1062ae:	4651      	mov	r1, sl
  1062b0:	18fb      	add	r3, r7, r3
  1062b2:	600b      	str	r3, [r1, #0]
  1062b4:	183b      	add	r3, r7, r0
  1062b6:	2001      	mov	r0, #1
  1062b8:	4303      	orr	r3, r0
  1062ba:	4a55      	ldr	r2, [pc, #340]	(106410 <.text+0x6410>)
  1062bc:	606b      	str	r3, [r5, #4]
  1062be:	9b00      	ldr	r3, [sp, #0]
  1062c0:	1c2c      	mov	r4, r5		(add r4, r5, #0)
  1062c2:	6095      	str	r5, [r2, #8]
  1062c4:	4293      	cmp	r3, r2
  1062c6:	d02c      	beq	106322 <.text+0x6322>
  1062c8:	465d      	mov	r5, fp
  1062ca:	2d0f      	cmp	r5, #15
  1062cc:	d845      	bhi	10635a <.text+0x635a>
  1062ce:	6060      	str	r0, [r4, #4]
  1062d0:	e73e      	b	106150 <_malloc_r+0x278>
  1062d2:	2a04      	cmp	r2, #4
  1062d4:	d858      	bhi	106388 <.text+0x6388>
  1062d6:	09ab      	lsr	r3, r5, #6
  1062d8:	3338      	add	r3, #56
  1062da:	00da      	lsl	r2, r3, #3
  1062dc:	e766      	b	1061ac <_malloc_r+0x2d4>
  1062de:	2001      	mov	r0, #1
  1062e0:	1c33      	mov	r3, r6		(add r3, r6, #0)
  1062e2:	4303      	orr	r3, r0
  1062e4:	68e9      	ldr	r1, [r5, #12]
  1062e6:	606b      	str	r3, [r5, #4]
  1062e8:	68ab      	ldr	r3, [r5, #8]
  1062ea:	19aa      	add	r2, r5, r6
  1062ec:	60d9      	str	r1, [r3, #12]
  1062ee:	608b      	str	r3, [r1, #8]
  1062f0:	464b      	mov	r3, r9
  1062f2:	60da      	str	r2, [r3, #12]
  1062f4:	609a      	str	r2, [r3, #8]
  1062f6:	60d3      	str	r3, [r2, #12]
  1062f8:	6093      	str	r3, [r2, #8]
  1062fa:	1c23      	mov	r3, r4		(add r3, r4, #0)
  1062fc:	4303      	orr	r3, r0
  1062fe:	6053      	str	r3, [r2, #4]
  106300:	4640      	mov	r0, r8
  106302:	5114      	str	r4, [r2, r4]
  106304:	f91ef000 	bl	106544 <__malloc_unlock>
  106308:	1c28      	mov	r0, r5		(add r0, r5, #0)
  10630a:	3008      	add	r0, #8
  10630c:	e5f7      	b	105efe <_malloc_r+0x26>
  10630e:	4b3f      	ldr	r3, [pc, #252]	(10640c <.text+0x640c>)
  106310:	421d      	tst	r5, r3
  106312:	d1ab      	bne	10626c <.text+0x626c>
  106314:	4b3e      	ldr	r3, [pc, #248]	(106410 <.text+0x6410>)
  106316:	465d      	mov	r5, fp
  106318:	689c      	ldr	r4, [r3, #8]
  10631a:	2201      	mov	r2, #1
  10631c:	197b      	add	r3, r7, r5
  10631e:	4313      	orr	r3, r2
  106320:	6063      	str	r3, [r4, #4]
  106322:	4651      	mov	r1, sl
  106324:	680a      	ldr	r2, [r1, #0]
  106326:	493b      	ldr	r1, [pc, #236]	(106414 <.text+0x6414>)
  106328:	680b      	ldr	r3, [r1, #0]
  10632a:	429a      	cmp	r2, r3
  10632c:	d900      	bls	106330 <.text+0x6330>
  10632e:	600a      	str	r2, [r1, #0]
  106330:	4939      	ldr	r1, [pc, #228]	(106418 <.text+0x6418>)
  106332:	680b      	ldr	r3, [r1, #0]
  106334:	429a      	cmp	r2, r3
  106336:	d800      	bhi	10633a <.text+0x633a>
  106338:	e70a      	b	106150 <_malloc_r+0x278>
  10633a:	600a      	str	r2, [r1, #0]
  10633c:	e708      	b	106150 <_malloc_r+0x278>
  10633e:	4b37      	ldr	r3, [pc, #220]	(10641c <.text+0x641c>)
  106340:	429a      	cmp	r2, r3
  106342:	d929      	bls	106398 <.text+0x6398>
  106344:	23fc      	mov	r3, #252
  106346:	257e      	mov	r5, #126
  106348:	009b      	lsl	r3, r3, #2
  10634a:	e5f3      	b	105f34 <_malloc_r+0x5c>
  10634c:	2308      	mov	r3, #8
  10634e:	1a99      	sub	r1, r3, r2
  106350:	186d      	add	r5, r5, r1
  106352:	e79a      	b	10628a <.text+0x628a>
  106354:	4a2e      	ldr	r2, [pc, #184]	(106410 <.text+0x6410>)
  106356:	6894      	ldr	r4, [r2, #8]
  106358:	e6fa      	b	106150 <_malloc_r+0x278>
  10635a:	9900      	ldr	r1, [sp, #0]
  10635c:	465a      	mov	r2, fp
  10635e:	2307      	mov	r3, #7
  106360:	3a0c      	sub	r2, #12
  106362:	439a      	bic	r2, r3
  106364:	684b      	ldr	r3, [r1, #4]
  106366:	4003      	and	r3, r0
  106368:	4313      	orr	r3, r2
  10636a:	604b      	str	r3, [r1, #4]
  10636c:	1889      	add	r1, r1, r2
  10636e:	2305      	mov	r3, #5
  106370:	604b      	str	r3, [r1, #4]
  106372:	608b      	str	r3, [r1, #8]
  106374:	2a0f      	cmp	r2, #15
  106376:	d9d4      	bls	106322 <.text+0x6322>
  106378:	9900      	ldr	r1, [sp, #0]
  10637a:	4640      	mov	r0, r8
  10637c:	3108      	add	r1, #8
  10637e:	fa57f7ff 	bl	105830 <_free_r>
  106382:	4d23      	ldr	r5, [pc, #140]	(106410 <.text+0x6410>)
  106384:	68ac      	ldr	r4, [r5, #8]
  106386:	e7cc      	b	106322 <.text+0x6322>
  106388:	2a14      	cmp	r2, #20
  10638a:	d817      	bhi	1063bc <.text+0x63bc>
  10638c:	1c13      	mov	r3, r2		(add r3, r2, #0)
  10638e:	335b      	add	r3, #91
  106390:	00da      	lsl	r2, r3, #3
  106392:	e70b      	b	1061ac <_malloc_r+0x2d4>
  106394:	1cca      	add	r2, r1, #3
  106396:	e645      	b	106024 <_malloc_r+0x14c>
  106398:	0cb3      	lsr	r3, r6, #18
  10639a:	1c1d      	mov	r5, r3		(add r5, r3, #0)
  10639c:	357c      	add	r5, #124
  10639e:	00eb      	lsl	r3, r5, #3
  1063a0:	e5c8      	b	105f34 <_malloc_r+0x5c>
  1063a2:	2b00      	cmp	r3, #0
  1063a4:	db1a      	blt	1063dc <.text+0x63dc>
  1063a6:	109b      	asr	r3, r3, #2
  1063a8:	4665      	mov	r5, ip
  1063aa:	2201      	mov	r2, #1
  1063ac:	409a      	lsl	r2, r3
  1063ae:	686b      	ldr	r3, [r5, #4]
  1063b0:	4313      	orr	r3, r2
  1063b2:	606b      	str	r3, [r5, #4]
  1063b4:	e708      	b	1061c8 <_malloc_r+0x2f0>
  1063b6:	2700      	mov	r7, #0
  1063b8:	2000      	mov	r0, #0
  1063ba:	e775      	b	1062a8 <.text+0x62a8>
  1063bc:	2a54      	cmp	r2, #84
  1063be:	d805      	bhi	1063cc <.text+0x63cc>
  1063c0:	0b2b      	lsr	r3, r5, #12
  1063c2:	336e      	add	r3, #110
  1063c4:	00da      	lsl	r2, r3, #3
  1063c6:	e6f1      	b	1061ac <_malloc_r+0x2d4>
  1063c8:	6015      	str	r5, [r2, #0]
  1063ca:	e759      	b	106280 <.text+0x6280>
  1063cc:	23aa      	mov	r3, #170
  1063ce:	005b      	lsl	r3, r3, #1
  1063d0:	429a      	cmp	r2, r3
  1063d2:	d80b      	bhi	1063ec <.text+0x63ec>
  1063d4:	0beb      	lsr	r3, r5, #15
  1063d6:	3377      	add	r3, #119
  1063d8:	00da      	lsl	r2, r3, #3
  1063da:	e6e7      	b	1061ac <_malloc_r+0x2d4>
  1063dc:	3303      	add	r3, #3
  1063de:	e7e2      	b	1063a6 <.text+0x63a6>
  1063e0:	4661      	mov	r1, ip
  1063e2:	4381      	bic	r1, r0
  1063e4:	4a0a      	ldr	r2, [pc, #40]	(106410 <.text+0x6410>)
  1063e6:	468c      	mov	ip, r1
  1063e8:	6051      	str	r1, [r2, #4]
  1063ea:	e70b      	b	106204 <_malloc_r+0x32c>
  1063ec:	4b0b      	ldr	r3, [pc, #44]	(10641c <.text+0x641c>)
  1063ee:	429a      	cmp	r2, r3
  1063f0:	d903      	bls	1063fa <.text+0x63fa>
  1063f2:	22fc      	mov	r2, #252
  1063f4:	237e      	mov	r3, #126
  1063f6:	0092      	lsl	r2, r2, #2
  1063f8:	e6d8      	b	1061ac <_malloc_r+0x2d4>
  1063fa:	0cab      	lsr	r3, r5, #18
  1063fc:	337c      	add	r3, #124
  1063fe:	00da      	lsl	r2, r3, #3
  106400:	e6d4      	b	1061ac <_malloc_r+0x2d4>
  106402:	0000      	lsl	r0, r0, #0
  106404:	0888      	lsr	r0, r1, #2
  106406:	0020      	lsl	r0, r4, #0
  106408:	0470      	lsl	r0, r6, #17
  10640a:	0020      	lsl	r0, r4, #0
  10640c:	0fff      	lsr	r7, r7, #31
  10640e:	0000      	lsl	r0, r0, #0
  106410:	0478      	lsl	r0, r7, #17
  106412:	0020      	lsl	r0, r4, #0
  106414:	08b4      	lsr	r4, r6, #2
  106416:	0020      	lsl	r0, r4, #0
  106418:	08b0      	lsr	r0, r6, #2
  10641a:	0020      	lsl	r0, r4, #0
  10641c:	0554      	lsl	r4, r2, #21
	...

00106420 <memchr>:
  106420:	b5f0      	push	{r4, r5, r6, r7, lr}
  106422:	23ff      	mov	r3, #255
  106424:	1c0d      	mov	r5, r1		(add r5, r1, #0)
  106426:	1c14      	mov	r4, r2		(add r4, r2, #0)
  106428:	401d      	and	r5, r3
  10642a:	2a03      	cmp	r2, #3
  10642c:	d902      	bls	106434 <memchr+0x14>
  10642e:	2303      	mov	r3, #3
  106430:	4218      	tst	r0, r3
  106432:	d007      	beq	106444 <memchr+0x24>
  106434:	1e61      	sub	r1, r4, #1
  106436:	d32c      	bcc	106492 <memchr+0x72>
  106438:	7803      	ldrb	r3, [r0, #0]
  10643a:	429d      	cmp	r5, r3
  10643c:	d12b      	bne	106496 <memchr+0x76>
  10643e:	bcf0      	pop	{r4, r5, r6, r7}
  106440:	bc02      	pop	{r1}
  106442:	4708      	bx	r1
  106444:	1c01      	mov	r1, r0		(add r1, r0, #0)
  106446:	2200      	mov	r2, #0
  106448:	2600      	mov	r6, #0
  10644a:	0233      	lsl	r3, r6, #8
  10644c:	3201      	add	r2, #1
  10644e:	18ee      	add	r6, r5, r3
  106450:	2a04      	cmp	r2, #4
  106452:	d1fa      	bne	10644a <memchr+0x2a>
  106454:	4f14      	ldr	r7, [pc, #80]	(1064a8 <.text+0x64a8>)
  106456:	680a      	ldr	r2, [r1, #0]
  106458:	4814      	ldr	r0, [pc, #80]	(1064ac <.text+0x64ac>)
  10645a:	4072      	eor	r2, r6
  10645c:	1813      	add	r3, r2, r0
  10645e:	4393      	bic	r3, r2
  106460:	423b      	tst	r3, r7
  106462:	d00f      	beq	106484 <memchr+0x64>
  106464:	780b      	ldrb	r3, [r1, #0]
  106466:	1c08      	mov	r0, r1		(add r0, r1, #0)
  106468:	429d      	cmp	r5, r3
  10646a:	d0e8      	beq	10643e <memchr+0x1e>
  10646c:	2200      	mov	r2, #0
  10646e:	3201      	add	r2, #1
  106470:	3001      	add	r0, #1
  106472:	2a04      	cmp	r2, #4
  106474:	d006      	beq	106484 <memchr+0x64>
  106476:	7803      	ldrb	r3, [r0, #0]
  106478:	429d      	cmp	r5, r3
  10647a:	d0e0      	beq	10643e <memchr+0x1e>
  10647c:	3201      	add	r2, #1
  10647e:	3001      	add	r0, #1
  106480:	2a04      	cmp	r2, #4
  106482:	d1f8      	bne	106476 <memchr+0x56>
  106484:	3c04      	sub	r4, #4
  106486:	3104      	add	r1, #4
  106488:	2c03      	cmp	r4, #3
  10648a:	d8e4      	bhi	106456 <memchr+0x36>
  10648c:	1c08      	mov	r0, r1		(add r0, r1, #0)
  10648e:	1e61      	sub	r1, r4, #1
  106490:	d2d2      	bcs	106438 <memchr+0x18>
  106492:	2000      	mov	r0, #0
  106494:	e7d3      	b	10643e <memchr+0x1e>
  106496:	2200      	mov	r2, #0
  106498:	3001      	add	r0, #1
  10649a:	428a      	cmp	r2, r1
  10649c:	d0f9      	beq	106492 <memchr+0x72>
  10649e:	7803      	ldrb	r3, [r0, #0]
  1064a0:	3201      	add	r2, #1
  1064a2:	429d      	cmp	r5, r3
  1064a4:	d1f8      	bne	106498 <memchr+0x78>
  1064a6:	e7ca      	b	10643e <memchr+0x1e>
  1064a8:	8080      	strh	r0, [r0, #4]
  1064aa:	8080      	strh	r0, [r0, #4]
  1064ac:	feff      	second half of BL instruction 0xfeff
  1064ae:	fefe      	second half of BL instruction 0xfefe

001064b0 <memmove>:
  1064b0:	b5f0      	push	{r4, r5, r6, r7, lr}
  1064b2:	1c07      	mov	r7, r0		(add r7, r0, #0)
  1064b4:	1c0e      	mov	r6, r1		(add r6, r1, #0)
  1064b6:	1c15      	mov	r5, r2		(add r5, r2, #0)
  1064b8:	4684      	mov	ip, r0
  1064ba:	1c14      	mov	r4, r2		(add r4, r2, #0)
  1064bc:	4288      	cmp	r0, r1
  1064be:	d911      	bls	1064e4 <memmove+0x34>
  1064c0:	188a      	add	r2, r1, r2
  1064c2:	4290      	cmp	r0, r2
  1064c4:	d20e      	bcs	1064e4 <memmove+0x34>
  1064c6:	1941      	add	r1, r0, r5
  1064c8:	2d00      	cmp	r5, #0
  1064ca:	d007      	beq	1064dc <memmove+0x2c>
  1064cc:	2000      	mov	r0, #0
  1064ce:	3a01      	sub	r2, #1
  1064d0:	7813      	ldrb	r3, [r2, #0]
  1064d2:	3901      	sub	r1, #1
  1064d4:	3001      	add	r0, #1
  1064d6:	700b      	strb	r3, [r1, #0]
  1064d8:	42a8      	cmp	r0, r5
  1064da:	d1f8      	bne	1064ce <memmove+0x1e>
  1064dc:	1c38      	mov	r0, r7		(add r0, r7, #0)
  1064de:	bcf0      	pop	{r4, r5, r6, r7}
  1064e0:	bc02      	pop	{r1}
  1064e2:	4708      	bx	r1
  1064e4:	1c28      	mov	r0, r5		(add r0, r5, #0)
  1064e6:	2d0f      	cmp	r5, #15
  1064e8:	d80b      	bhi	106502 <memmove+0x52>
  1064ea:	1e63      	sub	r3, r4, #1
  1064ec:	d3f6      	bcc	1064dc <memmove+0x2c>
  1064ee:	4662      	mov	r2, ip
  1064f0:	189b      	add	r3, r3, r2
  1064f2:	1c58      	add	r0, r3, #1
  1064f4:	780b      	ldrb	r3, [r1, #0]
  1064f6:	7013      	strb	r3, [r2, #0]
  1064f8:	3201      	add	r2, #1
  1064fa:	3101      	add	r1, #1
  1064fc:	4282      	cmp	r2, r0
  1064fe:	d1f9      	bne	1064f4 <memmove+0x44>
  106500:	e7ec      	b	1064dc <memmove+0x2c>
  106502:	1c32      	mov	r2, r6		(add r2, r6, #0)
  106504:	433a      	orr	r2, r7
  106506:	2303      	mov	r3, #3
  106508:	421a      	tst	r2, r3
  10650a:	d1ee      	bne	1064ea <memmove+0x3a>
  10650c:	1c3a      	mov	r2, r7		(add r2, r7, #0)
  10650e:	1c31      	mov	r1, r6		(add r1, r6, #0)
  106510:	680b      	ldr	r3, [r1, #0]
  106512:	6013      	str	r3, [r2, #0]
  106514:	684b      	ldr	r3, [r1, #4]
  106516:	6053      	str	r3, [r2, #4]
  106518:	688b      	ldr	r3, [r1, #8]
  10651a:	6093      	str	r3, [r2, #8]
  10651c:	68cb      	ldr	r3, [r1, #12]
  10651e:	3810      	sub	r0, #16
  106520:	60d3      	str	r3, [r2, #12]
  106522:	3110      	add	r1, #16
  106524:	3210      	add	r2, #16
  106526:	280f      	cmp	r0, #15
  106528:	d8f2      	bhi	106510 <memmove+0x60>
  10652a:	1c04      	mov	r4, r0		(add r4, r0, #0)
  10652c:	2803      	cmp	r0, #3
  10652e:	d905      	bls	10653c <memmove+0x8c>
  106530:	c908      	ldmia	r1!,{r3}
  106532:	3804      	sub	r0, #4
  106534:	c208      	stmia	r2!,{r3}
  106536:	2803      	cmp	r0, #3
  106538:	d8fa      	bhi	106530 <memmove+0x80>
  10653a:	1c04      	mov	r4, r0		(add r4, r0, #0)
  10653c:	4694      	mov	ip, r2
  10653e:	e7d4      	b	1064ea <memmove+0x3a>

00106540 <__malloc_lock>:
  106540:	4770      	bx	lr
	...

00106544 <__malloc_unlock>:
  106544:	4770      	bx	lr
  106546:	46c0      	nop			(mov r8, r8)

00106548 <_Balloc>:
  106548:	b570      	push	{r4, r5, r6, lr}
  10654a:	1c04      	mov	r4, r0		(add r4, r0, #0)
  10654c:	6cc0      	ldr	r0, [r0, #76]
  10654e:	1c0d      	mov	r5, r1		(add r5, r1, #0)
  106550:	2800      	cmp	r0, #0
  106552:	d00c      	beq	10656e <_Balloc+0x26>
  106554:	00ab      	lsl	r3, r5, #2
  106556:	18c2      	add	r2, r0, r3
  106558:	6810      	ldr	r0, [r2, #0]
  10655a:	2800      	cmp	r0, #0
  10655c:	d011      	beq	106582 <_Balloc+0x3a>
  10655e:	6803      	ldr	r3, [r0, #0]
  106560:	6013      	str	r3, [r2, #0]
  106562:	2300      	mov	r3, #0
  106564:	6103      	str	r3, [r0, #16]
  106566:	60c3      	str	r3, [r0, #12]
  106568:	bc70      	pop	{r4, r5, r6}
  10656a:	bc02      	pop	{r1}
  10656c:	4708      	bx	r1
  10656e:	1c20      	mov	r0, r4		(add r0, r4, #0)
  106570:	2104      	mov	r1, #4
  106572:	2210      	mov	r2, #16
  106574:	f9b6f001 	bl	1078e4 <_calloc_r>
  106578:	64e0      	str	r0, [r4, #76]
  10657a:	2800      	cmp	r0, #0
  10657c:	d1ea      	bne	106554 <_Balloc+0xc>
  10657e:	2000      	mov	r0, #0
  106580:	e7f2      	b	106568 <_Balloc+0x20>
  106582:	2301      	mov	r3, #1
  106584:	1c1e      	mov	r6, r3		(add r6, r3, #0)
  106586:	40ae      	lsl	r6, r5
  106588:	00b2      	lsl	r2, r6, #2
  10658a:	3214      	add	r2, #20
  10658c:	1c20      	mov	r0, r4		(add r0, r4, #0)
  10658e:	2101      	mov	r1, #1
  106590:	f9a8f001 	bl	1078e4 <_calloc_r>
  106594:	2800      	cmp	r0, #0
  106596:	d0f2      	beq	10657e <_Balloc+0x36>
  106598:	6045      	str	r5, [r0, #4]
  10659a:	6086      	str	r6, [r0, #8]
  10659c:	e7e1      	b	106562 <_Balloc+0x1a>
	...

001065a0 <_Bfree>:
  1065a0:	1c02      	mov	r2, r0		(add r2, r0, #0)
  1065a2:	1c08      	mov	r0, r1		(add r0, r1, #0)
  1065a4:	2900      	cmp	r1, #0
  1065a6:	d005      	beq	1065b4 <_Bfree+0x14>
  1065a8:	684b      	ldr	r3, [r1, #4]
  1065aa:	6cd1      	ldr	r1, [r2, #76]
  1065ac:	009b      	lsl	r3, r3, #2
  1065ae:	585a      	ldr	r2, [r3, r1]
  1065b0:	6002      	str	r2, [r0, #0]
  1065b2:	5058      	str	r0, [r3, r1]
  1065b4:	4770      	bx	lr
	...

001065b8 <_multadd>:
  1065b8:	b5f0      	push	{r4, r5, r6, r7, lr}
  1065ba:	4657      	mov	r7, sl
  1065bc:	464e      	mov	r6, r9
  1065be:	4645      	mov	r5, r8
  1065c0:	b4e0      	push	{r5, r6, r7}
  1065c2:	468a      	mov	sl, r1
  1065c4:	1c16      	mov	r6, r2		(add r6, r2, #0)
  1065c6:	690a      	ldr	r2, [r1, #16]
  1065c8:	4681      	mov	r9, r0
  1065ca:	4f21      	ldr	r7, [pc, #132]	(106650 <.text+0x6650>)
  1065cc:	4650      	mov	r0, sl
  1065ce:	1c1d      	mov	r5, r3		(add r5, r3, #0)
  1065d0:	4690      	mov	r8, r2
  1065d2:	3014      	add	r0, #20
  1065d4:	2400      	mov	r4, #0
  1065d6:	6803      	ldr	r3, [r0, #0]
  1065d8:	1c1a      	mov	r2, r3		(add r2, r3, #0)
  1065da:	403a      	and	r2, r7
  1065dc:	1c31      	mov	r1, r6		(add r1, r6, #0)
  1065de:	4351      	mul	r1, r2
  1065e0:	0c1b      	lsr	r3, r3, #16
  1065e2:	4373      	mul	r3, r6
  1065e4:	1949      	add	r1, r1, r5
  1065e6:	0c0a      	lsr	r2, r1, #16
  1065e8:	189b      	add	r3, r3, r2
  1065ea:	0c1d      	lsr	r5, r3, #16
  1065ec:	4039      	and	r1, r7
  1065ee:	041b      	lsl	r3, r3, #16
  1065f0:	185b      	add	r3, r3, r1
  1065f2:	3401      	add	r4, #1
  1065f4:	c008      	stmia	r0!,{r3}
  1065f6:	45a0      	cmp	r8, r4
  1065f8:	dced      	bgt	1065d6 <_multadd+0x1e>
  1065fa:	2d00      	cmp	r5, #0
  1065fc:	d00b      	beq	106616 <_multadd+0x5e>
  1065fe:	4652      	mov	r2, sl
  106600:	6893      	ldr	r3, [r2, #8]
  106602:	4598      	cmp	r8, r3
  106604:	da0f      	bge	106626 <_multadd+0x6e>
  106606:	4642      	mov	r2, r8
  106608:	0093      	lsl	r3, r2, #2
  10660a:	4453      	add	r3, sl
  10660c:	615d      	str	r5, [r3, #20]
  10660e:	4643      	mov	r3, r8
  106610:	3301      	add	r3, #1
  106612:	4652      	mov	r2, sl
  106614:	6113      	str	r3, [r2, #16]
  106616:	4650      	mov	r0, sl
  106618:	bc1c      	pop	{r2, r3, r4}
  10661a:	4690      	mov	r8, r2
  10661c:	4699      	mov	r9, r3
  10661e:	46a2      	mov	sl, r4
  106620:	bcf0      	pop	{r4, r5, r6, r7}
  106622:	bc02      	pop	{r1}
  106624:	4708      	bx	r1
  106626:	6851      	ldr	r1, [r2, #4]
  106628:	4648      	mov	r0, r9
  10662a:	3101      	add	r1, #1
  10662c:	ff8cf7ff 	bl	106548 <_Balloc>
  106630:	4653      	mov	r3, sl
  106632:	691a      	ldr	r2, [r3, #16]
  106634:	4651      	mov	r1, sl
  106636:	0092      	lsl	r2, r2, #2
  106638:	1c04      	mov	r4, r0		(add r4, r0, #0)
  10663a:	310c      	add	r1, #12
  10663c:	3208      	add	r2, #8
  10663e:	300c      	add	r0, #12
  106640:	ffdef7fb 	bl	102600 <memcpy>
  106644:	4651      	mov	r1, sl
  106646:	4648      	mov	r0, r9
  106648:	ffaaf7ff 	bl	1065a0 <_Bfree>
  10664c:	46a2      	mov	sl, r4
  10664e:	e7da      	b	106606 <_multadd+0x4e>
  106650:	ffff      	second half of BL instruction 0xffff
	...

00106654 <_s2b>:
  106654:	b5f0      	push	{r4, r5, r6, r7, lr}
  106656:	4657      	mov	r7, sl
  106658:	4646      	mov	r6, r8
  10665a:	b4c0      	push	{r6, r7}
  10665c:	1c07      	mov	r7, r0		(add r7, r0, #0)
  10665e:	1c18      	mov	r0, r3		(add r0, r3, #0)
  106660:	1c0d      	mov	r5, r1		(add r5, r1, #0)
  106662:	3008      	add	r0, #8
  106664:	2109      	mov	r1, #9
  106666:	4690      	mov	r8, r2
  106668:	469a      	mov	sl, r3
  10666a:	9c07      	ldr	r4, [sp, #28]
  10666c:	fa6cf001 	bl	107b48 <__divsi3>
  106670:	2801      	cmp	r0, #1
  106672:	dc38      	bgt	1066e6 <_s2b+0x92>
  106674:	2100      	mov	r1, #0
  106676:	1c38      	mov	r0, r7		(add r0, r7, #0)
  106678:	ff66f7ff 	bl	106548 <_Balloc>
  10667c:	2301      	mov	r3, #1
  10667e:	4642      	mov	r2, r8
  106680:	1c01      	mov	r1, r0		(add r1, r0, #0)
  106682:	6144      	str	r4, [r0, #20]
  106684:	6103      	str	r3, [r0, #16]
  106686:	2a09      	cmp	r2, #9
  106688:	dd19      	ble	1066be <_s2b+0x6a>
  10668a:	1c2c      	mov	r4, r5		(add r4, r5, #0)
  10668c:	3409      	add	r4, #9
  10668e:	2509      	mov	r5, #9
  106690:	e000      	b	106694 <_s2b+0x40>
  106692:	1c34      	mov	r4, r6		(add r4, r6, #0)
  106694:	7823      	ldrb	r3, [r4, #0]
  106696:	1c38      	mov	r0, r7		(add r0, r7, #0)
  106698:	3b30      	sub	r3, #48
  10669a:	220a      	mov	r2, #10
  10669c:	ff8cf7ff 	bl	1065b8 <_multadd>
  1066a0:	3501      	add	r5, #1
  1066a2:	1c66      	add	r6, r4, #1
  1066a4:	1c01      	mov	r1, r0		(add r1, r0, #0)
  1066a6:	4545      	cmp	r5, r8
  1066a8:	d1f3      	bne	106692 <_s2b+0x3e>
  1066aa:	1ca3      	add	r3, r4, #2
  1066ac:	45aa      	cmp	sl, r5
  1066ae:	dc0b      	bgt	1066c8 <_s2b+0x74>
  1066b0:	1c08      	mov	r0, r1		(add r0, r1, #0)
  1066b2:	bc0c      	pop	{r2, r3}
  1066b4:	4690      	mov	r8, r2
  1066b6:	469a      	mov	sl, r3
  1066b8:	bcf0      	pop	{r4, r5, r6, r7}
  1066ba:	bc02      	pop	{r1}
  1066bc:	4708      	bx	r1
  1066be:	1c2b      	mov	r3, r5		(add r3, r5, #0)
  1066c0:	2509      	mov	r5, #9
  1066c2:	330a      	add	r3, #10
  1066c4:	45aa      	cmp	sl, r5
  1066c6:	ddf3      	ble	1066b0 <_s2b+0x5c>
  1066c8:	4652      	mov	r2, sl
  1066ca:	1c1c      	mov	r4, r3		(add r4, r3, #0)
  1066cc:	1b53      	sub	r3, r2, r5
  1066ce:	18e5      	add	r5, r4, r3
  1066d0:	7823      	ldrb	r3, [r4, #0]
  1066d2:	1c38      	mov	r0, r7		(add r0, r7, #0)
  1066d4:	3b30      	sub	r3, #48
  1066d6:	220a      	mov	r2, #10
  1066d8:	ff6ef7ff 	bl	1065b8 <_multadd>
  1066dc:	3401      	add	r4, #1
  1066de:	1c01      	mov	r1, r0		(add r1, r0, #0)
  1066e0:	42ac      	cmp	r4, r5
  1066e2:	d1f5      	bne	1066d0 <_s2b+0x7c>
  1066e4:	e7e4      	b	1066b0 <_s2b+0x5c>
  1066e6:	2301      	mov	r3, #1
  1066e8:	2100      	mov	r1, #0
  1066ea:	005b      	lsl	r3, r3, #1
  1066ec:	3101      	add	r1, #1
  1066ee:	4298      	cmp	r0, r3
  1066f0:	dcfb      	bgt	1066ea <_s2b+0x96>
  1066f2:	e7c0      	b	106676 <_s2b+0x22>

001066f4 <_hi0bits>:
  1066f4:	4b10      	ldr	r3, [pc, #64]	(106738 <.text+0x6738>)
  1066f6:	4218      	tst	r0, r3
  1066f8:	d019      	beq	10672e <_hi0bits+0x3a>
  1066fa:	2200      	mov	r2, #0
  1066fc:	23ff      	mov	r3, #255
  1066fe:	061b      	lsl	r3, r3, #24
  106700:	4218      	tst	r0, r3
  106702:	d101      	bne	106708 <_hi0bits+0x14>
  106704:	3208      	add	r2, #8
  106706:	0200      	lsl	r0, r0, #8
  106708:	23f0      	mov	r3, #240
  10670a:	061b      	lsl	r3, r3, #24
  10670c:	4218      	tst	r0, r3
  10670e:	d101      	bne	106714 <_hi0bits+0x20>
  106710:	3204      	add	r2, #4
  106712:	0100      	lsl	r0, r0, #4
  106714:	23c0      	mov	r3, #192
  106716:	061b      	lsl	r3, r3, #24
  106718:	4218      	tst	r0, r3
  10671a:	d101      	bne	106720 <_hi0bits+0x2c>
  10671c:	3202      	add	r2, #2
  10671e:	0080      	lsl	r0, r0, #2
  106720:	2800      	cmp	r0, #0
  106722:	db02      	blt	10672a <_hi0bits+0x36>
  106724:	3201      	add	r2, #1
  106726:	0043      	lsl	r3, r0, #1
  106728:	d504      	bpl	106734 <_hi0bits+0x40>
  10672a:	1c10      	mov	r0, r2		(add r0, r2, #0)
  10672c:	4770      	bx	lr
  10672e:	0400      	lsl	r0, r0, #16
  106730:	2210      	mov	r2, #16
  106732:	e7e3      	b	1066fc <_hi0bits+0x8>
  106734:	2220      	mov	r2, #32
  106736:	e7f8      	b	10672a <_hi0bits+0x36>
  106738:	0000      	lsl	r0, r0, #0
  10673a:	ffff      	second half of BL instruction 0xffff

0010673c <_lo0bits>:
  10673c:	6802      	ldr	r2, [r0, #0]
  10673e:	2307      	mov	r3, #7
  106740:	1c01      	mov	r1, r0		(add r1, r0, #0)
  106742:	421a      	tst	r2, r3
  106744:	d007      	beq	106756 <_lo0bits+0x1a>
  106746:	07d3      	lsl	r3, r2, #31
  106748:	d423      	bmi	106792 <_lo0bits+0x56>
  10674a:	0793      	lsl	r3, r2, #30
  10674c:	d425      	bmi	10679a <_lo0bits+0x5e>
  10674e:	0893      	lsr	r3, r2, #2
  106750:	6003      	str	r3, [r0, #0]
  106752:	2002      	mov	r0, #2
  106754:	4770      	bx	lr
  106756:	4b13      	ldr	r3, [pc, #76]	(1067a4 <.text+0x67a4>)
  106758:	421a      	tst	r2, r3
  10675a:	d017      	beq	10678c <_lo0bits+0x50>
  10675c:	2000      	mov	r0, #0
  10675e:	23ff      	mov	r3, #255
  106760:	421a      	tst	r2, r3
  106762:	d101      	bne	106768 <_lo0bits+0x2c>
  106764:	3008      	add	r0, #8
  106766:	0a12      	lsr	r2, r2, #8
  106768:	230f      	mov	r3, #15
  10676a:	421a      	tst	r2, r3
  10676c:	d101      	bne	106772 <_lo0bits+0x36>
  10676e:	3004      	add	r0, #4
  106770:	0912      	lsr	r2, r2, #4
  106772:	2303      	mov	r3, #3
  106774:	421a      	tst	r2, r3
  106776:	d101      	bne	10677c <_lo0bits+0x40>
  106778:	3002      	add	r0, #2
  10677a:	0892      	lsr	r2, r2, #2
  10677c:	07d3      	lsl	r3, r2, #31
  10677e:	d403      	bmi	106788 <_lo0bits+0x4c>
  106780:	0852      	lsr	r2, r2, #1
  106782:	3001      	add	r0, #1
  106784:	2a00      	cmp	r2, #0
  106786:	d006      	beq	106796 <_lo0bits+0x5a>
  106788:	600a      	str	r2, [r1, #0]
  10678a:	e7e3      	b	106754 <_lo0bits+0x18>
  10678c:	0c12      	lsr	r2, r2, #16
  10678e:	2010      	mov	r0, #16
  106790:	e7e5      	b	10675e <_lo0bits+0x22>
  106792:	2000      	mov	r0, #0
  106794:	e7de      	b	106754 <_lo0bits+0x18>
  106796:	2020      	mov	r0, #32
  106798:	e7dc      	b	106754 <_lo0bits+0x18>
  10679a:	0853      	lsr	r3, r2, #1
  10679c:	6003      	str	r3, [r0, #0]
  10679e:	2001      	mov	r0, #1
  1067a0:	e7d8      	b	106754 <_lo0bits+0x18>
  1067a2:	0000      	lsl	r0, r0, #0
  1067a4:	ffff      	second half of BL instruction 0xffff
	...

001067a8 <_i2b>:
  1067a8:	b510      	push	{r4, lr}
  1067aa:	1c0c      	mov	r4, r1		(add r4, r1, #0)
  1067ac:	2101      	mov	r1, #1
  1067ae:	fecbf7ff 	bl	106548 <_Balloc>
  1067b2:	2301      	mov	r3, #1
  1067b4:	6144      	str	r4, [r0, #20]
  1067b6:	6103      	str	r3, [r0, #16]
  1067b8:	bc10      	pop	{r4}
  1067ba:	bc02      	pop	{r1}
  1067bc:	4708      	bx	r1
	...

001067c0 <_multiply>:
  1067c0:	b5f0      	push	{r4, r5, r6, r7, lr}
  1067c2:	465f      	mov	r7, fp
  1067c4:	4656      	mov	r6, sl
  1067c6:	464d      	mov	r5, r9
  1067c8:	4644      	mov	r4, r8
  1067ca:	b4f0      	push	{r4, r5, r6, r7}
  1067cc:	690d      	ldr	r5, [r1, #16]
  1067ce:	6916      	ldr	r6, [r2, #16]
  1067d0:	b085      	sub	sp, #20
  1067d2:	1c0c      	mov	r4, r1		(add r4, r1, #0)
  1067d4:	1c17      	mov	r7, r2		(add r7, r2, #0)
  1067d6:	42b5      	cmp	r5, r6
  1067d8:	da03      	bge	1067e2 <_multiply+0x22>
  1067da:	1c35      	mov	r5, r6		(add r5, r6, #0)
  1067dc:	690e      	ldr	r6, [r1, #16]
  1067de:	1c0f      	mov	r7, r1		(add r7, r1, #0)
  1067e0:	1c14      	mov	r4, r2		(add r4, r2, #0)
  1067e2:	68a3      	ldr	r3, [r4, #8]
  1067e4:	19aa      	add	r2, r5, r6
  1067e6:	6861      	ldr	r1, [r4, #4]
  1067e8:	9201      	str	r2, [sp, #4]
  1067ea:	429a      	cmp	r2, r3
  1067ec:	dd00      	ble	1067f0 <_multiply+0x30>
  1067ee:	3101      	add	r1, #1
  1067f0:	feaaf7ff 	bl	106548 <_Balloc>
  1067f4:	1c01      	mov	r1, r0		(add r1, r0, #0)
  1067f6:	9000      	str	r0, [sp, #0]
  1067f8:	9801      	ldr	r0, [sp, #4]
  1067fa:	3114      	add	r1, #20
  1067fc:	0083      	lsl	r3, r0, #2
  1067fe:	18cb      	add	r3, r1, r3
  106800:	9302      	str	r3, [sp, #8]
  106802:	4299      	cmp	r1, r3
  106804:	d205      	bcs	106812 <_multiply+0x52>
  106806:	1c0b      	mov	r3, r1		(add r3, r1, #0)
  106808:	2200      	mov	r2, #0
  10680a:	c304      	stmia	r3!,{r2}
  10680c:	9802      	ldr	r0, [sp, #8]
  10680e:	4298      	cmp	r0, r3
  106810:	d8fb      	bhi	10680a <_multiply+0x4a>
  106812:	3414      	add	r4, #20
  106814:	00ab      	lsl	r3, r5, #2
  106816:	3714      	add	r7, #20
  106818:	18e2      	add	r2, r4, r3
  10681a:	46ba      	mov	sl, r7
  10681c:	00b3      	lsl	r3, r6, #2
  10681e:	4453      	add	r3, sl
  106820:	9404      	str	r4, [sp, #16]
  106822:	4691      	mov	r9, r2
  106824:	9303      	str	r3, [sp, #12]
  106826:	459a      	cmp	sl, r3
  106828:	d24f      	bcs	1068ca <_multiply+0x10a>
  10682a:	468b      	mov	fp, r1
  10682c:	4650      	mov	r0, sl
  10682e:	6803      	ldr	r3, [r0, #0]
  106830:	4a35      	ldr	r2, [pc, #212]	(106908 <.text+0x6908>)
  106832:	1c19      	mov	r1, r3		(add r1, r3, #0)
  106834:	4011      	and	r1, r2
  106836:	468c      	mov	ip, r1
  106838:	d01d      	beq	106876 <_multiply+0xb6>
  10683a:	9e04      	ldr	r6, [sp, #16]
  10683c:	465d      	mov	r5, fp
  10683e:	2700      	mov	r7, #0
  106840:	4690      	mov	r8, r2
  106842:	ce01      	ldmia	r6!,{r0}
  106844:	4643      	mov	r3, r8
  106846:	4003      	and	r3, r0
  106848:	4661      	mov	r1, ip
  10684a:	4359      	mul	r1, r3
  10684c:	682c      	ldr	r4, [r5, #0]
  10684e:	4643      	mov	r3, r8
  106850:	4023      	and	r3, r4
  106852:	0c00      	lsr	r0, r0, #16
  106854:	18c9      	add	r1, r1, r3
  106856:	4663      	mov	r3, ip
  106858:	4343      	mul	r3, r0
  10685a:	1879      	add	r1, r7, r1
  10685c:	0c24      	lsr	r4, r4, #16
  10685e:	0c0a      	lsr	r2, r1, #16
  106860:	191b      	add	r3, r3, r4
  106862:	18d2      	add	r2, r2, r3
  106864:	806a      	strh	r2, [r5, #2]
  106866:	8029      	strh	r1, [r5, #0]
  106868:	0c17      	lsr	r7, r2, #16
  10686a:	3504      	add	r5, #4
  10686c:	45b1      	cmp	r9, r6
  10686e:	d8e8      	bhi	106842 <_multiply+0x82>
  106870:	602f      	str	r7, [r5, #0]
  106872:	4652      	mov	r2, sl
  106874:	6813      	ldr	r3, [r2, #0]
  106876:	0c1f      	lsr	r7, r3, #16
  106878:	2f00      	cmp	r7, #0
  10687a:	d020      	beq	1068be <_multiply+0xfe>
  10687c:	465b      	mov	r3, fp
  10687e:	681d      	ldr	r5, [r3, #0]
  106880:	4921      	ldr	r1, [pc, #132]	(106908 <.text+0x6908>)
  106882:	2000      	mov	r0, #0
  106884:	9e04      	ldr	r6, [sp, #16]
  106886:	4684      	mov	ip, r0
  106888:	465c      	mov	r4, fp
  10688a:	1c28      	mov	r0, r5		(add r0, r5, #0)
  10688c:	4688      	mov	r8, r1
  10688e:	ce02      	ldmia	r6!,{r1}
  106890:	4643      	mov	r3, r8
  106892:	400b      	and	r3, r1
  106894:	437b      	mul	r3, r7
  106896:	0c02      	lsr	r2, r0, #16
  106898:	0c09      	lsr	r1, r1, #16
  10689a:	189b      	add	r3, r3, r2
  10689c:	1c0a      	mov	r2, r1		(add r2, r1, #0)
  10689e:	437a      	mul	r2, r7
  1068a0:	4463      	add	r3, ip
  1068a2:	8063      	strh	r3, [r4, #2]
  1068a4:	8025      	strh	r5, [r4, #0]
  1068a6:	3404      	add	r4, #4
  1068a8:	6820      	ldr	r0, [r4, #0]
  1068aa:	4641      	mov	r1, r8
  1068ac:	4001      	and	r1, r0
  1068ae:	1852      	add	r2, r2, r1
  1068b0:	0c1b      	lsr	r3, r3, #16
  1068b2:	189d      	add	r5, r3, r2
  1068b4:	0c2a      	lsr	r2, r5, #16
  1068b6:	4694      	mov	ip, r2
  1068b8:	45b1      	cmp	r9, r6
  1068ba:	d8e8      	bhi	10688e <_multiply+0xce>
  1068bc:	6025      	str	r5, [r4, #0]
  1068be:	2304      	mov	r3, #4
  1068c0:	9803      	ldr	r0, [sp, #12]
  1068c2:	449a      	add	sl, r3
  1068c4:	449b      	add	fp, r3
  1068c6:	4550      	cmp	r0, sl
  1068c8:	d8b0      	bhi	10682c <_multiply+0x6c>
  1068ca:	9901      	ldr	r1, [sp, #4]
  1068cc:	2900      	cmp	r1, #0
  1068ce:	dd0e      	ble	1068ee <_multiply+0x12e>
  1068d0:	9902      	ldr	r1, [sp, #8]
  1068d2:	3904      	sub	r1, #4
  1068d4:	680b      	ldr	r3, [r1, #0]
  1068d6:	2b00      	cmp	r3, #0
  1068d8:	d109      	bne	1068ee <_multiply+0x12e>
  1068da:	9a01      	ldr	r2, [sp, #4]
  1068dc:	2000      	mov	r0, #0
  1068de:	3a01      	sub	r2, #1
  1068e0:	4282      	cmp	r2, r0
  1068e2:	d003      	beq	1068ec <_multiply+0x12c>
  1068e4:	3904      	sub	r1, #4
  1068e6:	680b      	ldr	r3, [r1, #0]
  1068e8:	2b00      	cmp	r3, #0
  1068ea:	d0f8      	beq	1068de <_multiply+0x11e>
  1068ec:	9201      	str	r2, [sp, #4]
  1068ee:	9b00      	ldr	r3, [sp, #0]
  1068f0:	9a01      	ldr	r2, [sp, #4]
  1068f2:	1c18      	mov	r0, r3		(add r0, r3, #0)
  1068f4:	b005      	add	sp, #20
  1068f6:	611a      	str	r2, [r3, #16]
  1068f8:	bc3c      	pop	{r2, r3, r4, r5}
  1068fa:	4690      	mov	r8, r2
  1068fc:	4699      	mov	r9, r3
  1068fe:	46a2      	mov	sl, r4
  106900:	46ab      	mov	fp, r5
  106902:	bcf0      	pop	{r4, r5, r6, r7}
  106904:	bc02      	pop	{r1}
  106906:	4708      	bx	r1
  106908:	ffff      	second half of BL instruction 0xffff
	...

0010690c <_pow5mult>:
  10690c:	b5f0      	push	{r4, r5, r6, r7, lr}
  10690e:	4647      	mov	r7, r8
  106910:	b480      	push	{r7}
  106912:	2303      	mov	r3, #3
  106914:	1c07      	mov	r7, r0		(add r7, r0, #0)
  106916:	4688      	mov	r8, r1
  106918:	1c14      	mov	r4, r2		(add r4, r2, #0)
  10691a:	401a      	and	r2, r3
  10691c:	d12e      	bne	10697c <_pow5mult+0x70>
  10691e:	10a6      	asr	r6, r4, #2
  106920:	2e00      	cmp	r6, #0
  106922:	d01c      	beq	10695e <_pow5mult+0x52>
  106924:	6cbd      	ldr	r5, [r7, #72]
  106926:	2d00      	cmp	r5, #0
  106928:	d032      	beq	106990 <_pow5mult+0x84>
  10692a:	07f3      	lsl	r3, r6, #31
  10692c:	d409      	bmi	106942 <_pow5mult+0x36>
  10692e:	1076      	asr	r6, r6, #1
  106930:	2e00      	cmp	r6, #0
  106932:	d014      	beq	10695e <_pow5mult+0x52>
  106934:	682c      	ldr	r4, [r5, #0]
  106936:	2c00      	cmp	r4, #0
  106938:	d017      	beq	10696a <_pow5mult+0x5e>
  10693a:	1c20      	mov	r0, r4		(add r0, r4, #0)
  10693c:	1c05      	mov	r5, r0		(add r5, r0, #0)
  10693e:	07f3      	lsl	r3, r6, #31
  106940:	d5f5      	bpl	10692e <_pow5mult+0x22>
  106942:	4641      	mov	r1, r8
  106944:	1c2a      	mov	r2, r5		(add r2, r5, #0)
  106946:	1c38      	mov	r0, r7		(add r0, r7, #0)
  106948:	ff3af7ff 	bl	1067c0 <_multiply>
  10694c:	1076      	asr	r6, r6, #1
  10694e:	1c04      	mov	r4, r0		(add r4, r0, #0)
  106950:	4641      	mov	r1, r8
  106952:	1c38      	mov	r0, r7		(add r0, r7, #0)
  106954:	fe24f7ff 	bl	1065a0 <_Bfree>
  106958:	46a0      	mov	r8, r4
  10695a:	2e00      	cmp	r6, #0
  10695c:	d1ea      	bne	106934 <_pow5mult+0x28>
  10695e:	4640      	mov	r0, r8
  106960:	bc04      	pop	{r2}
  106962:	4690      	mov	r8, r2
  106964:	bcf0      	pop	{r4, r5, r6, r7}
  106966:	bc02      	pop	{r1}
  106968:	4708      	bx	r1
  10696a:	1c29      	mov	r1, r5		(add r1, r5, #0)
  10696c:	1c2a      	mov	r2, r5		(add r2, r5, #0)
  10696e:	1c38      	mov	r0, r7		(add r0, r7, #0)
  106970:	ff26f7ff 	bl	1067c0 <_multiply>
  106974:	6028      	str	r0, [r5, #0]
  106976:	1c05      	mov	r5, r0		(add r5, r0, #0)
  106978:	6004      	str	r4, [r0, #0]
  10697a:	e7e0      	b	10693e <_pow5mult+0x32>
  10697c:	4b09      	ldr	r3, [pc, #36]	(1069a4 <.text+0x69a4>)
  10697e:	0092      	lsl	r2, r2, #2
  106980:	18d2      	add	r2, r2, r3
  106982:	3a04      	sub	r2, #4
  106984:	6812      	ldr	r2, [r2, #0]
  106986:	2300      	mov	r3, #0
  106988:	fe16f7ff 	bl	1065b8 <_multadd>
  10698c:	4680      	mov	r8, r0
  10698e:	e7c6      	b	10691e <_pow5mult+0x12>
  106990:	1c38      	mov	r0, r7		(add r0, r7, #0)
  106992:	4905      	ldr	r1, [pc, #20]	(1069a8 <.text+0x69a8>)
  106994:	ff08f7ff 	bl	1067a8 <_i2b>
  106998:	2300      	mov	r3, #0
  10699a:	1c05      	mov	r5, r0		(add r5, r0, #0)
  10699c:	64b8      	str	r0, [r7, #72]
  10699e:	6003      	str	r3, [r0, #0]
  1069a0:	e7c3      	b	10692a <_pow5mult+0x1e>
  1069a2:	0000      	lsl	r0, r0, #0
  1069a4:	ba48      	rev16	r0, r1
  1069a6:	0010      	lsl	r0, r2, #0
  1069a8:	0271      	lsl	r1, r6, #9
	...

001069ac <_lshift>:
  1069ac:	b5f0      	push	{r4, r5, r6, r7, lr}
  1069ae:	465f      	mov	r7, fp
  1069b0:	4656      	mov	r6, sl
  1069b2:	464d      	mov	r5, r9
  1069b4:	4644      	mov	r4, r8
  1069b6:	b4f0      	push	{r4, r5, r6, r7}
  1069b8:	4688      	mov	r8, r1
  1069ba:	4683      	mov	fp, r0
  1069bc:	4640      	mov	r0, r8
  1069be:	6903      	ldr	r3, [r0, #16]
  1069c0:	1154      	asr	r4, r2, #5
  1069c2:	191b      	add	r3, r3, r4
  1069c4:	1c1f      	mov	r7, r3		(add r7, r3, #0)
  1069c6:	4699      	mov	r9, r3
  1069c8:	6883      	ldr	r3, [r0, #8]
  1069ca:	3701      	add	r7, #1
  1069cc:	1c15      	mov	r5, r2		(add r5, r2, #0)
  1069ce:	6849      	ldr	r1, [r1, #4]
  1069d0:	429f      	cmp	r7, r3
  1069d2:	dd03      	ble	1069dc <_lshift+0x30>
  1069d4:	005b      	lsl	r3, r3, #1
  1069d6:	3101      	add	r1, #1
  1069d8:	429f      	cmp	r7, r3
  1069da:	dcfb      	bgt	1069d4 <_lshift+0x28>
  1069dc:	4658      	mov	r0, fp
  1069de:	fdb3f7ff 	bl	106548 <_Balloc>
  1069e2:	1c01      	mov	r1, r0		(add r1, r0, #0)
  1069e4:	4682      	mov	sl, r0
  1069e6:	3114      	add	r1, #20
  1069e8:	2c00      	cmp	r4, #0
  1069ea:	dd05      	ble	1069f8 <_lshift+0x4c>
  1069ec:	2300      	mov	r3, #0
  1069ee:	2200      	mov	r2, #0
  1069f0:	3301      	add	r3, #1
  1069f2:	c104      	stmia	r1!,{r2}
  1069f4:	429c      	cmp	r4, r3
  1069f6:	d1fb      	bne	1069f0 <_lshift+0x44>
  1069f8:	4640      	mov	r0, r8
  1069fa:	6903      	ldr	r3, [r0, #16]
  1069fc:	4642      	mov	r2, r8
  1069fe:	009b      	lsl	r3, r3, #2
  106a00:	3214      	add	r2, #20
  106a02:	18d4      	add	r4, r2, r3
  106a04:	1c2e      	mov	r6, r5		(add r6, r5, #0)
  106a06:	231f      	mov	r3, #31
  106a08:	401e      	and	r6, r3
  106a0a:	d020      	beq	106a4e <_lshift+0xa2>
  106a0c:	2320      	mov	r3, #32
  106a0e:	1b9d      	sub	r5, r3, r6
  106a10:	2000      	mov	r0, #0
  106a12:	6813      	ldr	r3, [r2, #0]
  106a14:	40b3      	lsl	r3, r6
  106a16:	4303      	orr	r3, r0
  106a18:	c108      	stmia	r1!,{r3}
  106a1a:	ca08      	ldmia	r2!,{r3}
  106a1c:	1c18      	mov	r0, r3		(add r0, r3, #0)
  106a1e:	40e8      	lsr	r0, r5
  106a20:	4294      	cmp	r4, r2
  106a22:	d8f6      	bhi	106a12 <_lshift+0x66>
  106a24:	6008      	str	r0, [r1, #0]
  106a26:	2800      	cmp	r0, #0
  106a28:	d001      	beq	106a2e <_lshift+0x82>
  106a2a:	464f      	mov	r7, r9
  106a2c:	3702      	add	r7, #2
  106a2e:	1e7b      	sub	r3, r7, #1
  106a30:	4652      	mov	r2, sl
  106a32:	4658      	mov	r0, fp
  106a34:	4641      	mov	r1, r8
  106a36:	6113      	str	r3, [r2, #16]
  106a38:	fdb2f7ff 	bl	1065a0 <_Bfree>
  106a3c:	4650      	mov	r0, sl
  106a3e:	bc3c      	pop	{r2, r3, r4, r5}
  106a40:	4690      	mov	r8, r2
  106a42:	4699      	mov	r9, r3
  106a44:	46a2      	mov	sl, r4
  106a46:	46ab      	mov	fp, r5
  106a48:	bcf0      	pop	{r4, r5, r6, r7}
  106a4a:	bc02      	pop	{r1}
  106a4c:	4708      	bx	r1
  106a4e:	ca08      	ldmia	r2!,{r3}
  106a50:	c108      	stmia	r1!,{r3}
  106a52:	4294      	cmp	r4, r2
  106a54:	d9eb      	bls	106a2e <_lshift+0x82>
  106a56:	ca08      	ldmia	r2!,{r3}
  106a58:	c108      	stmia	r1!,{r3}
  106a5a:	4294      	cmp	r4, r2
  106a5c:	d8f7      	bhi	106a4e <_lshift+0xa2>
  106a5e:	e7e6      	b	106a2e <_lshift+0x82>

00106a60 <__mcmp>:
  106a60:	b530      	push	{r4, r5, lr}
  106a62:	6903      	ldr	r3, [r0, #16]
  106a64:	690a      	ldr	r2, [r1, #16]
  106a66:	1c04      	mov	r4, r0		(add r4, r0, #0)
  106a68:	1a98      	sub	r0, r3, r2
  106a6a:	1c0d      	mov	r5, r1		(add r5, r1, #0)
  106a6c:	2800      	cmp	r0, #0
  106a6e:	d10e      	bne	106a8e <__mcmp+0x2e>
  106a70:	1c2b      	mov	r3, r5		(add r3, r5, #0)
  106a72:	0092      	lsl	r2, r2, #2
  106a74:	3414      	add	r4, #20
  106a76:	3314      	add	r3, #20
  106a78:	18a1      	add	r1, r4, r2
  106a7a:	18d2      	add	r2, r2, r3
  106a7c:	3904      	sub	r1, #4
  106a7e:	3a04      	sub	r2, #4
  106a80:	6808      	ldr	r0, [r1, #0]
  106a82:	6813      	ldr	r3, [r2, #0]
  106a84:	4298      	cmp	r0, r3
  106a86:	d105      	bne	106a94 <__mcmp+0x34>
  106a88:	428c      	cmp	r4, r1
  106a8a:	d3f7      	bcc	106a7c <__mcmp+0x1c>
  106a8c:	2000      	mov	r0, #0
  106a8e:	bc30      	pop	{r4, r5}
  106a90:	bc02      	pop	{r1}
  106a92:	4708      	bx	r1
  106a94:	4283      	cmp	r3, r0
  106a96:	d801      	bhi	106a9c <__mcmp+0x3c>
  106a98:	2001      	mov	r0, #1
  106a9a:	e7f8      	b	106a8e <__mcmp+0x2e>
  106a9c:	2001      	mov	r0, #1
  106a9e:	4240      	neg	r0, r0
  106aa0:	e7f5      	b	106a8e <__mcmp+0x2e>
	...

00106aa4 <__mdiff>:
  106aa4:	b5f0      	push	{r4, r5, r6, r7, lr}
  106aa6:	465f      	mov	r7, fp
  106aa8:	4656      	mov	r6, sl
  106aaa:	464d      	mov	r5, r9
  106aac:	4644      	mov	r4, r8
  106aae:	b4f0      	push	{r4, r5, r6, r7}
  106ab0:	1c06      	mov	r6, r0		(add r6, r0, #0)
  106ab2:	1c0d      	mov	r5, r1		(add r5, r1, #0)
  106ab4:	1c08      	mov	r0, r1		(add r0, r1, #0)
  106ab6:	1c11      	mov	r1, r2		(add r1, r2, #0)
  106ab8:	1c17      	mov	r7, r2		(add r7, r2, #0)
  106aba:	ffd1f7ff 	bl	106a60 <__mcmp>
  106abe:	1c04      	mov	r4, r0		(add r4, r0, #0)
  106ac0:	2800      	cmp	r0, #0
  106ac2:	d05b      	beq	106b7c <__mdiff+0xd8>
  106ac4:	2800      	cmp	r0, #0
  106ac6:	db62      	blt	106b8e <__mdiff+0xea>
  106ac8:	2400      	mov	r4, #0
  106aca:	6869      	ldr	r1, [r5, #4]
  106acc:	1c30      	mov	r0, r6		(add r0, r6, #0)
  106ace:	fd3bf7ff 	bl	106548 <_Balloc>
  106ad2:	692a      	ldr	r2, [r5, #16]
  106ad4:	3514      	add	r5, #20
  106ad6:	0093      	lsl	r3, r2, #2
  106ad8:	195b      	add	r3, r3, r5
  106ada:	469b      	mov	fp, r3
  106adc:	693b      	ldr	r3, [r7, #16]
  106ade:	1c3e      	mov	r6, r7		(add r6, r7, #0)
  106ae0:	3614      	add	r6, #20
  106ae2:	009b      	lsl	r3, r3, #2
  106ae4:	199b      	add	r3, r3, r6
  106ae6:	4681      	mov	r9, r0
  106ae8:	4698      	mov	r8, r3
  106aea:	4b2b      	ldr	r3, [pc, #172]	(106b98 <.text+0x6b98>)
  106aec:	60c4      	str	r4, [r0, #12]
  106aee:	464c      	mov	r4, r9
  106af0:	4692      	mov	sl, r2
  106af2:	3414      	add	r4, #20
  106af4:	2700      	mov	r7, #0
  106af6:	469c      	mov	ip, r3
  106af8:	cd08      	ldmia	r5!,{r3}
  106afa:	ce02      	ldmia	r6!,{r1}
  106afc:	4660      	mov	r0, ip
  106afe:	4662      	mov	r2, ip
  106b00:	400a      	and	r2, r1
  106b02:	4018      	and	r0, r3
  106b04:	1a80      	sub	r0, r0, r2
  106b06:	19c0      	add	r0, r0, r7
  106b08:	0c1b      	lsr	r3, r3, #16
  106b0a:	0c09      	lsr	r1, r1, #16
  106b0c:	1a5b      	sub	r3, r3, r1
  106b0e:	1402      	asr	r2, r0, #16
  106b10:	189b      	add	r3, r3, r2
  106b12:	8063      	strh	r3, [r4, #2]
  106b14:	8020      	strh	r0, [r4, #0]
  106b16:	141f      	asr	r7, r3, #16
  106b18:	3404      	add	r4, #4
  106b1a:	45b0      	cmp	r8, r6
  106b1c:	d8ec      	bhi	106af8 <__mdiff+0x54>
  106b1e:	45ab      	cmp	fp, r5
  106b20:	d90d      	bls	106b3e <__mdiff+0x9a>
  106b22:	cd08      	ldmia	r5!,{r3}
  106b24:	4a1c      	ldr	r2, [pc, #112]	(106b98 <.text+0x6b98>)
  106b26:	1c19      	mov	r1, r3		(add r1, r3, #0)
  106b28:	4011      	and	r1, r2
  106b2a:	19c9      	add	r1, r1, r7
  106b2c:	0c1b      	lsr	r3, r3, #16
  106b2e:	140a      	asr	r2, r1, #16
  106b30:	189b      	add	r3, r3, r2
  106b32:	8063      	strh	r3, [r4, #2]
  106b34:	8021      	strh	r1, [r4, #0]
  106b36:	141f      	asr	r7, r3, #16
  106b38:	3404      	add	r4, #4
  106b3a:	45ab      	cmp	fp, r5
  106b3c:	d8f1      	bhi	106b22 <__mdiff+0x7e>
  106b3e:	1f22      	sub	r2, r4, #4
  106b40:	6813      	ldr	r3, [r2, #0]
  106b42:	2b00      	cmp	r3, #0
  106b44:	d00b      	beq	106b5e <__mdiff+0xba>
  106b46:	4652      	mov	r2, sl
  106b48:	464b      	mov	r3, r9
  106b4a:	611a      	str	r2, [r3, #16]
  106b4c:	4648      	mov	r0, r9
  106b4e:	bc3c      	pop	{r2, r3, r4, r5}
  106b50:	4690      	mov	r8, r2
  106b52:	4699      	mov	r9, r3
  106b54:	46a2      	mov	sl, r4
  106b56:	46ab      	mov	fp, r5
  106b58:	bcf0      	pop	{r4, r5, r6, r7}
  106b5a:	bc02      	pop	{r1}
  106b5c:	4708      	bx	r1
  106b5e:	2301      	mov	r3, #1
  106b60:	425b      	neg	r3, r3
  106b62:	3a04      	sub	r2, #4
  106b64:	449a      	add	sl, r3
  106b66:	6813      	ldr	r3, [r2, #0]
  106b68:	2b00      	cmp	r3, #0
  106b6a:	d1ec      	bne	106b46 <__mdiff+0xa2>
  106b6c:	2301      	mov	r3, #1
  106b6e:	425b      	neg	r3, r3
  106b70:	3a04      	sub	r2, #4
  106b72:	449a      	add	sl, r3
  106b74:	6813      	ldr	r3, [r2, #0]
  106b76:	2b00      	cmp	r3, #0
  106b78:	d0f1      	beq	106b5e <__mdiff+0xba>
  106b7a:	e7e4      	b	106b46 <__mdiff+0xa2>
  106b7c:	1c30      	mov	r0, r6		(add r0, r6, #0)
  106b7e:	2100      	mov	r1, #0
  106b80:	fce2f7ff 	bl	106548 <_Balloc>
  106b84:	2301      	mov	r3, #1
  106b86:	4681      	mov	r9, r0
  106b88:	6103      	str	r3, [r0, #16]
  106b8a:	6144      	str	r4, [r0, #20]
  106b8c:	e7de      	b	106b4c <__mdiff+0xa8>
  106b8e:	46bc      	mov	ip, r7
  106b90:	2401      	mov	r4, #1
  106b92:	1c2f      	mov	r7, r5		(add r7, r5, #0)
  106b94:	4665      	mov	r5, ip
  106b96:	e798      	b	106aca <__mdiff+0x26>
  106b98:	ffff      	second half of BL instruction 0xffff
	...

00106b9c <_ulp>:
  106b9c:	b530      	push	{r4, r5, lr}
  106b9e:	4b12      	ldr	r3, [pc, #72]	(106be8 <.text+0x6be8>)
  106ba0:	4a12      	ldr	r2, [pc, #72]	(106bec <.text+0x6bec>)
  106ba2:	4003      	and	r3, r0
  106ba4:	189b      	add	r3, r3, r2
  106ba6:	2b00      	cmp	r3, #0
  106ba8:	dd06      	ble	106bb8 <_ulp+0x1c>
  106baa:	1c1c      	mov	r4, r3		(add r4, r3, #0)
  106bac:	2500      	mov	r5, #0
  106bae:	1c29      	mov	r1, r5		(add r1, r5, #0)
  106bb0:	1c20      	mov	r0, r4		(add r0, r4, #0)
  106bb2:	bc30      	pop	{r4, r5}
  106bb4:	bc04      	pop	{r2}
  106bb6:	4710      	bx	r2
  106bb8:	425b      	neg	r3, r3
  106bba:	151a      	asr	r2, r3, #20
  106bbc:	2a13      	cmp	r2, #19
  106bbe:	dd06      	ble	106bce <_ulp+0x32>
  106bc0:	3a14      	sub	r2, #20
  106bc2:	2400      	mov	r4, #0
  106bc4:	2a1e      	cmp	r2, #30
  106bc6:	dd08      	ble	106bda <_ulp+0x3e>
  106bc8:	2201      	mov	r2, #1
  106bca:	1c15      	mov	r5, r2		(add r5, r2, #0)
  106bcc:	e7ef      	b	106bae <_ulp+0x12>
  106bce:	2380      	mov	r3, #128
  106bd0:	031b      	lsl	r3, r3, #12
  106bd2:	1c1c      	mov	r4, r3		(add r4, r3, #0)
  106bd4:	4114      	asr	r4, r2
  106bd6:	2500      	mov	r5, #0
  106bd8:	e7e9      	b	106bae <_ulp+0x12>
  106bda:	231f      	mov	r3, #31
  106bdc:	1a9b      	sub	r3, r3, r2
  106bde:	2201      	mov	r2, #1
  106be0:	409a      	lsl	r2, r3
  106be2:	1c15      	mov	r5, r2		(add r5, r2, #0)
  106be4:	e7e3      	b	106bae <_ulp+0x12>
  106be6:	0000      	lsl	r0, r0, #0
  106be8:	0000      	lsl	r0, r0, #0
  106bea:	7ff0      	ldrb	r0, [r6, #31]
  106bec:	0000      	lsl	r0, r0, #0
  106bee:	fcc0      	second half of BL instruction 0xfcc0

00106bf0 <_b2d>:
  106bf0:	b5f0      	push	{r4, r5, r6, r7, lr}
  106bf2:	4657      	mov	r7, sl
  106bf4:	464e      	mov	r6, r9
  106bf6:	4645      	mov	r5, r8
  106bf8:	b4e0      	push	{r5, r6, r7}
  106bfa:	6903      	ldr	r3, [r0, #16]
  106bfc:	1c0c      	mov	r4, r1		(add r4, r1, #0)
  106bfe:	2114      	mov	r1, #20
  106c00:	1809      	add	r1, r1, r0
  106c02:	4689      	mov	r9, r1
  106c04:	009b      	lsl	r3, r3, #2
  106c06:	444b      	add	r3, r9
  106c08:	1c1d      	mov	r5, r3		(add r5, r3, #0)
  106c0a:	3d04      	sub	r5, #4
  106c0c:	4698      	mov	r8, r3
  106c0e:	682b      	ldr	r3, [r5, #0]
  106c10:	1c18      	mov	r0, r3		(add r0, r3, #0)
  106c12:	469a      	mov	sl, r3
  106c14:	fd6ef7ff 	bl	1066f4 <_hi0bits>
  106c18:	2320      	mov	r3, #32
  106c1a:	1a1b      	sub	r3, r3, r0
  106c1c:	6023      	str	r3, [r4, #0]
  106c1e:	280a      	cmp	r0, #10
  106c20:	dc18      	bgt	106c54 <_b2d+0x64>
  106c22:	230b      	mov	r3, #11
  106c24:	1a19      	sub	r1, r3, r0
  106c26:	4652      	mov	r2, sl
  106c28:	40ca      	lsr	r2, r1
  106c2a:	4b21      	ldr	r3, [pc, #132]	(106cb0 <.text+0x6cb0>)
  106c2c:	1c16      	mov	r6, r2		(add r6, r2, #0)
  106c2e:	431e      	orr	r6, r3
  106c30:	45a9      	cmp	r9, r5
  106c32:	d332      	bcc	106c9a <_b2d+0xaa>
  106c34:	2200      	mov	r2, #0
  106c36:	1c03      	mov	r3, r0		(add r3, r0, #0)
  106c38:	3315      	add	r3, #21
  106c3a:	4651      	mov	r1, sl
  106c3c:	4099      	lsl	r1, r3
  106c3e:	1c17      	mov	r7, r2		(add r7, r2, #0)
  106c40:	430f      	orr	r7, r1
  106c42:	1c30      	mov	r0, r6		(add r0, r6, #0)
  106c44:	1c39      	mov	r1, r7		(add r1, r7, #0)
  106c46:	bc1c      	pop	{r2, r3, r4}
  106c48:	4690      	mov	r8, r2
  106c4a:	4699      	mov	r9, r3
  106c4c:	46a2      	mov	sl, r4
  106c4e:	bcf0      	pop	{r4, r5, r6, r7}
  106c50:	bc04      	pop	{r2}
  106c52:	4710      	bx	r2
  106c54:	45a9      	cmp	r9, r5
  106c56:	d315      	bcc	106c84 <_b2d+0x94>
  106c58:	380b      	sub	r0, #11
  106c5a:	2400      	mov	r4, #0
  106c5c:	2800      	cmp	r0, #0
  106c5e:	d017      	beq	106c90 <_b2d+0xa0>
  106c60:	2320      	mov	r3, #32
  106c62:	1a19      	sub	r1, r3, r0
  106c64:	1c22      	mov	r2, r4		(add r2, r4, #0)
  106c66:	4653      	mov	r3, sl
  106c68:	40ca      	lsr	r2, r1
  106c6a:	4083      	lsl	r3, r0
  106c6c:	4313      	orr	r3, r2
  106c6e:	4a10      	ldr	r2, [pc, #64]	(106cb0 <.text+0x6cb0>)
  106c70:	1c1e      	mov	r6, r3		(add r6, r3, #0)
  106c72:	4316      	orr	r6, r2
  106c74:	454d      	cmp	r5, r9
  106c76:	d816      	bhi	106ca6 <_b2d+0xb6>
  106c78:	2200      	mov	r2, #0
  106c7a:	1c23      	mov	r3, r4		(add r3, r4, #0)
  106c7c:	4083      	lsl	r3, r0
  106c7e:	1c17      	mov	r7, r2		(add r7, r2, #0)
  106c80:	431f      	orr	r7, r3
  106c82:	e7de      	b	106c42 <_b2d+0x52>
  106c84:	4645      	mov	r5, r8
  106c86:	3d08      	sub	r5, #8
  106c88:	380b      	sub	r0, #11
  106c8a:	682c      	ldr	r4, [r5, #0]
  106c8c:	2800      	cmp	r0, #0
  106c8e:	d1e7      	bne	106c60 <_b2d+0x70>
  106c90:	4b07      	ldr	r3, [pc, #28]	(106cb0 <.text+0x6cb0>)
  106c92:	4656      	mov	r6, sl
  106c94:	431e      	orr	r6, r3
  106c96:	1c27      	mov	r7, r4		(add r7, r4, #0)
  106c98:	e7d3      	b	106c42 <_b2d+0x52>
  106c9a:	4643      	mov	r3, r8
  106c9c:	3b08      	sub	r3, #8
  106c9e:	681b      	ldr	r3, [r3, #0]
  106ca0:	1c1a      	mov	r2, r3		(add r2, r3, #0)
  106ca2:	40ca      	lsr	r2, r1
  106ca4:	e7c7      	b	106c36 <_b2d+0x46>
  106ca6:	1f2b      	sub	r3, r5, #4
  106ca8:	681b      	ldr	r3, [r3, #0]
  106caa:	1c1a      	mov	r2, r3		(add r2, r3, #0)
  106cac:	40ca      	lsr	r2, r1
  106cae:	e7e4      	b	106c7a <_b2d+0x8a>
  106cb0:	0000      	lsl	r0, r0, #0
  106cb2:	3ff0      	sub	r7, #240

00106cb4 <_d2b>:
  106cb4:	b5f0      	push	{r4, r5, r6, r7, lr}
  106cb6:	4657      	mov	r7, sl
  106cb8:	4646      	mov	r6, r8
  106cba:	b4c0      	push	{r6, r7}
  106cbc:	1c0c      	mov	r4, r1		(add r4, r1, #0)
  106cbe:	b082      	sub	sp, #8
  106cc0:	2101      	mov	r1, #1
  106cc2:	469a      	mov	sl, r3
  106cc4:	1c15      	mov	r5, r2		(add r5, r2, #0)
  106cc6:	fc3ff7ff 	bl	106548 <_Balloc>
  106cca:	2114      	mov	r1, #20
  106ccc:	1809      	add	r1, r1, r0
  106cce:	4b2f      	ldr	r3, [pc, #188]	(106d8c <.text+0x6d8c>)
  106cd0:	4688      	mov	r8, r1
  106cd2:	1c21      	mov	r1, r4		(add r1, r4, #0)
  106cd4:	4019      	and	r1, r3
  106cd6:	4b2e      	ldr	r3, [pc, #184]	(106d90 <.text+0x6d90>)
  106cd8:	1c22      	mov	r2, r4		(add r2, r4, #0)
  106cda:	401a      	and	r2, r3
  106cdc:	0d17      	lsr	r7, r2, #20
  106cde:	1c06      	mov	r6, r0		(add r6, r0, #0)
  106ce0:	9100      	str	r1, [sp, #0]
  106ce2:	2f00      	cmp	r7, #0
  106ce4:	d003      	beq	106cee <_d2b+0x3a>
  106ce6:	2380      	mov	r3, #128
  106ce8:	035b      	lsl	r3, r3, #13
  106cea:	4319      	orr	r1, r3
  106cec:	9100      	str	r1, [sp, #0]
  106cee:	2d00      	cmp	r5, #0
  106cf0:	d026      	beq	106d40 <_d2b+0x8c>
  106cf2:	a801      	add	r0, sp, #4
  106cf4:	9501      	str	r5, [sp, #4]
  106cf6:	fd21f7ff 	bl	10673c <_lo0bits>
  106cfa:	2800      	cmp	r0, #0
  106cfc:	d03c      	beq	106d78 <_d2b+0xc4>
  106cfe:	9a00      	ldr	r2, [sp, #0]
  106d00:	2320      	mov	r3, #32
  106d02:	1a1b      	sub	r3, r3, r0
  106d04:	409a      	lsl	r2, r3
  106d06:	9b01      	ldr	r3, [sp, #4]
  106d08:	431a      	orr	r2, r3
  106d0a:	6172      	str	r2, [r6, #20]
  106d0c:	9900      	ldr	r1, [sp, #0]
  106d0e:	4642      	mov	r2, r8
  106d10:	40c1      	lsr	r1, r0
  106d12:	9100      	str	r1, [sp, #0]
  106d14:	6051      	str	r1, [r2, #4]
  106d16:	2900      	cmp	r1, #0
  106d18:	d035      	beq	106d86 <_d2b+0xd2>
  106d1a:	2202      	mov	r2, #2
  106d1c:	6132      	str	r2, [r6, #16]
  106d1e:	2f00      	cmp	r7, #0
  106d20:	d119      	bne	106d56 <_d2b+0xa2>
  106d22:	491c      	ldr	r1, [pc, #112]	(106d94 <.text+0x6d94>)
  106d24:	1843      	add	r3, r0, r1
  106d26:	4651      	mov	r1, sl
  106d28:	600b      	str	r3, [r1, #0]
  106d2a:	0093      	lsl	r3, r2, #2
  106d2c:	4443      	add	r3, r8
  106d2e:	3b04      	sub	r3, #4
  106d30:	6818      	ldr	r0, [r3, #0]
  106d32:	0154      	lsl	r4, r2, #5
  106d34:	fcdef7ff 	bl	1066f4 <_hi0bits>
  106d38:	9a09      	ldr	r2, [sp, #36]
  106d3a:	1a24      	sub	r4, r4, r0
  106d3c:	6014      	str	r4, [r2, #0]
  106d3e:	e013      	b	106d68 <_d2b+0xb4>
  106d40:	4668      	mov	r0, sp
  106d42:	fcfbf7ff 	bl	10673c <_lo0bits>
  106d46:	9b00      	ldr	r3, [sp, #0]
  106d48:	6173      	str	r3, [r6, #20]
  106d4a:	2301      	mov	r3, #1
  106d4c:	6133      	str	r3, [r6, #16]
  106d4e:	3020      	add	r0, #32
  106d50:	2201      	mov	r2, #1
  106d52:	2f00      	cmp	r7, #0
  106d54:	d0e5      	beq	106d22 <_d2b+0x6e>
  106d56:	4910      	ldr	r1, [pc, #64]	(106d98 <.text+0x6d98>)
  106d58:	19c3      	add	r3, r0, r7
  106d5a:	185b      	add	r3, r3, r1
  106d5c:	4652      	mov	r2, sl
  106d5e:	6013      	str	r3, [r2, #0]
  106d60:	9909      	ldr	r1, [sp, #36]
  106d62:	2335      	mov	r3, #53
  106d64:	1a1b      	sub	r3, r3, r0
  106d66:	600b      	str	r3, [r1, #0]
  106d68:	1c30      	mov	r0, r6		(add r0, r6, #0)
  106d6a:	b002      	add	sp, #8
  106d6c:	bc0c      	pop	{r2, r3}
  106d6e:	4690      	mov	r8, r2
  106d70:	469a      	mov	sl, r3
  106d72:	bcf0      	pop	{r4, r5, r6, r7}
  106d74:	bc02      	pop	{r1}
  106d76:	4708      	bx	r1
  106d78:	9b01      	ldr	r3, [sp, #4]
  106d7a:	6173      	str	r3, [r6, #20]
  106d7c:	9900      	ldr	r1, [sp, #0]
  106d7e:	4642      	mov	r2, r8
  106d80:	6051      	str	r1, [r2, #4]
  106d82:	2900      	cmp	r1, #0
  106d84:	d1c9      	bne	106d1a <_d2b+0x66>
  106d86:	2201      	mov	r2, #1
  106d88:	6132      	str	r2, [r6, #16]
  106d8a:	e7c8      	b	106d1e <_d2b+0x6a>
  106d8c:	ffff      	second half of BL instruction 0xffff
  106d8e:	000f      	lsl	r7, r1, #0
  106d90:	ffff      	second half of BL instruction 0xffff
  106d92:	7fff      	ldrb	r7, [r7, #31]
  106d94:	fbce      	second half of BL instruction 0xfbce
  106d96:	ffff      	second half of BL instruction 0xffff
  106d98:	fbcd      	second half of BL instruction 0xfbcd
  106d9a:	ffff      	second half of BL instruction 0xffff

00106d9c <_ratio>:
  106d9c:	b5f0      	push	{r4, r5, r6, r7, lr}
  106d9e:	b084      	sub	sp, #16
  106da0:	1c0d      	mov	r5, r1		(add r5, r1, #0)
  106da2:	a903      	add	r1, sp, #12
  106da4:	1c04      	mov	r4, r0		(add r4, r0, #0)
  106da6:	ff23f7ff 	bl	106bf0 <_b2d>
  106daa:	1c06      	mov	r6, r0		(add r6, r0, #0)
  106dac:	1c0f      	mov	r7, r1		(add r7, r1, #0)
  106dae:	1c28      	mov	r0, r5		(add r0, r5, #0)
  106db0:	a902      	add	r1, sp, #8
  106db2:	ff1df7ff 	bl	106bf0 <_b2d>
  106db6:	9b02      	ldr	r3, [sp, #8]
  106db8:	9000      	str	r0, [sp, #0]
  106dba:	9101      	str	r1, [sp, #4]
  106dbc:	9903      	ldr	r1, [sp, #12]
  106dbe:	692a      	ldr	r2, [r5, #16]
  106dc0:	1ac9      	sub	r1, r1, r3
  106dc2:	6923      	ldr	r3, [r4, #16]
  106dc4:	1a9b      	sub	r3, r3, r2
  106dc6:	015b      	lsl	r3, r3, #5
  106dc8:	18c9      	add	r1, r1, r3
  106dca:	2900      	cmp	r1, #0
  106dcc:	dd0b      	ble	106de6 <_ratio+0x4a>
  106dce:	050b      	lsl	r3, r1, #20
  106dd0:	199e      	add	r6, r3, r6
  106dd2:	1c30      	mov	r0, r6		(add r0, r6, #0)
  106dd4:	1c39      	mov	r1, r7		(add r1, r7, #0)
  106dd6:	9a00      	ldr	r2, [sp, #0]
  106dd8:	9b01      	ldr	r3, [sp, #4]
  106dda:	fb0bf004 	bl	10b3f4 <____divdf3_from_thumb>
  106dde:	b004      	add	sp, #16
  106de0:	bcf0      	pop	{r4, r5, r6, r7}
  106de2:	bc04      	pop	{r2}
  106de4:	4710      	bx	r2
  106de6:	9a00      	ldr	r2, [sp, #0]
  106de8:	050b      	lsl	r3, r1, #20
  106dea:	1ad3      	sub	r3, r2, r3
  106dec:	9300      	str	r3, [sp, #0]
  106dee:	e7f0      	b	106dd2 <_ratio+0x36>

00106df0 <_mprec_log10>:
  106df0:	b530      	push	{r4, r5, lr}
  106df2:	1c05      	mov	r5, r0		(add r5, r0, #0)
  106df4:	2817      	cmp	r0, #23
  106df6:	dc07      	bgt	106e08 <_mprec_log10+0x18>
  106df8:	4a09      	ldr	r2, [pc, #36]	(106e20 <.text+0x6e20>)
  106dfa:	00c3      	lsl	r3, r0, #3
  106dfc:	189b      	add	r3, r3, r2
  106dfe:	6818      	ldr	r0, [r3, #0]
  106e00:	6859      	ldr	r1, [r3, #4]
  106e02:	bc30      	pop	{r4, r5}
  106e04:	bc04      	pop	{r2}
  106e06:	4710      	bx	r2
  106e08:	4806      	ldr	r0, [pc, #24]	(106e24 <.text+0x6e24>)
  106e0a:	4907      	ldr	r1, [pc, #28]	(106e28 <.text+0x6e28>)
  106e0c:	2400      	mov	r4, #0
  106e0e:	4a07      	ldr	r2, [pc, #28]	(106e2c <.text+0x6e2c>)
  106e10:	4b07      	ldr	r3, [pc, #28]	(106e30 <.text+0x6e30>)
  106e12:	3401      	add	r4, #1
  106e14:	fad2f004 	bl	10b3bc <____muldf3_from_thumb>
  106e18:	42a5      	cmp	r5, r4
  106e1a:	d1f8      	bne	106e0e <_mprec_log10+0x1e>
  106e1c:	e7f1      	b	106e02 <_mprec_log10+0x12>
  106e1e:	0000      	lsl	r0, r0, #0
  106e20:	b980      	undefined instruction 0xb980
  106e22:	0010      	lsl	r0, r2, #0
  106e24:	0000      	lsl	r0, r0, #0
  106e26:	3ff0      	sub	r7, #240
  106e28:	0000      	lsl	r0, r0, #0
  106e2a:	0000      	lsl	r0, r0, #0
  106e2c:	0000      	lsl	r0, r0, #0
  106e2e:	4024      	and	r4, r4
  106e30:	0000      	lsl	r0, r0, #0
	...

00106e34 <_realloc_r>:
  106e34:	b5f0      	push	{r4, r5, r6, r7, lr}
  106e36:	465f      	mov	r7, fp
  106e38:	4656      	mov	r6, sl
  106e3a:	464d      	mov	r5, r9
  106e3c:	4644      	mov	r4, r8
  106e3e:	b4f0      	push	{r4, r5, r6, r7}
  106e40:	b084      	sub	sp, #16
  106e42:	9000      	str	r0, [sp, #0]
  106e44:	1c0e      	mov	r6, r1		(add r6, r1, #0)
  106e46:	1c15      	mov	r5, r2		(add r5, r2, #0)
  106e48:	2900      	cmp	r1, #0
  106e4a:	d100      	bne	106e4e <_realloc_r+0x1a>
  106e4c:	e103      	b	107056 <_realloc_r+0x222>
  106e4e:	1c34      	mov	r4, r6		(add r4, r6, #0)
  106e50:	9800      	ldr	r0, [sp, #0]
  106e52:	3c08      	sub	r4, #8
  106e54:	fb74f7ff 	bl	106540 <__malloc_lock>
  106e58:	6860      	ldr	r0, [r4, #4]
  106e5a:	1c29      	mov	r1, r5		(add r1, r5, #0)
  106e5c:	2303      	mov	r3, #3
  106e5e:	1c07      	mov	r7, r0		(add r7, r0, #0)
  106e60:	310b      	add	r1, #11
  106e62:	4684      	mov	ip, r0
  106e64:	439f      	bic	r7, r3
  106e66:	2916      	cmp	r1, #22
  106e68:	d813      	bhi	106e92 <_realloc_r+0x5e>
  106e6a:	2110      	mov	r1, #16
  106e6c:	9102      	str	r1, [sp, #8]
  106e6e:	9a02      	ldr	r2, [sp, #8]
  106e70:	468b      	mov	fp, r1
  106e72:	42aa      	cmp	r2, r5
  106e74:	d216      	bcs	106ea4 <_realloc_r+0x70>
  106e76:	9e00      	ldr	r6, [sp, #0]
  106e78:	230c      	mov	r3, #12
  106e7a:	6033      	str	r3, [r6, #0]
  106e7c:	2500      	mov	r5, #0
  106e7e:	1c28      	mov	r0, r5		(add r0, r5, #0)
  106e80:	b004      	add	sp, #16
  106e82:	bc3c      	pop	{r2, r3, r4, r5}
  106e84:	4690      	mov	r8, r2
  106e86:	4699      	mov	r9, r3
  106e88:	46a2      	mov	sl, r4
  106e8a:	46ab      	mov	fp, r5
  106e8c:	bcf0      	pop	{r4, r5, r6, r7}
  106e8e:	bc02      	pop	{r1}
  106e90:	4708      	bx	r1
  106e92:	2307      	mov	r3, #7
  106e94:	4399      	bic	r1, r3
  106e96:	9102      	str	r1, [sp, #8]
  106e98:	468b      	mov	fp, r1
  106e9a:	2900      	cmp	r1, #0
  106e9c:	dbeb      	blt	106e76 <_realloc_r+0x42>
  106e9e:	9a02      	ldr	r2, [sp, #8]
  106ea0:	42aa      	cmp	r2, r5
  106ea2:	d3e8      	bcc	106e76 <_realloc_r+0x42>
  106ea4:	455f      	cmp	r7, fp
  106ea6:	da59      	bge	106f5c <_realloc_r+0x128>
  106ea8:	49cc      	ldr	r1, [pc, #816]	(1071dc <.text+0x71dc>)
  106eaa:	688a      	ldr	r2, [r1, #8]
  106eac:	19e0      	add	r0, r4, r7
  106eae:	4690      	mov	r8, r2
  106eb0:	46a2      	mov	sl, r4
  106eb2:	9101      	str	r1, [sp, #4]
  106eb4:	4540      	cmp	r0, r8
  106eb6:	d100      	bne	106eba <_realloc_r+0x86>
  106eb8:	e0d2      	b	107060 <_realloc_r+0x22c>
  106eba:	6841      	ldr	r1, [r0, #4]
  106ebc:	2301      	mov	r3, #1
  106ebe:	1c0a      	mov	r2, r1		(add r2, r1, #0)
  106ec0:	439a      	bic	r2, r3
  106ec2:	1812      	add	r2, r2, r0
  106ec4:	6852      	ldr	r2, [r2, #4]
  106ec6:	421a      	tst	r2, r3
  106ec8:	d100      	bne	106ecc <_realloc_r+0x98>
  106eca:	e0ca      	b	107062 <_realloc_r+0x22e>
  106ecc:	2000      	mov	r0, #0
  106ece:	2100      	mov	r1, #0
  106ed0:	4663      	mov	r3, ip
  106ed2:	07db      	lsl	r3, r3, #31
  106ed4:	d500      	bpl	106ed8 <_realloc_r+0xa4>
  106ed6:	e08d      	b	106ff4 <_realloc_r+0x1c0>
  106ed8:	6823      	ldr	r3, [r4, #0]
  106eda:	1ae3      	sub	r3, r4, r3
  106edc:	685a      	ldr	r2, [r3, #4]
  106ede:	9303      	str	r3, [sp, #12]
  106ee0:	2303      	mov	r3, #3
  106ee2:	439a      	bic	r2, r3
  106ee4:	2800      	cmp	r0, #0
  106ee6:	d052      	beq	106f8e <_realloc_r+0x15a>
  106ee8:	4540      	cmp	r0, r8
  106eea:	d100      	bne	106eee <_realloc_r+0xba>
  106eec:	e118      	b	107120 <_realloc_r+0x2ec>
  106eee:	188b      	add	r3, r1, r2
  106ef0:	19db      	add	r3, r3, r7
  106ef2:	4699      	mov	r9, r3
  106ef4:	459b      	cmp	fp, r3
  106ef6:	dc4a      	bgt	106f8e <_realloc_r+0x15a>
  106ef8:	68c2      	ldr	r2, [r0, #12]
  106efa:	6883      	ldr	r3, [r0, #8]
  106efc:	9903      	ldr	r1, [sp, #12]
  106efe:	60da      	str	r2, [r3, #12]
  106f00:	6093      	str	r3, [r2, #8]
  106f02:	68ca      	ldr	r2, [r1, #12]
  106f04:	688b      	ldr	r3, [r1, #8]
  106f06:	1c0d      	mov	r5, r1		(add r5, r1, #0)
  106f08:	60da      	str	r2, [r3, #12]
  106f0a:	6093      	str	r3, [r2, #8]
  106f0c:	1f3a      	sub	r2, r7, #4
  106f0e:	468a      	mov	sl, r1
  106f10:	3508      	add	r5, #8
  106f12:	2a24      	cmp	r2, #36
  106f14:	d900      	bls	106f18 <_realloc_r+0xe4>
  106f16:	e0fd      	b	107114 <_realloc_r+0x2e0>
  106f18:	1c30      	mov	r0, r6		(add r0, r6, #0)
  106f1a:	1c29      	mov	r1, r5		(add r1, r5, #0)
  106f1c:	2a13      	cmp	r2, #19
  106f1e:	d915      	bls	106f4c <_realloc_r+0x118>
  106f20:	6833      	ldr	r3, [r6, #0]
  106f22:	4650      	mov	r0, sl
  106f24:	6083      	str	r3, [r0, #8]
  106f26:	6873      	ldr	r3, [r6, #4]
  106f28:	606b      	str	r3, [r5, #4]
  106f2a:	1c33      	mov	r3, r6		(add r3, r6, #0)
  106f2c:	3108      	add	r1, #8
  106f2e:	3308      	add	r3, #8
  106f30:	2a1b      	cmp	r2, #27
  106f32:	d90a      	bls	106f4a <_realloc_r+0x116>
  106f34:	68b3      	ldr	r3, [r6, #8]
  106f36:	60ab      	str	r3, [r5, #8]
  106f38:	68f3      	ldr	r3, [r6, #12]
  106f3a:	4651      	mov	r1, sl
  106f3c:	60eb      	str	r3, [r5, #12]
  106f3e:	1c33      	mov	r3, r6		(add r3, r6, #0)
  106f40:	3118      	add	r1, #24
  106f42:	3310      	add	r3, #16
  106f44:	2a24      	cmp	r2, #36
  106f46:	d100      	bne	106f4a <_realloc_r+0x116>
  106f48:	e0c2      	b	1070d0 <_realloc_r+0x29c>
  106f4a:	1c18      	mov	r0, r3		(add r0, r3, #0)
  106f4c:	6803      	ldr	r3, [r0, #0]
  106f4e:	600b      	str	r3, [r1, #0]
  106f50:	6843      	ldr	r3, [r0, #4]
  106f52:	604b      	str	r3, [r1, #4]
  106f54:	9c03      	ldr	r4, [sp, #12]
  106f56:	6883      	ldr	r3, [r0, #8]
  106f58:	608b      	str	r3, [r1, #8]
  106f5a:	e003      	b	106f64 <_realloc_r+0x130>
  106f5c:	1c25      	mov	r5, r4		(add r5, r4, #0)
  106f5e:	46a2      	mov	sl, r4
  106f60:	3508      	add	r5, #8
  106f62:	46b9      	mov	r9, r7
  106f64:	9e02      	ldr	r6, [sp, #8]
  106f66:	464b      	mov	r3, r9
  106f68:	1b98      	sub	r0, r3, r6
  106f6a:	280f      	cmp	r0, #15
  106f6c:	d900      	bls	106f70 <_realloc_r+0x13c>
  106f6e:	e088      	b	107082 <_realloc_r+0x24e>
  106f70:	6863      	ldr	r3, [r4, #4]
  106f72:	2101      	mov	r1, #1
  106f74:	400b      	and	r3, r1
  106f76:	4648      	mov	r0, r9
  106f78:	4303      	orr	r3, r0
  106f7a:	6063      	str	r3, [r4, #4]
  106f7c:	464a      	mov	r2, r9
  106f7e:	4452      	add	r2, sl
  106f80:	6853      	ldr	r3, [r2, #4]
  106f82:	430b      	orr	r3, r1
  106f84:	6053      	str	r3, [r2, #4]
  106f86:	9800      	ldr	r0, [sp, #0]
  106f88:	fadcf7ff 	bl	106544 <__malloc_unlock>
  106f8c:	e777      	b	106e7e <_realloc_r+0x4a>
  106f8e:	19d2      	add	r2, r2, r7
  106f90:	4691      	mov	r9, r2
  106f92:	4593      	cmp	fp, r2
  106f94:	dc2e      	bgt	106ff4 <_realloc_r+0x1c0>
  106f96:	9b03      	ldr	r3, [sp, #12]
  106f98:	9803      	ldr	r0, [sp, #12]
  106f9a:	68da      	ldr	r2, [r3, #12]
  106f9c:	689b      	ldr	r3, [r3, #8]
  106f9e:	1c05      	mov	r5, r0		(add r5, r0, #0)
  106fa0:	60da      	str	r2, [r3, #12]
  106fa2:	6093      	str	r3, [r2, #8]
  106fa4:	1f3a      	sub	r2, r7, #4
  106fa6:	4682      	mov	sl, r0
  106fa8:	3508      	add	r5, #8
  106faa:	2a24      	cmp	r2, #36
  106fac:	d900      	bls	106fb0 <_realloc_r+0x17c>
  106fae:	e0b1      	b	107114 <_realloc_r+0x2e0>
  106fb0:	1c30      	mov	r0, r6		(add r0, r6, #0)
  106fb2:	1c29      	mov	r1, r5		(add r1, r5, #0)
  106fb4:	2a13      	cmp	r2, #19
  106fb6:	d9c9      	bls	106f4c <_realloc_r+0x118>
  106fb8:	6833      	ldr	r3, [r6, #0]
  106fba:	4651      	mov	r1, sl
  106fbc:	608b      	str	r3, [r1, #8]
  106fbe:	6873      	ldr	r3, [r6, #4]
  106fc0:	606b      	str	r3, [r5, #4]
  106fc2:	1c33      	mov	r3, r6		(add r3, r6, #0)
  106fc4:	3110      	add	r1, #16
  106fc6:	3308      	add	r3, #8
  106fc8:	2a1b      	cmp	r2, #27
  106fca:	d9be      	bls	106f4a <_realloc_r+0x116>
  106fcc:	68b3      	ldr	r3, [r6, #8]
  106fce:	60ab      	str	r3, [r5, #8]
  106fd0:	68f3      	ldr	r3, [r6, #12]
  106fd2:	4651      	mov	r1, sl
  106fd4:	60eb      	str	r3, [r5, #12]
  106fd6:	1c33      	mov	r3, r6		(add r3, r6, #0)
  106fd8:	3118      	add	r1, #24
  106fda:	3310      	add	r3, #16
  106fdc:	2a24      	cmp	r2, #36
  106fde:	d1b4      	bne	106f4a <_realloc_r+0x116>
  106fe0:	6933      	ldr	r3, [r6, #16]
  106fe2:	4652      	mov	r2, sl
  106fe4:	6193      	str	r3, [r2, #24]
  106fe6:	4651      	mov	r1, sl
  106fe8:	6973      	ldr	r3, [r6, #20]
  106fea:	1c30      	mov	r0, r6		(add r0, r6, #0)
  106fec:	3120      	add	r1, #32
  106fee:	3018      	add	r0, #24
  106ff0:	616b      	str	r3, [r5, #20]
  106ff2:	e7ab      	b	106f4c <_realloc_r+0x118>
  106ff4:	1c29      	mov	r1, r5		(add r1, r5, #0)
  106ff6:	9800      	ldr	r0, [sp, #0]
  106ff8:	ff6ef7fe 	bl	105ed8 <_malloc_r>
  106ffc:	1c05      	mov	r5, r0		(add r5, r0, #0)
  106ffe:	2800      	cmp	r0, #0
  107000:	d0c1      	beq	106f86 <_realloc_r+0x152>
  107002:	6863      	ldr	r3, [r4, #4]
  107004:	2201      	mov	r2, #1
  107006:	1c01      	mov	r1, r0		(add r1, r0, #0)
  107008:	4393      	bic	r3, r2
  10700a:	3908      	sub	r1, #8
  10700c:	18e3      	add	r3, r4, r3
  10700e:	4299      	cmp	r1, r3
  107010:	d100      	bne	107014 <_realloc_r+0x1e0>
  107012:	e0d5      	b	1071c0 <_realloc_r+0x38c>
  107014:	1f3a      	sub	r2, r7, #4
  107016:	2a24      	cmp	r2, #36
  107018:	d846      	bhi	1070a8 <_realloc_r+0x274>
  10701a:	1c31      	mov	r1, r6		(add r1, r6, #0)
  10701c:	2a13      	cmp	r2, #19
  10701e:	d913      	bls	107048 <_realloc_r+0x214>
  107020:	6833      	ldr	r3, [r6, #0]
  107022:	6003      	str	r3, [r0, #0]
  107024:	6873      	ldr	r3, [r6, #4]
  107026:	6043      	str	r3, [r0, #4]
  107028:	1c33      	mov	r3, r6		(add r3, r6, #0)
  10702a:	3008      	add	r0, #8
  10702c:	3308      	add	r3, #8
  10702e:	2a1b      	cmp	r2, #27
  107030:	d909      	bls	107046 <_realloc_r+0x212>
  107032:	68b3      	ldr	r3, [r6, #8]
  107034:	60ab      	str	r3, [r5, #8]
  107036:	68f3      	ldr	r3, [r6, #12]
  107038:	1c28      	mov	r0, r5		(add r0, r5, #0)
  10703a:	60eb      	str	r3, [r5, #12]
  10703c:	1c33      	mov	r3, r6		(add r3, r6, #0)
  10703e:	3010      	add	r0, #16
  107040:	3310      	add	r3, #16
  107042:	2a24      	cmp	r2, #36
  107044:	d03b      	beq	1070be <_realloc_r+0x28a>
  107046:	1c19      	mov	r1, r3		(add r1, r3, #0)
  107048:	680b      	ldr	r3, [r1, #0]
  10704a:	6003      	str	r3, [r0, #0]
  10704c:	684b      	ldr	r3, [r1, #4]
  10704e:	6043      	str	r3, [r0, #4]
  107050:	688b      	ldr	r3, [r1, #8]
  107052:	6083      	str	r3, [r0, #8]
  107054:	e02b      	b	1070ae <_realloc_r+0x27a>
  107056:	1c11      	mov	r1, r2		(add r1, r2, #0)
  107058:	ff3ef7fe 	bl	105ed8 <_malloc_r>
  10705c:	1c05      	mov	r5, r0		(add r5, r0, #0)
  10705e:	e70e      	b	106e7e <_realloc_r+0x4a>
  107060:	6841      	ldr	r1, [r0, #4]
  107062:	2303      	mov	r3, #3
  107064:	4399      	bic	r1, r3
  107066:	4540      	cmp	r0, r8
  107068:	d03b      	beq	1070e2 <_realloc_r+0x2ae>
  10706a:	187a      	add	r2, r7, r1
  10706c:	4691      	mov	r9, r2
  10706e:	4593      	cmp	fp, r2
  107070:	dd00      	ble	107074 <_realloc_r+0x240>
  107072:	e72d      	b	106ed0 <_realloc_r+0x9c>
  107074:	68c2      	ldr	r2, [r0, #12]
  107076:	6883      	ldr	r3, [r0, #8]
  107078:	1c25      	mov	r5, r4		(add r5, r4, #0)
  10707a:	3508      	add	r5, #8
  10707c:	60da      	str	r2, [r3, #12]
  10707e:	6093      	str	r3, [r2, #8]
  107080:	e770      	b	106f64 <_realloc_r+0x130>
  107082:	6863      	ldr	r3, [r4, #4]
  107084:	2201      	mov	r2, #1
  107086:	4013      	and	r3, r2
  107088:	4333      	orr	r3, r6
  10708a:	6063      	str	r3, [r4, #4]
  10708c:	1c31      	mov	r1, r6		(add r1, r6, #0)
  10708e:	1c03      	mov	r3, r0		(add r3, r0, #0)
  107090:	4451      	add	r1, sl
  107092:	4313      	orr	r3, r2
  107094:	604b      	str	r3, [r1, #4]
  107096:	1808      	add	r0, r1, r0
  107098:	6843      	ldr	r3, [r0, #4]
  10709a:	4313      	orr	r3, r2
  10709c:	6043      	str	r3, [r0, #4]
  10709e:	3108      	add	r1, #8
  1070a0:	9800      	ldr	r0, [sp, #0]
  1070a2:	fbc5f7fe 	bl	105830 <_free_r>
  1070a6:	e76e      	b	106f86 <_realloc_r+0x152>
  1070a8:	1c31      	mov	r1, r6		(add r1, r6, #0)
  1070aa:	fa01f7ff 	bl	1064b0 <memmove>
  1070ae:	9800      	ldr	r0, [sp, #0]
  1070b0:	1c31      	mov	r1, r6		(add r1, r6, #0)
  1070b2:	fbbdf7fe 	bl	105830 <_free_r>
  1070b6:	9800      	ldr	r0, [sp, #0]
  1070b8:	fa44f7ff 	bl	106544 <__malloc_unlock>
  1070bc:	e6df      	b	106e7e <_realloc_r+0x4a>
  1070be:	6933      	ldr	r3, [r6, #16]
  1070c0:	612b      	str	r3, [r5, #16]
  1070c2:	1c28      	mov	r0, r5		(add r0, r5, #0)
  1070c4:	6973      	ldr	r3, [r6, #20]
  1070c6:	1c31      	mov	r1, r6		(add r1, r6, #0)
  1070c8:	3018      	add	r0, #24
  1070ca:	3118      	add	r1, #24
  1070cc:	616b      	str	r3, [r5, #20]
  1070ce:	e7bb      	b	107048 <_realloc_r+0x214>
  1070d0:	6933      	ldr	r3, [r6, #16]
  1070d2:	4651      	mov	r1, sl
  1070d4:	618b      	str	r3, [r1, #24]
  1070d6:	1c30      	mov	r0, r6		(add r0, r6, #0)
  1070d8:	6973      	ldr	r3, [r6, #20]
  1070da:	3120      	add	r1, #32
  1070dc:	3018      	add	r0, #24
  1070de:	616b      	str	r3, [r5, #20]
  1070e0:	e734      	b	106f4c <_realloc_r+0x118>
  1070e2:	9b02      	ldr	r3, [sp, #8]
  1070e4:	187a      	add	r2, r7, r1
  1070e6:	3310      	add	r3, #16
  1070e8:	429a      	cmp	r2, r3
  1070ea:	da00      	bge	1070ee <_realloc_r+0x2ba>
  1070ec:	e6f0      	b	106ed0 <_realloc_r+0x9c>
  1070ee:	9b02      	ldr	r3, [sp, #8]
  1070f0:	18e1      	add	r1, r4, r3
  1070f2:	1c18      	mov	r0, r3		(add r0, r3, #0)
  1070f4:	1ad3      	sub	r3, r2, r3
  1070f6:	2201      	mov	r2, #1
  1070f8:	4313      	orr	r3, r2
  1070fa:	604b      	str	r3, [r1, #4]
  1070fc:	6863      	ldr	r3, [r4, #4]
  1070fe:	9e01      	ldr	r6, [sp, #4]
  107100:	4013      	and	r3, r2
  107102:	4303      	orr	r3, r0
  107104:	60b1      	str	r1, [r6, #8]
  107106:	6063      	str	r3, [r4, #4]
  107108:	9800      	ldr	r0, [sp, #0]
  10710a:	fa1bf7ff 	bl	106544 <__malloc_unlock>
  10710e:	1c25      	mov	r5, r4		(add r5, r4, #0)
  107110:	3508      	add	r5, #8
  107112:	e6b4      	b	106e7e <_realloc_r+0x4a>
  107114:	1c28      	mov	r0, r5		(add r0, r5, #0)
  107116:	1c31      	mov	r1, r6		(add r1, r6, #0)
  107118:	f9caf7ff 	bl	1064b0 <memmove>
  10711c:	4654      	mov	r4, sl
  10711e:	e721      	b	106f64 <_realloc_r+0x130>
  107120:	188b      	add	r3, r1, r2
  107122:	19db      	add	r3, r3, r7
  107124:	4698      	mov	r8, r3
  107126:	9b02      	ldr	r3, [sp, #8]
  107128:	3310      	add	r3, #16
  10712a:	4598      	cmp	r8, r3
  10712c:	da00      	bge	107130 <_realloc_r+0x2fc>
  10712e:	e72e      	b	106f8e <_realloc_r+0x15a>
  107130:	9803      	ldr	r0, [sp, #12]
  107132:	68c2      	ldr	r2, [r0, #12]
  107134:	6883      	ldr	r3, [r0, #8]
  107136:	1c05      	mov	r5, r0		(add r5, r0, #0)
  107138:	60da      	str	r2, [r3, #12]
  10713a:	6093      	str	r3, [r2, #8]
  10713c:	1f3a      	sub	r2, r7, #4
  10713e:	3508      	add	r5, #8
  107140:	2a24      	cmp	r2, #36
  107142:	d845      	bhi	1071d0 <_realloc_r+0x39c>
  107144:	1c30      	mov	r0, r6		(add r0, r6, #0)
  107146:	1c29      	mov	r1, r5		(add r1, r5, #0)
  107148:	2a13      	cmp	r2, #19
  10714a:	d915      	bls	107178 <_realloc_r+0x344>
  10714c:	6833      	ldr	r3, [r6, #0]
  10714e:	9903      	ldr	r1, [sp, #12]
  107150:	608b      	str	r3, [r1, #8]
  107152:	6873      	ldr	r3, [r6, #4]
  107154:	1c29      	mov	r1, r5		(add r1, r5, #0)
  107156:	606b      	str	r3, [r5, #4]
  107158:	1c33      	mov	r3, r6		(add r3, r6, #0)
  10715a:	3108      	add	r1, #8
  10715c:	3308      	add	r3, #8
  10715e:	2a1b      	cmp	r2, #27
  107160:	d909      	bls	107176 <_realloc_r+0x342>
  107162:	68b3      	ldr	r3, [r6, #8]
  107164:	60ab      	str	r3, [r5, #8]
  107166:	68f3      	ldr	r3, [r6, #12]
  107168:	9903      	ldr	r1, [sp, #12]
  10716a:	60eb      	str	r3, [r5, #12]
  10716c:	1c33      	mov	r3, r6		(add r3, r6, #0)
  10716e:	3118      	add	r1, #24
  107170:	3310      	add	r3, #16
  107172:	2a24      	cmp	r2, #36
  107174:	d01a      	beq	1071ac <_realloc_r+0x378>
  107176:	1c18      	mov	r0, r3		(add r0, r3, #0)
  107178:	6803      	ldr	r3, [r0, #0]
  10717a:	600b      	str	r3, [r1, #0]
  10717c:	6843      	ldr	r3, [r0, #4]
  10717e:	604b      	str	r3, [r1, #4]
  107180:	6883      	ldr	r3, [r0, #8]
  107182:	608b      	str	r3, [r1, #8]
  107184:	9e02      	ldr	r6, [sp, #8]
  107186:	9b03      	ldr	r3, [sp, #12]
  107188:	4642      	mov	r2, r8
  10718a:	1999      	add	r1, r3, r6
  10718c:	1b93      	sub	r3, r2, r6
  10718e:	2201      	mov	r2, #1
  107190:	4313      	orr	r3, r2
  107192:	604b      	str	r3, [r1, #4]
  107194:	9e03      	ldr	r6, [sp, #12]
  107196:	9801      	ldr	r0, [sp, #4]
  107198:	6873      	ldr	r3, [r6, #4]
  10719a:	6081      	str	r1, [r0, #8]
  10719c:	9802      	ldr	r0, [sp, #8]
  10719e:	4013      	and	r3, r2
  1071a0:	4303      	orr	r3, r0
  1071a2:	6073      	str	r3, [r6, #4]
  1071a4:	9800      	ldr	r0, [sp, #0]
  1071a6:	f9cdf7ff 	bl	106544 <__malloc_unlock>
  1071aa:	e668      	b	106e7e <_realloc_r+0x4a>
  1071ac:	6933      	ldr	r3, [r6, #16]
  1071ae:	9a03      	ldr	r2, [sp, #12]
  1071b0:	6193      	str	r3, [r2, #24]
  1071b2:	1c11      	mov	r1, r2		(add r1, r2, #0)
  1071b4:	6973      	ldr	r3, [r6, #20]
  1071b6:	1c30      	mov	r0, r6		(add r0, r6, #0)
  1071b8:	3120      	add	r1, #32
  1071ba:	3018      	add	r0, #24
  1071bc:	616b      	str	r3, [r5, #20]
  1071be:	e7db      	b	107178 <_realloc_r+0x344>
  1071c0:	684b      	ldr	r3, [r1, #4]
  1071c2:	2203      	mov	r2, #3
  1071c4:	4393      	bic	r3, r2
  1071c6:	18ff      	add	r7, r7, r3
  1071c8:	1c25      	mov	r5, r4		(add r5, r4, #0)
  1071ca:	46b9      	mov	r9, r7
  1071cc:	3508      	add	r5, #8
  1071ce:	e6c9      	b	106f64 <_realloc_r+0x130>
  1071d0:	1c28      	mov	r0, r5		(add r0, r5, #0)
  1071d2:	1c31      	mov	r1, r6		(add r1, r6, #0)
  1071d4:	f96cf7ff 	bl	1064b0 <memmove>
  1071d8:	e7d4      	b	107184 <_realloc_r+0x350>
  1071da:	0000      	lsl	r0, r0, #0
  1071dc:	0478      	lsl	r0, r7, #17
  1071de:	0020      	lsl	r0, r4, #0

001071e0 <isinf>:
  1071e0:	424a      	neg	r2, r1
  1071e2:	4b06      	ldr	r3, [pc, #24]	(1071fc <.text+0x71fc>)
  1071e4:	430a      	orr	r2, r1
  1071e6:	4003      	and	r3, r0
  1071e8:	0fd2      	lsr	r2, r2, #31
  1071ea:	431a      	orr	r2, r3
  1071ec:	4b04      	ldr	r3, [pc, #16]	(107200 <.text+0x7200>)
  1071ee:	1a9b      	sub	r3, r3, r2
  1071f0:	425a      	neg	r2, r3
  1071f2:	4313      	orr	r3, r2
  1071f4:	0fdb      	lsr	r3, r3, #31
  1071f6:	2001      	mov	r0, #1
  1071f8:	1ac0      	sub	r0, r0, r3
  1071fa:	4770      	bx	lr
  1071fc:	ffff      	second half of BL instruction 0xffff
  1071fe:	7fff      	ldrb	r7, [r7, #31]
  107200:	0000      	lsl	r0, r0, #0
  107202:	7ff0      	ldrb	r0, [r6, #31]

00107204 <isnan>:
  107204:	424a      	neg	r2, r1
  107206:	4b04      	ldr	r3, [pc, #16]	(107218 <.text+0x7218>)
  107208:	430a      	orr	r2, r1
  10720a:	4003      	and	r3, r0
  10720c:	0fd2      	lsr	r2, r2, #31
  10720e:	4803      	ldr	r0, [pc, #12]	(10721c <.text+0x721c>)
  107210:	431a      	orr	r2, r3
  107212:	1a80      	sub	r0, r0, r2
  107214:	0fc0      	lsr	r0, r0, #31
  107216:	4770      	bx	lr
  107218:	ffff      	second half of BL instruction 0xffff
  10721a:	7fff      	ldrb	r7, [r7, #31]
  10721c:	0000      	lsl	r0, r0, #0
  10721e:	7ff0      	ldrb	r0, [r6, #31]

00107220 <_sbrk_r>:
  107220:	b530      	push	{r4, r5, lr}
  107222:	4c08      	ldr	r4, [pc, #32]	(107244 <.text+0x7244>)
  107224:	2300      	mov	r3, #0
  107226:	1c05      	mov	r5, r0		(add r5, r0, #0)
  107228:	6023      	str	r3, [r4, #0]
  10722a:	1c08      	mov	r0, r1		(add r0, r1, #0)
  10722c:	f8faf000 	bl	107424 <_sbrk>
  107230:	1c43      	add	r3, r0, #1
  107232:	d002      	beq	10723a <_sbrk_r+0x1a>
  107234:	bc30      	pop	{r4, r5}
  107236:	bc02      	pop	{r1}
  107238:	4708      	bx	r1
  10723a:	6823      	ldr	r3, [r4, #0]
  10723c:	2b00      	cmp	r3, #0
  10723e:	d0f9      	beq	107234 <_sbrk_r+0x14>
  107240:	602b      	str	r3, [r5, #0]
  107242:	e7f7      	b	107234 <_sbrk_r+0x14>
  107244:	0e6c      	lsr	r4, r5, #25
  107246:	0020      	lsl	r0, r4, #0

00107248 <__sread>:
  107248:	b530      	push	{r4, r5, lr}
  10724a:	1c05      	mov	r5, r0		(add r5, r0, #0)
  10724c:	1c0c      	mov	r4, r1		(add r4, r1, #0)
  10724e:	89e9      	ldrh	r1, [r5, #14]
  107250:	1c13      	mov	r3, r2		(add r3, r2, #0)
  107252:	4a0a      	ldr	r2, [pc, #40]	(10727c <.text+0x727c>)
  107254:	0409      	lsl	r1, r1, #16
  107256:	6810      	ldr	r0, [r2, #0]
  107258:	1409      	asr	r1, r1, #16
  10725a:	1c22      	mov	r2, r4		(add r2, r4, #0)
  10725c:	fc18f000 	bl	107a90 <_read_r>
  107260:	2800      	cmp	r0, #0
  107262:	db05      	blt	107270 <__sread+0x28>
  107264:	6d2b      	ldr	r3, [r5, #80]
  107266:	18c3      	add	r3, r0, r3
  107268:	652b      	str	r3, [r5, #80]
  10726a:	bc30      	pop	{r4, r5}
  10726c:	bc02      	pop	{r1}
  10726e:	4708      	bx	r1
  107270:	89ab      	ldrh	r3, [r5, #12]
  107272:	4a03      	ldr	r2, [pc, #12]	(107280 <.text+0x7280>)
  107274:	4013      	and	r3, r2
  107276:	81ab      	strh	r3, [r5, #12]
  107278:	e7f7      	b	10726a <__sread+0x22>
  10727a:	0000      	lsl	r0, r0, #0
  10727c:	0458      	lsl	r0, r3, #17
  10727e:	0020      	lsl	r0, r4, #0
  107280:	efff      	undefined
  107282:	ffff      	second half of BL instruction 0xffff

00107284 <__swrite>:
  107284:	b570      	push	{r4, r5, r6, lr}
  107286:	1c16      	mov	r6, r2		(add r6, r2, #0)
  107288:	2380      	mov	r3, #128
  10728a:	8982      	ldrh	r2, [r0, #12]
  10728c:	005b      	lsl	r3, r3, #1
  10728e:	1c04      	mov	r4, r0		(add r4, r0, #0)
  107290:	1c0d      	mov	r5, r1		(add r5, r1, #0)
  107292:	4213      	tst	r3, r2
  107294:	d009      	beq	1072aa <__swrite+0x26>
  107296:	89e1      	ldrh	r1, [r4, #14]
  107298:	4b0b      	ldr	r3, [pc, #44]	(1072c8 <.text+0x72c8>)
  10729a:	0409      	lsl	r1, r1, #16
  10729c:	6818      	ldr	r0, [r3, #0]
  10729e:	2200      	mov	r2, #0
  1072a0:	1409      	asr	r1, r1, #16
  1072a2:	2302      	mov	r3, #2
  1072a4:	fbdef000 	bl	107a64 <_lseek_r>
  1072a8:	89a2      	ldrh	r2, [r4, #12]
  1072aa:	4b08      	ldr	r3, [pc, #32]	(1072cc <.text+0x72cc>)
  1072ac:	89e1      	ldrh	r1, [r4, #14]
  1072ae:	4013      	and	r3, r2
  1072b0:	81a3      	strh	r3, [r4, #12]
  1072b2:	4b05      	ldr	r3, [pc, #20]	(1072c8 <.text+0x72c8>)
  1072b4:	0409      	lsl	r1, r1, #16
  1072b6:	1c2a      	mov	r2, r5		(add r2, r5, #0)
  1072b8:	6818      	ldr	r0, [r3, #0]
  1072ba:	1409      	asr	r1, r1, #16
  1072bc:	1c33      	mov	r3, r6		(add r3, r6, #0)
  1072be:	fafbf000 	bl	1078b8 <_write_r>
  1072c2:	bc70      	pop	{r4, r5, r6}
  1072c4:	bc02      	pop	{r1}
  1072c6:	4708      	bx	r1
  1072c8:	0458      	lsl	r0, r3, #17
  1072ca:	0020      	lsl	r0, r4, #0
  1072cc:	efff      	undefined
  1072ce:	ffff      	second half of BL instruction 0xffff

001072d0 <__sseek>:
  1072d0:	b530      	push	{r4, r5, lr}
  1072d2:	1c05      	mov	r5, r0		(add r5, r0, #0)
  1072d4:	1c0c      	mov	r4, r1		(add r4, r1, #0)
  1072d6:	89e9      	ldrh	r1, [r5, #14]
  1072d8:	1c13      	mov	r3, r2		(add r3, r2, #0)
  1072da:	4a0b      	ldr	r2, [pc, #44]	(107308 <.text+0x7308>)
  1072dc:	0409      	lsl	r1, r1, #16
  1072de:	6810      	ldr	r0, [r2, #0]
  1072e0:	1409      	asr	r1, r1, #16
  1072e2:	1c22      	mov	r2, r4		(add r2, r4, #0)
  1072e4:	fbbef000 	bl	107a64 <_lseek_r>
  1072e8:	1c43      	add	r3, r0, #1
  1072ea:	d008      	beq	1072fe <__sseek+0x2e>
  1072ec:	89ab      	ldrh	r3, [r5, #12]
  1072ee:	2280      	mov	r2, #128
  1072f0:	0152      	lsl	r2, r2, #5
  1072f2:	4313      	orr	r3, r2
  1072f4:	81ab      	strh	r3, [r5, #12]
  1072f6:	6528      	str	r0, [r5, #80]
  1072f8:	bc30      	pop	{r4, r5}
  1072fa:	bc02      	pop	{r1}
  1072fc:	4708      	bx	r1
  1072fe:	89ab      	ldrh	r3, [r5, #12]
  107300:	4a02      	ldr	r2, [pc, #8]	(10730c <.text+0x730c>)
  107302:	4013      	and	r3, r2
  107304:	81ab      	strh	r3, [r5, #12]
  107306:	e7f7      	b	1072f8 <__sseek+0x28>
  107308:	0458      	lsl	r0, r3, #17
  10730a:	0020      	lsl	r0, r4, #0
  10730c:	efff      	undefined
  10730e:	ffff      	second half of BL instruction 0xffff

00107310 <__sclose>:
  107310:	b500      	push	{lr}
  107312:	4b05      	ldr	r3, [pc, #20]	(107328 <.text+0x7328>)
  107314:	89c1      	ldrh	r1, [r0, #14]
  107316:	681b      	ldr	r3, [r3, #0]
  107318:	0409      	lsl	r1, r1, #16
  10731a:	1409      	asr	r1, r1, #16
  10731c:	1c18      	mov	r0, r3		(add r0, r3, #0)
  10731e:	fb13f000 	bl	107948 <_close_r>
  107322:	bc02      	pop	{r1}
  107324:	4708      	bx	r1
  107326:	0000      	lsl	r0, r0, #0
  107328:	0458      	lsl	r0, r3, #17
  10732a:	0020      	lsl	r0, r4, #0

0010732c <strcmp>:
  10732c:	b530      	push	{r4, r5, lr}
  10732e:	1c02      	mov	r2, r0		(add r2, r0, #0)
  107330:	430a      	orr	r2, r1
  107332:	2303      	mov	r3, #3
  107334:	421a      	tst	r2, r3
  107336:	d103      	bne	107340 <strcmp+0x14>
  107338:	6802      	ldr	r2, [r0, #0]
  10733a:	680b      	ldr	r3, [r1, #0]
  10733c:	429a      	cmp	r2, r3
  10733e:	d013      	beq	107368 <strcmp+0x3c>
  107340:	7802      	ldrb	r2, [r0, #0]
  107342:	0613      	lsl	r3, r2, #24
  107344:	0e1d      	lsr	r5, r3, #24
  107346:	2d00      	cmp	r5, #0
  107348:	d116      	bne	107378 <strcmp+0x4c>
  10734a:	780c      	ldrb	r4, [r1, #0]
  10734c:	0612      	lsl	r2, r2, #24
  10734e:	0623      	lsl	r3, r4, #24
  107350:	0e12      	lsr	r2, r2, #24
  107352:	0e1b      	lsr	r3, r3, #24
  107354:	1ad0      	sub	r0, r2, r3
  107356:	bc30      	pop	{r4, r5}
  107358:	bc02      	pop	{r1}
  10735a:	4708      	bx	r1
  10735c:	3004      	add	r0, #4
  10735e:	3104      	add	r1, #4
  107360:	680a      	ldr	r2, [r1, #0]
  107362:	6803      	ldr	r3, [r0, #0]
  107364:	429a      	cmp	r2, r3
  107366:	d1eb      	bne	107340 <strcmp+0x14>
  107368:	4c10      	ldr	r4, [pc, #64]	(1073ac <.text+0x73ac>)
  10736a:	1913      	add	r3, r2, r4
  10736c:	4393      	bic	r3, r2
  10736e:	4a10      	ldr	r2, [pc, #64]	(1073b0 <.text+0x73b0>)
  107370:	4213      	tst	r3, r2
  107372:	d0f3      	beq	10735c <strcmp+0x30>
  107374:	2000      	mov	r0, #0
  107376:	e7ee      	b	107356 <strcmp+0x2a>
  107378:	780c      	ldrb	r4, [r1, #0]
  10737a:	0623      	lsl	r3, r4, #24
  10737c:	0e1b      	lsr	r3, r3, #24
  10737e:	42ab      	cmp	r3, r5
  107380:	d1e4      	bne	10734c <strcmp+0x20>
  107382:	3001      	add	r0, #1
  107384:	7802      	ldrb	r2, [r0, #0]
  107386:	0613      	lsl	r3, r2, #24
  107388:	0e1d      	lsr	r5, r3, #24
  10738a:	3101      	add	r1, #1
  10738c:	2d00      	cmp	r5, #0
  10738e:	d0dc      	beq	10734a <strcmp+0x1e>
  107390:	780c      	ldrb	r4, [r1, #0]
  107392:	0623      	lsl	r3, r4, #24
  107394:	0e1b      	lsr	r3, r3, #24
  107396:	42ab      	cmp	r3, r5
  107398:	d1d8      	bne	10734c <strcmp+0x20>
  10739a:	3001      	add	r0, #1
  10739c:	7802      	ldrb	r2, [r0, #0]
  10739e:	0613      	lsl	r3, r2, #24
  1073a0:	0e1d      	lsr	r5, r3, #24
  1073a2:	3101      	add	r1, #1
  1073a4:	2d00      	cmp	r5, #0
  1073a6:	d1f3      	bne	107390 <strcmp+0x64>
  1073a8:	e7cf      	b	10734a <strcmp+0x1e>
  1073aa:	0000      	lsl	r0, r0, #0
  1073ac:	feff      	second half of BL instruction 0xfeff
  1073ae:	fefe      	second half of BL instruction 0xfefe
  1073b0:	8080      	strh	r0, [r0, #4]
  1073b2:	8080      	strh	r0, [r0, #4]

001073b4 <findslot>:
  1073b4:	4a05      	ldr	r2, [pc, #20]	(1073cc <.text+0x73cc>)
  1073b6:	1c01      	mov	r1, r0		(add r1, r0, #0)
  1073b8:	2000      	mov	r0, #0
  1073ba:	e003      	b	1073c4 <findslot+0x10>
  1073bc:	3001      	add	r0, #1
  1073be:	3208      	add	r2, #8
  1073c0:	2814      	cmp	r0, #20
  1073c2:	d002      	beq	1073ca <findslot+0x16>
  1073c4:	6813      	ldr	r3, [r2, #0]
  1073c6:	428b      	cmp	r3, r1
  1073c8:	d1f8      	bne	1073bc <findslot+0x8>
  1073ca:	4770      	bx	lr
  1073cc:	08c0      	lsr	r0, r0, #3
  1073ce:	0020      	lsl	r0, r4, #0

001073d0 <remap_handle>:
  1073d0:	b510      	push	{r4, lr}
  1073d2:	4b0f      	ldr	r3, [pc, #60]	(107410 <.text+0x7410>)
  1073d4:	1c04      	mov	r4, r0		(add r4, r0, #0)
  1073d6:	6818      	ldr	r0, [r3, #0]
  1073d8:	2800      	cmp	r0, #0
  1073da:	d002      	beq	1073e2 <remap_handle+0x12>
  1073dc:	6b83      	ldr	r3, [r0, #56]
  1073de:	2b00      	cmp	r3, #0
  1073e0:	d00d      	beq	1073fe <remap_handle+0x2e>
  1073e2:	2c00      	cmp	r4, #0
  1073e4:	d104      	bne	1073f0 <remap_handle+0x20>
  1073e6:	4b0b      	ldr	r3, [pc, #44]	(107414 <.text+0x7414>)
  1073e8:	6818      	ldr	r0, [r3, #0]
  1073ea:	bc10      	pop	{r4}
  1073ec:	bc02      	pop	{r1}
  1073ee:	4708      	bx	r1
  1073f0:	2c01      	cmp	r4, #1
  1073f2:	d007      	beq	107404 <remap_handle+0x34>
  1073f4:	2c02      	cmp	r4, #2
  1073f6:	d008      	beq	10740a <remap_handle+0x3a>
  1073f8:	1c20      	mov	r0, r4		(add r0, r4, #0)
  1073fa:	3820      	sub	r0, #32
  1073fc:	e7f5      	b	1073ea <remap_handle+0x1a>
  1073fe:	f937f7fe 	bl	105670 <__sinit>
  107402:	e7ee      	b	1073e2 <remap_handle+0x12>
  107404:	4b04      	ldr	r3, [pc, #16]	(107418 <.text+0x7418>)
  107406:	6818      	ldr	r0, [r3, #0]
  107408:	e7ef      	b	1073ea <remap_handle+0x1a>
  10740a:	4b04      	ldr	r3, [pc, #16]	(10741c <.text+0x741c>)
  10740c:	6818      	ldr	r0, [r3, #0]
  10740e:	e7ec      	b	1073ea <remap_handle+0x1a>
  107410:	0458      	lsl	r0, r3, #17
  107412:	0020      	lsl	r0, r4, #0
  107414:	0968      	lsr	r0, r5, #5
  107416:	0020      	lsl	r0, r4, #0
  107418:	0964      	lsr	r4, r4, #5
  10741a:	0020      	lsl	r0, r4, #0
  10741c:	0960      	lsr	r0, r4, #5
  10741e:	0020      	lsl	r0, r4, #0

00107420 <_getpid>:
  107420:	2001      	mov	r0, #1
  107422:	4770      	bx	lr

00107424 <_sbrk>:
  107424:	b500      	push	{lr}
  107426:	4a0b      	ldr	r2, [pc, #44]	(107454 <.text+0x7454>)
  107428:	1c01      	mov	r1, r0		(add r1, r0, #0)
  10742a:	6810      	ldr	r0, [r2, #0]
  10742c:	2800      	cmp	r0, #0
  10742e:	d00e      	beq	10744e <_sbrk+0x2a>
  107430:	1c03      	mov	r3, r0		(add r3, r0, #0)
  107432:	1840      	add	r0, r0, r1
  107434:	4568      	cmp	r0, sp
  107436:	d803      	bhi	107440 <_sbrk+0x1c>
  107438:	6010      	str	r0, [r2, #0]
  10743a:	1c18      	mov	r0, r3		(add r0, r3, #0)
  10743c:	bc02      	pop	{r1}
  10743e:	4708      	bx	r1
  107440:	fa96f000 	bl	107970 <__errno>
  107444:	230c      	mov	r3, #12
  107446:	6003      	str	r3, [r0, #0]
  107448:	2301      	mov	r3, #1
  10744a:	425b      	neg	r3, r3
  10744c:	e7f5      	b	10743a <_sbrk+0x16>
  10744e:	4802      	ldr	r0, [pc, #8]	(107458 <.text+0x7458>)
  107450:	6010      	str	r0, [r2, #0]
  107452:	e7ed      	b	107430 <_sbrk+0xc>
  107454:	08bc      	lsr	r4, r7, #2
  107456:	0020      	lsl	r0, r4, #0
  107458:	37fc      	add	r7, #252
  10745a:	0020      	lsl	r0, r4, #0

0010745c <_fstat>:
  10745c:	b510      	push	{r4, lr}
  10745e:	1c0c      	mov	r4, r1		(add r4, r1, #0)
  107460:	1c08      	mov	r0, r1		(add r0, r1, #0)
  107462:	223c      	mov	r2, #60
  107464:	2100      	mov	r1, #0
  107466:	f8fff7fb 	bl	102668 <memset>
  10746a:	2380      	mov	r3, #128
  10746c:	019b      	lsl	r3, r3, #6
  10746e:	6063      	str	r3, [r4, #4]
  107470:	2380      	mov	r3, #128
  107472:	00db      	lsl	r3, r3, #3
  107474:	2000      	mov	r0, #0
  107476:	62e3      	str	r3, [r4, #44]
  107478:	bc10      	pop	{r4}
  10747a:	bc02      	pop	{r1}
  10747c:	4708      	bx	r1
	...

00107480 <_link>:
  107480:	2001      	mov	r0, #1
  107482:	4240      	neg	r0, r0
  107484:	4770      	bx	lr
	...

00107488 <_unlink>:
  107488:	2001      	mov	r0, #1
  10748a:	4240      	neg	r0, r0
  10748c:	4770      	bx	lr
	...

00107490 <_raise>:
  107490:	4770      	bx	lr
	...

00107494 <_times>:
  107494:	b570      	push	{r4, r5, r6, lr}
  107496:	1c05      	mov	r5, r0		(add r5, r0, #0)
  107498:	2410      	mov	r4, #16
  10749a:	2600      	mov	r6, #0
  10749c:	1c20      	mov	r0, r4		(add r0, r4, #0)
  10749e:	1c31      	mov	r1, r6		(add r1, r6, #0)
  1074a0:	dfab      	swi	171
  1074a2:	1c04      	mov	r4, r0		(add r4, r0, #0)
  1074a4:	2d00      	cmp	r5, #0
  1074a6:	d003      	beq	1074b0 <_times+0x1c>
  1074a8:	602c      	str	r4, [r5, #0]
  1074aa:	606e      	str	r6, [r5, #4]
  1074ac:	60ae      	str	r6, [r5, #8]
  1074ae:	60ee      	str	r6, [r5, #12]
  1074b0:	1c20      	mov	r0, r4		(add r0, r4, #0)
  1074b2:	bc70      	pop	{r4, r5, r6}
  1074b4:	bc02      	pop	{r1}
  1074b6:	4708      	bx	r1

001074b8 <isatty>:
  1074b8:	2001      	mov	r0, #1
  1074ba:	4770      	bx	lr

001074bc <_system>:
  1074bc:	b500      	push	{lr}
  1074be:	2800      	cmp	r0, #0
  1074c0:	d101      	bne	1074c6 <_system+0xa>
  1074c2:	bc02      	pop	{r1}
  1074c4:	4708      	bx	r1
  1074c6:	fa53f000 	bl	107970 <__errno>
  1074ca:	2358      	mov	r3, #88
  1074cc:	6003      	str	r3, [r0, #0]
  1074ce:	2001      	mov	r0, #1
  1074d0:	4240      	neg	r0, r0
  1074d2:	e7f6      	b	1074c2 <_system+0x6>

001074d4 <_rename>:
  1074d4:	b500      	push	{lr}
  1074d6:	fa4bf000 	bl	107970 <__errno>
  1074da:	2358      	mov	r3, #88
  1074dc:	6003      	str	r3, [r0, #0]
  1074de:	2001      	mov	r0, #1
  1074e0:	4240      	neg	r0, r0
  1074e2:	bc02      	pop	{r1}
  1074e4:	4708      	bx	r1
	...

001074e8 <initialise_monitor_handles>:
  1074e8:	b570      	push	{r4, r5, r6, lr}
  1074ea:	4656      	mov	r6, sl
  1074ec:	4645      	mov	r5, r8
  1074ee:	b460      	push	{r5, r6}
  1074f0:	4b1a      	ldr	r3, [pc, #104]	(10755c <.text+0x755c>)
  1074f2:	b083      	sub	sp, #12
  1074f4:	9300      	str	r3, [sp, #0]
  1074f6:	469a      	mov	sl, r3
  1074f8:	2303      	mov	r3, #3
  1074fa:	9302      	str	r3, [sp, #8]
  1074fc:	4698      	mov	r8, r3
  1074fe:	2300      	mov	r3, #0
  107500:	9301      	str	r3, [sp, #4]
  107502:	2401      	mov	r4, #1
  107504:	1c20      	mov	r0, r4		(add r0, r4, #0)
  107506:	4669      	mov	r1, sp
  107508:	dfab      	swi	171
  10750a:	1c05      	mov	r5, r0		(add r5, r0, #0)
  10750c:	4b14      	ldr	r3, [pc, #80]	(107560 <.text+0x7560>)
  10750e:	601d      	str	r5, [r3, #0]
  107510:	4653      	mov	r3, sl
  107512:	9300      	str	r3, [sp, #0]
  107514:	4643      	mov	r3, r8
  107516:	9302      	str	r3, [sp, #8]
  107518:	2304      	mov	r3, #4
  10751a:	9301      	str	r3, [sp, #4]
  10751c:	1c20      	mov	r0, r4		(add r0, r4, #0)
  10751e:	4669      	mov	r1, sp
  107520:	dfab      	swi	171
  107522:	1c04      	mov	r4, r0		(add r4, r0, #0)
  107524:	4b0f      	ldr	r3, [pc, #60]	(107564 <.text+0x7564>)
  107526:	4a10      	ldr	r2, [pc, #64]	(107568 <.text+0x7568>)
  107528:	601c      	str	r4, [r3, #0]
  10752a:	4b10      	ldr	r3, [pc, #64]	(10756c <.text+0x756c>)
  10752c:	1c11      	mov	r1, r2		(add r1, r2, #0)
  10752e:	601c      	str	r4, [r3, #0]
  107530:	2301      	mov	r3, #1
  107532:	31a0      	add	r1, #160
  107534:	425b      	neg	r3, r3
  107536:	6013      	str	r3, [r2, #0]
  107538:	3208      	add	r2, #8
  10753a:	428a      	cmp	r2, r1
  10753c:	d1fb      	bne	107536 <initialise_monitor_handles+0x4e>
  10753e:	4b08      	ldr	r3, [pc, #32]	(107560 <.text+0x7560>)
  107540:	681b      	ldr	r3, [r3, #0]
  107542:	3aa0      	sub	r2, #160
  107544:	6013      	str	r3, [r2, #0]
  107546:	b003      	add	sp, #12
  107548:	2300      	mov	r3, #0
  10754a:	6053      	str	r3, [r2, #4]
  10754c:	6094      	str	r4, [r2, #8]
  10754e:	60d3      	str	r3, [r2, #12]
  107550:	bc0c      	pop	{r2, r3}
  107552:	4690      	mov	r8, r2
  107554:	469a      	mov	sl, r3
  107556:	bc70      	pop	{r4, r5, r6}
  107558:	bc01      	pop	{r0}
  10755a:	4700      	bx	r0
  10755c:	ba54      	rev16	r4, r2
  10755e:	0010      	lsl	r0, r2, #0
  107560:	0968      	lsr	r0, r5, #5
  107562:	0020      	lsl	r0, r4, #0
  107564:	0960      	lsr	r0, r4, #5
  107566:	0020      	lsl	r0, r4, #0
  107568:	08c0      	lsr	r0, r0, #3
  10756a:	0020      	lsl	r0, r4, #0
  10756c:	0964      	lsr	r4, r4, #5
  10756e:	0020      	lsl	r0, r4, #0

00107570 <_swiread>:
  107570:	b570      	push	{r4, r5, r6, lr}
  107572:	b083      	sub	sp, #12
  107574:	1c0c      	mov	r4, r1		(add r4, r1, #0)
  107576:	1c16      	mov	r6, r2		(add r6, r2, #0)
  107578:	ff2af7ff 	bl	1073d0 <remap_handle>
  10757c:	9401      	str	r4, [sp, #4]
  10757e:	9000      	str	r0, [sp, #0]
  107580:	9602      	str	r6, [sp, #8]
  107582:	2406      	mov	r4, #6
  107584:	1c20      	mov	r0, r4		(add r0, r4, #0)
  107586:	4669      	mov	r1, sp
  107588:	dfab      	swi	171
  10758a:	1c04      	mov	r4, r0		(add r4, r0, #0)
  10758c:	1c20      	mov	r0, r4		(add r0, r4, #0)
  10758e:	b003      	add	sp, #12
  107590:	bc70      	pop	{r4, r5, r6}
  107592:	bc02      	pop	{r1}
  107594:	4708      	bx	r1
	...

00107598 <_swilseek>:
  107598:	b5f0      	push	{r4, r5, r6, r7, lr}
  10759a:	4657      	mov	r7, sl
  10759c:	4646      	mov	r6, r8
  10759e:	b4c0      	push	{r6, r7}
  1075a0:	b082      	sub	sp, #8
  1075a2:	1c0d      	mov	r5, r1		(add r5, r1, #0)
  1075a4:	1c14      	mov	r4, r2		(add r4, r2, #0)
  1075a6:	4680      	mov	r8, r0
  1075a8:	ff12f7ff 	bl	1073d0 <remap_handle>
  1075ac:	1c06      	mov	r6, r0		(add r6, r0, #0)
  1075ae:	ff01f7ff 	bl	1073b4 <findslot>
  1075b2:	1c07      	mov	r7, r0		(add r7, r0, #0)
  1075b4:	2c01      	cmp	r4, #1
  1075b6:	d02a      	beq	10760e <_swilseek+0x76>
  1075b8:	2c02      	cmp	r4, #2
  1075ba:	d01f      	beq	1075fc <_swilseek+0x64>
  1075bc:	46ea      	mov	sl, sp
  1075be:	4640      	mov	r0, r8
  1075c0:	ff06f7ff 	bl	1073d0 <remap_handle>
  1075c4:	240a      	mov	r4, #10
  1075c6:	9000      	str	r0, [sp, #0]
  1075c8:	9501      	str	r5, [sp, #4]
  1075ca:	1c20      	mov	r0, r4		(add r0, r4, #0)
  1075cc:	4651      	mov	r1, sl
  1075ce:	dfab      	swi	171
  1075d0:	1c04      	mov	r4, r0		(add r4, r0, #0)
  1075d2:	2f14      	cmp	r7, #20
  1075d4:	d00d      	beq	1075f2 <_swilseek+0x5a>
  1075d6:	2c00      	cmp	r4, #0
  1075d8:	d10d      	bne	1075f6 <_swilseek+0x5e>
  1075da:	4a11      	ldr	r2, [pc, #68]	(107620 <.text+0x7620>)
  1075dc:	00fb      	lsl	r3, r7, #3
  1075de:	189b      	add	r3, r3, r2
  1075e0:	605d      	str	r5, [r3, #4]
  1075e2:	1c28      	mov	r0, r5		(add r0, r5, #0)
  1075e4:	b002      	add	sp, #8
  1075e6:	bc0c      	pop	{r2, r3}
  1075e8:	4690      	mov	r8, r2
  1075ea:	469a      	mov	sl, r3
  1075ec:	bcf0      	pop	{r4, r5, r6, r7}
  1075ee:	bc02      	pop	{r1}
  1075f0:	4708      	bx	r1
  1075f2:	2c00      	cmp	r4, #0
  1075f4:	d0f5      	beq	1075e2 <_swilseek+0x4a>
  1075f6:	2501      	mov	r5, #1
  1075f8:	426d      	neg	r5, r5
  1075fa:	e7f2      	b	1075e2 <_swilseek+0x4a>
  1075fc:	46ea      	mov	sl, sp
  1075fe:	9600      	str	r6, [sp, #0]
  107600:	240c      	mov	r4, #12
  107602:	1c20      	mov	r0, r4		(add r0, r4, #0)
  107604:	4669      	mov	r1, sp
  107606:	dfab      	swi	171
  107608:	1c04      	mov	r4, r0		(add r4, r0, #0)
  10760a:	192d      	add	r5, r5, r4
  10760c:	e7d7      	b	1075be <_swilseek+0x26>
  10760e:	2814      	cmp	r0, #20
  107610:	d0f1      	beq	1075f6 <_swilseek+0x5e>
  107612:	4b03      	ldr	r3, [pc, #12]	(107620 <.text+0x7620>)
  107614:	00c2      	lsl	r2, r0, #3
  107616:	18d2      	add	r2, r2, r3
  107618:	6853      	ldr	r3, [r2, #4]
  10761a:	46ea      	mov	sl, sp
  10761c:	18ed      	add	r5, r5, r3
  10761e:	e7ce      	b	1075be <_swilseek+0x26>
  107620:	08c0      	lsr	r0, r0, #3
  107622:	0020      	lsl	r0, r4, #0

00107624 <_swiwrite>:
  107624:	b570      	push	{r4, r5, r6, lr}
  107626:	b083      	sub	sp, #12
  107628:	1c0c      	mov	r4, r1		(add r4, r1, #0)
  10762a:	1c16      	mov	r6, r2		(add r6, r2, #0)
  10762c:	fed0f7ff 	bl	1073d0 <remap_handle>
  107630:	9401      	str	r4, [sp, #4]
  107632:	9000      	str	r0, [sp, #0]
  107634:	9602      	str	r6, [sp, #8]
  107636:	2405      	mov	r4, #5
  107638:	1c20      	mov	r0, r4		(add r0, r4, #0)
  10763a:	4669      	mov	r1, sp
  10763c:	dfab      	swi	171
  10763e:	1c04      	mov	r4, r0		(add r4, r0, #0)
  107640:	1c20      	mov	r0, r4		(add r0, r4, #0)
  107642:	b003      	add	sp, #12
  107644:	bc70      	pop	{r4, r5, r6}
  107646:	bc02      	pop	{r1}
  107648:	4708      	bx	r1
	...

0010764c <_swiclose>:
  10764c:	b530      	push	{r4, r5, lr}
  10764e:	b081      	sub	sp, #4
  107650:	febef7ff 	bl	1073d0 <remap_handle>
  107654:	466d      	mov	r5, sp
  107656:	9000      	str	r0, [sp, #0]
  107658:	feacf7ff 	bl	1073b4 <findslot>
  10765c:	2814      	cmp	r0, #20
  10765e:	d004      	beq	10766a <_swiclose+0x1e>
  107660:	4907      	ldr	r1, [pc, #28]	(107680 <.text+0x7680>)
  107662:	2301      	mov	r3, #1
  107664:	00c2      	lsl	r2, r0, #3
  107666:	425b      	neg	r3, r3
  107668:	5053      	str	r3, [r2, r1]
  10766a:	2402      	mov	r4, #2
  10766c:	1c20      	mov	r0, r4		(add r0, r4, #0)
  10766e:	1c29      	mov	r1, r5		(add r1, r5, #0)
  107670:	dfab      	swi	171
  107672:	1c04      	mov	r4, r0		(add r4, r0, #0)
  107674:	1c20      	mov	r0, r4		(add r0, r4, #0)
  107676:	b001      	add	sp, #4
  107678:	bc30      	pop	{r4, r5}
  10767a:	bc02      	pop	{r1}
  10767c:	4708      	bx	r1
  10767e:	0000      	lsl	r0, r0, #0
  107680:	08c0      	lsr	r0, r0, #3
  107682:	0020      	lsl	r0, r4, #0

00107684 <error>:
  107684:	b570      	push	{r4, r5, r6, lr}
  107686:	4646      	mov	r6, r8
  107688:	b440      	push	{r6}
  10768a:	4680      	mov	r8, r0
  10768c:	f970f000 	bl	107970 <__errno>
  107690:	2413      	mov	r4, #19
  107692:	1c06      	mov	r6, r0		(add r6, r0, #0)
  107694:	2500      	mov	r5, #0
  107696:	1c20      	mov	r0, r4		(add r0, r4, #0)
  107698:	1c29      	mov	r1, r5		(add r1, r5, #0)
  10769a:	dfab      	swi	171
  10769c:	1c04      	mov	r4, r0		(add r4, r0, #0)
  10769e:	4640      	mov	r0, r8
  1076a0:	6034      	str	r4, [r6, #0]
  1076a2:	bc04      	pop	{r2}
  1076a4:	4690      	mov	r8, r2
  1076a6:	bc70      	pop	{r4, r5, r6}
  1076a8:	bc02      	pop	{r1}
  1076aa:	4708      	bx	r1

001076ac <wrap>:
  1076ac:	b500      	push	{lr}
  1076ae:	1c43      	add	r3, r0, #1
  1076b0:	d001      	beq	1076b6 <wrap+0xa>
  1076b2:	bc02      	pop	{r1}
  1076b4:	4708      	bx	r1
  1076b6:	2001      	mov	r0, #1
  1076b8:	4240      	neg	r0, r0
  1076ba:	ffe3f7ff 	bl	107684 <error>
  1076be:	e7f8      	b	1076b2 <wrap+0x6>

001076c0 <_close>:
  1076c0:	b500      	push	{lr}
  1076c2:	ffc3f7ff 	bl	10764c <_swiclose>
  1076c6:	fff1f7ff 	bl	1076ac <wrap>
  1076ca:	bc02      	pop	{r1}
  1076cc:	4708      	bx	r1
	...

001076d0 <_lseek>:
  1076d0:	b500      	push	{lr}
  1076d2:	ff61f7ff 	bl	107598 <_swilseek>
  1076d6:	ffe9f7ff 	bl	1076ac <wrap>
  1076da:	bc02      	pop	{r1}
  1076dc:	4708      	bx	r1
	...

001076e0 <_swiopen>:
  1076e0:	b5f0      	push	{r4, r5, r6, r7, lr}
  1076e2:	4647      	mov	r7, r8
  1076e4:	b480      	push	{r7}
  1076e6:	1c07      	mov	r7, r0		(add r7, r0, #0)
  1076e8:	2001      	mov	r0, #1
  1076ea:	b083      	sub	sp, #12
  1076ec:	4240      	neg	r0, r0
  1076ee:	1c0c      	mov	r4, r1		(add r4, r1, #0)
  1076f0:	fe60f7ff 	bl	1073b4 <findslot>
  1076f4:	4680      	mov	r8, r0
  1076f6:	2814      	cmp	r0, #20
  1076f8:	d02e      	beq	107758 <_swiopen+0x78>
  1076fa:	07a1      	lsl	r1, r4, #30
  1076fc:	d52a      	bpl	107754 <_swiopen+0x74>
  1076fe:	2602      	mov	r6, #2
  107700:	05a3      	lsl	r3, r4, #22
  107702:	d501      	bpl	107708 <_swiopen+0x28>
  107704:	2304      	mov	r3, #4
  107706:	431e      	orr	r6, r3
  107708:	0561      	lsl	r1, r4, #21
  10770a:	d501      	bpl	107710 <_swiopen+0x30>
  10770c:	2304      	mov	r3, #4
  10770e:	431e      	orr	r6, r3
  107710:	2208      	mov	r2, #8
  107712:	4214      	tst	r4, r2
  107714:	d002      	beq	10771c <_swiopen+0x3c>
  107716:	2304      	mov	r3, #4
  107718:	439e      	bic	r6, r3
  10771a:	4316      	orr	r6, r2
  10771c:	1c38      	mov	r0, r7		(add r0, r7, #0)
  10771e:	9700      	str	r7, [sp, #0]
  107720:	f848f7fb 	bl	1027b4 <strlen>
  107724:	2401      	mov	r4, #1
  107726:	9002      	str	r0, [sp, #8]
  107728:	9601      	str	r6, [sp, #4]
  10772a:	1c20      	mov	r0, r4		(add r0, r4, #0)
  10772c:	4669      	mov	r1, sp
  10772e:	dfab      	swi	171
  107730:	1c04      	mov	r4, r0		(add r4, r0, #0)
  107732:	2c00      	cmp	r4, #0
  107734:	db13      	blt	10775e <_swiopen+0x7e>
  107736:	4b0c      	ldr	r3, [pc, #48]	(107768 <.text+0x7768>)
  107738:	4641      	mov	r1, r8
  10773a:	00ca      	lsl	r2, r1, #3
  10773c:	50d4      	str	r4, [r2, r3]
  10773e:	18d2      	add	r2, r2, r3
  107740:	2300      	mov	r3, #0
  107742:	1c20      	mov	r0, r4		(add r0, r4, #0)
  107744:	6053      	str	r3, [r2, #4]
  107746:	3020      	add	r0, #32
  107748:	b003      	add	sp, #12
  10774a:	bc04      	pop	{r2}
  10774c:	4690      	mov	r8, r2
  10774e:	bcf0      	pop	{r4, r5, r6, r7}
  107750:	bc02      	pop	{r1}
  107752:	4708      	bx	r1
  107754:	2600      	mov	r6, #0
  107756:	e7d3      	b	107700 <_swiopen+0x20>
  107758:	2001      	mov	r0, #1
  10775a:	4240      	neg	r0, r0
  10775c:	e7f4      	b	107748 <_swiopen+0x68>
  10775e:	1c20      	mov	r0, r4		(add r0, r4, #0)
  107760:	ff90f7ff 	bl	107684 <error>
  107764:	e7f0      	b	107748 <_swiopen+0x68>
  107766:	0000      	lsl	r0, r0, #0
  107768:	08c0      	lsr	r0, r0, #3
  10776a:	0020      	lsl	r0, r4, #0

0010776c <_open>:
  10776c:	b40e      	push	{r1, r2, r3}
  10776e:	b500      	push	{lr}
  107770:	9901      	ldr	r1, [sp, #4]
  107772:	ffb5f7ff 	bl	1076e0 <_swiopen>
  107776:	ff99f7ff 	bl	1076ac <wrap>
  10777a:	bc08      	pop	{r3}
  10777c:	b003      	add	sp, #12
  10777e:	4718      	bx	r3

00107780 <_stat>:
  107780:	b530      	push	{r4, r5, lr}
  107782:	1c0c      	mov	r4, r1		(add r4, r1, #0)
  107784:	2100      	mov	r1, #0
  107786:	fff1f7ff 	bl	10776c <_open>
  10778a:	1c05      	mov	r5, r0		(add r5, r0, #0)
  10778c:	2800      	cmp	r0, #0
  10778e:	db11      	blt	1077b4 <_stat+0x34>
  107790:	1c20      	mov	r0, r4		(add r0, r4, #0)
  107792:	2100      	mov	r1, #0
  107794:	223c      	mov	r2, #60
  107796:	ff67f7fa 	bl	102668 <memset>
  10779a:	2381      	mov	r3, #129
  10779c:	021b      	lsl	r3, r3, #8
  10779e:	6063      	str	r3, [r4, #4]
  1077a0:	2380      	mov	r3, #128
  1077a2:	00db      	lsl	r3, r3, #3
  1077a4:	62e3      	str	r3, [r4, #44]
  1077a6:	1c28      	mov	r0, r5		(add r0, r5, #0)
  1077a8:	ff50f7ff 	bl	10764c <_swiclose>
  1077ac:	2000      	mov	r0, #0
  1077ae:	bc30      	pop	{r4, r5}
  1077b0:	bc02      	pop	{r1}
  1077b2:	4708      	bx	r1
  1077b4:	2001      	mov	r0, #1
  1077b6:	4240      	neg	r0, r0
  1077b8:	e7f9      	b	1077ae <_stat+0x2e>
	...

001077bc <_write>:
  1077bc:	b5f0      	push	{r4, r5, r6, r7, lr}
  1077be:	1c0d      	mov	r5, r1		(add r5, r1, #0)
  1077c0:	1c16      	mov	r6, r2		(add r6, r2, #0)
  1077c2:	1c04      	mov	r4, r0		(add r4, r0, #0)
  1077c4:	fe04f7ff 	bl	1073d0 <remap_handle>
  1077c8:	fdf4f7ff 	bl	1073b4 <findslot>
  1077cc:	1c29      	mov	r1, r5		(add r1, r5, #0)
  1077ce:	1c07      	mov	r7, r0		(add r7, r0, #0)
  1077d0:	1c32      	mov	r2, r6		(add r2, r6, #0)
  1077d2:	1c20      	mov	r0, r4		(add r0, r4, #0)
  1077d4:	ff26f7ff 	bl	107624 <_swiwrite>
  1077d8:	1c43      	add	r3, r0, #1
  1077da:	d00d      	beq	1077f8 <_write+0x3c>
  1077dc:	4286      	cmp	r6, r0
  1077de:	d00b      	beq	1077f8 <_write+0x3c>
  1077e0:	2f14      	cmp	r7, #20
  1077e2:	d00e      	beq	107802 <_write+0x46>
  1077e4:	4b08      	ldr	r3, [pc, #32]	(107808 <.text+0x7808>)
  1077e6:	00fa      	lsl	r2, r7, #3
  1077e8:	18d2      	add	r2, r2, r3
  1077ea:	6853      	ldr	r3, [r2, #4]
  1077ec:	1a30      	sub	r0, r6, r0
  1077ee:	181b      	add	r3, r3, r0
  1077f0:	6053      	str	r3, [r2, #4]
  1077f2:	bcf0      	pop	{r4, r5, r6, r7}
  1077f4:	bc02      	pop	{r1}
  1077f6:	4708      	bx	r1
  1077f8:	2001      	mov	r0, #1
  1077fa:	4240      	neg	r0, r0
  1077fc:	ff42f7ff 	bl	107684 <error>
  107800:	e7f7      	b	1077f2 <_write+0x36>
  107802:	1a30      	sub	r0, r6, r0
  107804:	e7f5      	b	1077f2 <_write+0x36>
  107806:	0000      	lsl	r0, r0, #0
  107808:	08c0      	lsr	r0, r0, #3
  10780a:	0020      	lsl	r0, r4, #0

0010780c <_read>:
  10780c:	b5f0      	push	{r4, r5, r6, r7, lr}
  10780e:	1c0d      	mov	r5, r1		(add r5, r1, #0)
  107810:	1c16      	mov	r6, r2		(add r6, r2, #0)
  107812:	1c04      	mov	r4, r0		(add r4, r0, #0)
  107814:	fddcf7ff 	bl	1073d0 <remap_handle>
  107818:	fdccf7ff 	bl	1073b4 <findslot>
  10781c:	1c29      	mov	r1, r5		(add r1, r5, #0)
  10781e:	1c07      	mov	r7, r0		(add r7, r0, #0)
  107820:	1c32      	mov	r2, r6		(add r2, r6, #0)
  107822:	1c20      	mov	r0, r4		(add r0, r4, #0)
  107824:	fea4f7ff 	bl	107570 <_swiread>
  107828:	2800      	cmp	r0, #0
  10782a:	db0d      	blt	107848 <_read+0x3c>
  10782c:	2f14      	cmp	r7, #20
  10782e:	d009      	beq	107844 <_read+0x38>
  107830:	4b08      	ldr	r3, [pc, #32]	(107854 <.text+0x7854>)
  107832:	00fa      	lsl	r2, r7, #3
  107834:	18d2      	add	r2, r2, r3
  107836:	6853      	ldr	r3, [r2, #4]
  107838:	1a30      	sub	r0, r6, r0
  10783a:	181b      	add	r3, r3, r0
  10783c:	6053      	str	r3, [r2, #4]
  10783e:	bcf0      	pop	{r4, r5, r6, r7}
  107840:	bc02      	pop	{r1}
  107842:	4708      	bx	r1
  107844:	1a30      	sub	r0, r6, r0
  107846:	e7fa      	b	10783e <_read+0x32>
  107848:	2001      	mov	r0, #1
  10784a:	4240      	neg	r0, r0
  10784c:	ff1af7ff 	bl	107684 <error>
  107850:	e7f5      	b	10783e <_read+0x32>
  107852:	0000      	lsl	r0, r0, #0
  107854:	08c0      	lsr	r0, r0, #3
  107856:	0020      	lsl	r0, r4, #0

00107858 <_exit>:
  107858:	b530      	push	{r4, r5, lr}
  10785a:	2418      	mov	r4, #24
  10785c:	4d03      	ldr	r5, [pc, #12]	(10786c <.text+0x786c>)
  10785e:	1c20      	mov	r0, r4		(add r0, r4, #0)
  107860:	1c29      	mov	r1, r5		(add r1, r5, #0)
  107862:	dfab      	swi	171
  107864:	1c04      	mov	r4, r0		(add r4, r0, #0)
  107866:	bc30      	pop	{r4, r5}
  107868:	bc01      	pop	{r0}
  10786a:	4700      	bx	r0
  10786c:	0026      	lsl	r6, r4, #0
  10786e:	0002      	lsl	r2, r0, #0

00107870 <_kill>:
  107870:	b530      	push	{r4, r5, lr}
  107872:	2418      	mov	r4, #24
  107874:	4d04      	ldr	r5, [pc, #16]	(107888 <.text+0x7888>)
  107876:	1c20      	mov	r0, r4		(add r0, r4, #0)
  107878:	1c29      	mov	r1, r5		(add r1, r5, #0)
  10787a:	dfab      	swi	171
  10787c:	1c04      	mov	r4, r0		(add r4, r0, #0)
  10787e:	1c20      	mov	r0, r4		(add r0, r4, #0)
  107880:	bc30      	pop	{r4, r5}
  107882:	bc02      	pop	{r1}
  107884:	4708      	bx	r1
  107886:	0000      	lsl	r0, r0, #0
  107888:	0026      	lsl	r6, r4, #0
  10788a:	0002      	lsl	r2, r0, #0

0010788c <_gettimeofday>:
  10788c:	b5f0      	push	{r4, r5, r6, r7, lr}
  10788e:	1c06      	mov	r6, r0		(add r6, r0, #0)
  107890:	1c0f      	mov	r7, r1		(add r7, r1, #0)
  107892:	2800      	cmp	r0, #0
  107894:	d007      	beq	1078a6 <_gettimeofday+0x1a>
  107896:	2411      	mov	r4, #17
  107898:	2500      	mov	r5, #0
  10789a:	1c20      	mov	r0, r4		(add r0, r4, #0)
  10789c:	1c29      	mov	r1, r5		(add r1, r5, #0)
  10789e:	dfab      	swi	171
  1078a0:	1c04      	mov	r4, r0		(add r4, r0, #0)
  1078a2:	6034      	str	r4, [r6, #0]
  1078a4:	6075      	str	r5, [r6, #4]
  1078a6:	2f00      	cmp	r7, #0
  1078a8:	d002      	beq	1078b0 <_gettimeofday+0x24>
  1078aa:	2300      	mov	r3, #0
  1078ac:	603b      	str	r3, [r7, #0]
  1078ae:	607b      	str	r3, [r7, #4]
  1078b0:	2000      	mov	r0, #0
  1078b2:	bcf0      	pop	{r4, r5, r6, r7}
  1078b4:	bc02      	pop	{r1}
  1078b6:	4708      	bx	r1

001078b8 <_write_r>:
  1078b8:	b530      	push	{r4, r5, lr}
  1078ba:	4c09      	ldr	r4, [pc, #36]	(1078e0 <.text+0x78e0>)
  1078bc:	1c05      	mov	r5, r0		(add r5, r0, #0)
  1078be:	2000      	mov	r0, #0
  1078c0:	6020      	str	r0, [r4, #0]
  1078c2:	1c08      	mov	r0, r1		(add r0, r1, #0)
  1078c4:	1c11      	mov	r1, r2		(add r1, r2, #0)
  1078c6:	1c1a      	mov	r2, r3		(add r2, r3, #0)
  1078c8:	ff78f7ff 	bl	1077bc <_write>
  1078cc:	1c43      	add	r3, r0, #1
  1078ce:	d002      	beq	1078d6 <_write_r+0x1e>
  1078d0:	bc30      	pop	{r4, r5}
  1078d2:	bc02      	pop	{r1}
  1078d4:	4708      	bx	r1
  1078d6:	6823      	ldr	r3, [r4, #0]
  1078d8:	2b00      	cmp	r3, #0
  1078da:	d0f9      	beq	1078d0 <_write_r+0x18>
  1078dc:	602b      	str	r3, [r5, #0]
  1078de:	e7f7      	b	1078d0 <_write_r+0x18>
  1078e0:	0e6c      	lsr	r4, r5, #25
  1078e2:	0020      	lsl	r0, r4, #0

001078e4 <_calloc_r>:
  1078e4:	b510      	push	{r4, lr}
  1078e6:	4351      	mul	r1, r2
  1078e8:	faf6f7fe 	bl	105ed8 <_malloc_r>
  1078ec:	1c04      	mov	r4, r0		(add r4, r0, #0)
  1078ee:	2800      	cmp	r0, #0
  1078f0:	d00e      	beq	107910 <_calloc_r+0x2c>
  1078f2:	1c03      	mov	r3, r0		(add r3, r0, #0)
  1078f4:	3b08      	sub	r3, #8
  1078f6:	685b      	ldr	r3, [r3, #4]
  1078f8:	2203      	mov	r2, #3
  1078fa:	4393      	bic	r3, r2
  1078fc:	1f1a      	sub	r2, r3, #4
  1078fe:	2a24      	cmp	r2, #36
  107900:	d819      	bhi	107936 <_calloc_r+0x52>
  107902:	1c01      	mov	r1, r0		(add r1, r0, #0)
  107904:	2a13      	cmp	r2, #19
  107906:	d807      	bhi	107918 <_calloc_r+0x34>
  107908:	2300      	mov	r3, #0
  10790a:	600b      	str	r3, [r1, #0]
  10790c:	604b      	str	r3, [r1, #4]
  10790e:	608b      	str	r3, [r1, #8]
  107910:	1c20      	mov	r0, r4		(add r0, r4, #0)
  107912:	bc10      	pop	{r4}
  107914:	bc02      	pop	{r1}
  107916:	4708      	bx	r1
  107918:	2100      	mov	r1, #0
  10791a:	1c03      	mov	r3, r0		(add r3, r0, #0)
  10791c:	6001      	str	r1, [r0, #0]
  10791e:	6041      	str	r1, [r0, #4]
  107920:	3308      	add	r3, #8
  107922:	2a1b      	cmp	r2, #27
  107924:	d905      	bls	107932 <_calloc_r+0x4e>
  107926:	1c03      	mov	r3, r0		(add r3, r0, #0)
  107928:	6081      	str	r1, [r0, #8]
  10792a:	60c1      	str	r1, [r0, #12]
  10792c:	3310      	add	r3, #16
  10792e:	2a24      	cmp	r2, #36
  107930:	d005      	beq	10793e <_calloc_r+0x5a>
  107932:	1c19      	mov	r1, r3		(add r1, r3, #0)
  107934:	e7e8      	b	107908 <_calloc_r+0x24>
  107936:	2100      	mov	r1, #0
  107938:	fe96f7fa 	bl	102668 <memset>
  10793c:	e7e8      	b	107910 <_calloc_r+0x2c>
  10793e:	6101      	str	r1, [r0, #16]
  107940:	6141      	str	r1, [r0, #20]
  107942:	1c01      	mov	r1, r0		(add r1, r0, #0)
  107944:	3118      	add	r1, #24
  107946:	e7df      	b	107908 <_calloc_r+0x24>

00107948 <_close_r>:
  107948:	b530      	push	{r4, r5, lr}
  10794a:	4c08      	ldr	r4, [pc, #32]	(10796c <.text+0x796c>)
  10794c:	2300      	mov	r3, #0
  10794e:	1c05      	mov	r5, r0		(add r5, r0, #0)
  107950:	6023      	str	r3, [r4, #0]
  107952:	1c08      	mov	r0, r1		(add r0, r1, #0)
  107954:	feb4f7ff 	bl	1076c0 <_close>
  107958:	1c43      	add	r3, r0, #1
  10795a:	d002      	beq	107962 <_close_r+0x1a>
  10795c:	bc30      	pop	{r4, r5}
  10795e:	bc02      	pop	{r1}
  107960:	4708      	bx	r1
  107962:	6823      	ldr	r3, [r4, #0]
  107964:	2b00      	cmp	r3, #0
  107966:	d0f9      	beq	10795c <_close_r+0x14>
  107968:	602b      	str	r3, [r5, #0]
  10796a:	e7f7      	b	10795c <_close_r+0x14>
  10796c:	0e6c      	lsr	r4, r5, #25
  10796e:	0020      	lsl	r0, r4, #0

00107970 <__errno>:
  107970:	4b01      	ldr	r3, [pc, #4]	(107978 <.text+0x7978>)
  107972:	6818      	ldr	r0, [r3, #0]
  107974:	4770      	bx	lr
  107976:	0000      	lsl	r0, r0, #0
  107978:	0458      	lsl	r0, r3, #17
  10797a:	0020      	lsl	r0, r4, #0

0010797c <_fclose_r>:
  10797c:	b570      	push	{r4, r5, r6, lr}
  10797e:	1c05      	mov	r5, r0		(add r5, r0, #0)
  107980:	1c0c      	mov	r4, r1		(add r4, r1, #0)
  107982:	2900      	cmp	r1, #0
  107984:	d037      	beq	1079f6 <_fclose_r+0x7a>
  107986:	fe59f7fd 	bl	10563c <__sfp_lock_acquire>
  10798a:	2d00      	cmp	r5, #0
  10798c:	d002      	beq	107994 <_fclose_r+0x18>
  10798e:	6bab      	ldr	r3, [r5, #56]
  107990:	2b00      	cmp	r3, #0
  107992:	d032      	beq	1079fa <_fclose_r+0x7e>
  107994:	89a3      	ldrh	r3, [r4, #12]
  107996:	2b00      	cmp	r3, #0
  107998:	d02b      	beq	1079f2 <_fclose_r+0x76>
  10799a:	071a      	lsl	r2, r3, #28
  10799c:	d431      	bmi	107a02 <_fclose_r+0x86>
  10799e:	2600      	mov	r6, #0
  1079a0:	6ae3      	ldr	r3, [r4, #44]
  1079a2:	2b00      	cmp	r3, #0
  1079a4:	d004      	beq	1079b0 <_fclose_r+0x34>
  1079a6:	69e0      	ldr	r0, [r4, #28]
  1079a8:	f844f000 	bl	107a34 <.text+0x7a34>
  1079ac:	2800      	cmp	r0, #0
  1079ae:	db32      	blt	107a16 <_fclose_r+0x9a>
  1079b0:	89a3      	ldrh	r3, [r4, #12]
  1079b2:	061a      	lsl	r2, r3, #24
  1079b4:	d42a      	bmi	107a0c <_fclose_r+0x90>
  1079b6:	6b21      	ldr	r1, [r4, #48]
  1079b8:	2900      	cmp	r1, #0
  1079ba:	d009      	beq	1079d0 <_fclose_r+0x54>
  1079bc:	1c23      	mov	r3, r4		(add r3, r4, #0)
  1079be:	3340      	add	r3, #64
  1079c0:	4299      	cmp	r1, r3
  1079c2:	d003      	beq	1079cc <_fclose_r+0x50>
  1079c4:	4b15      	ldr	r3, [pc, #84]	(107a1c <.text+0x7a1c>)
  1079c6:	6818      	ldr	r0, [r3, #0]
  1079c8:	ff32f7fd 	bl	105830 <_free_r>
  1079cc:	2300      	mov	r3, #0
  1079ce:	6323      	str	r3, [r4, #48]
  1079d0:	6c61      	ldr	r1, [r4, #68]
  1079d2:	2900      	cmp	r1, #0
  1079d4:	d005      	beq	1079e2 <_fclose_r+0x66>
  1079d6:	4b11      	ldr	r3, [pc, #68]	(107a1c <.text+0x7a1c>)
  1079d8:	6818      	ldr	r0, [r3, #0]
  1079da:	ff29f7fd 	bl	105830 <_free_r>
  1079de:	2300      	mov	r3, #0
  1079e0:	6463      	str	r3, [r4, #68]
  1079e2:	2300      	mov	r3, #0
  1079e4:	81a3      	strh	r3, [r4, #12]
  1079e6:	fe2bf7fd 	bl	105640 <__sfp_lock_release>
  1079ea:	1c30      	mov	r0, r6		(add r0, r6, #0)
  1079ec:	bc70      	pop	{r4, r5, r6}
  1079ee:	bc02      	pop	{r1}
  1079f0:	4708      	bx	r1
  1079f2:	fe25f7fd 	bl	105640 <__sfp_lock_release>
  1079f6:	2600      	mov	r6, #0
  1079f8:	e7f7      	b	1079ea <_fclose_r+0x6e>
  1079fa:	1c28      	mov	r0, r5		(add r0, r5, #0)
  1079fc:	fe38f7fd 	bl	105670 <__sinit>
  107a00:	e7c8      	b	107994 <_fclose_r+0x18>
  107a02:	1c20      	mov	r0, r4		(add r0, r4, #0)
  107a04:	fd9cf7fd 	bl	105540 <fflush>
  107a08:	1c06      	mov	r6, r0		(add r6, r0, #0)
  107a0a:	e7c9      	b	1079a0 <_fclose_r+0x24>
  107a0c:	6921      	ldr	r1, [r4, #16]
  107a0e:	1c28      	mov	r0, r5		(add r0, r5, #0)
  107a10:	ff0ef7fd 	bl	105830 <_free_r>
  107a14:	e7cf      	b	1079b6 <_fclose_r+0x3a>
  107a16:	2601      	mov	r6, #1
  107a18:	4276      	neg	r6, r6
  107a1a:	e7c9      	b	1079b0 <_fclose_r+0x34>
  107a1c:	0458      	lsl	r0, r3, #17
  107a1e:	0020      	lsl	r0, r4, #0

00107a20 <fclose>:
  107a20:	b500      	push	{lr}
  107a22:	4b03      	ldr	r3, [pc, #12]	(107a30 <.text+0x7a30>)
  107a24:	1c01      	mov	r1, r0		(add r1, r0, #0)
  107a26:	6818      	ldr	r0, [r3, #0]
  107a28:	ffa8f7ff 	bl	10797c <_fclose_r>
  107a2c:	bc02      	pop	{r1}
  107a2e:	4708      	bx	r1
  107a30:	0458      	lsl	r0, r3, #17
  107a32:	0020      	lsl	r0, r4, #0
  107a34:	4718      	bx	r3
  107a36:	46c0      	nop			(mov r8, r8)

00107a38 <_fstat_r>:
  107a38:	b530      	push	{r4, r5, lr}
  107a3a:	4c09      	ldr	r4, [pc, #36]	(107a60 <.text+0x7a60>)
  107a3c:	2300      	mov	r3, #0
  107a3e:	1c05      	mov	r5, r0		(add r5, r0, #0)
  107a40:	6023      	str	r3, [r4, #0]
  107a42:	1c08      	mov	r0, r1		(add r0, r1, #0)
  107a44:	1c11      	mov	r1, r2		(add r1, r2, #0)
  107a46:	fd09f7ff 	bl	10745c <_fstat>
  107a4a:	1c43      	add	r3, r0, #1
  107a4c:	d002      	beq	107a54 <_fstat_r+0x1c>
  107a4e:	bc30      	pop	{r4, r5}
  107a50:	bc02      	pop	{r1}
  107a52:	4708      	bx	r1
  107a54:	6823      	ldr	r3, [r4, #0]
  107a56:	2b00      	cmp	r3, #0
  107a58:	d0f9      	beq	107a4e <_fstat_r+0x16>
  107a5a:	602b      	str	r3, [r5, #0]
  107a5c:	e7f7      	b	107a4e <_fstat_r+0x16>
  107a5e:	0000      	lsl	r0, r0, #0
  107a60:	0e6c      	lsr	r4, r5, #25
  107a62:	0020      	lsl	r0, r4, #0

00107a64 <_lseek_r>:
  107a64:	b530      	push	{r4, r5, lr}
  107a66:	4c09      	ldr	r4, [pc, #36]	(107a8c <.text+0x7a8c>)
  107a68:	1c05      	mov	r5, r0		(add r5, r0, #0)
  107a6a:	2000      	mov	r0, #0
  107a6c:	6020      	str	r0, [r4, #0]
  107a6e:	1c08      	mov	r0, r1		(add r0, r1, #0)
  107a70:	1c11      	mov	r1, r2		(add r1, r2, #0)
  107a72:	1c1a      	mov	r2, r3		(add r2, r3, #0)
  107a74:	fe2cf7ff 	bl	1076d0 <_lseek>
  107a78:	1c43      	add	r3, r0, #1
  107a7a:	d002      	beq	107a82 <_lseek_r+0x1e>
  107a7c:	bc30      	pop	{r4, r5}
  107a7e:	bc02      	pop	{r1}
  107a80:	4708      	bx	r1
  107a82:	6823      	ldr	r3, [r4, #0]
  107a84:	2b00      	cmp	r3, #0
  107a86:	d0f9      	beq	107a7c <_lseek_r+0x18>
  107a88:	602b      	str	r3, [r5, #0]
  107a8a:	e7f7      	b	107a7c <_lseek_r+0x18>
  107a8c:	0e6c      	lsr	r4, r5, #25
  107a8e:	0020      	lsl	r0, r4, #0

00107a90 <_read_r>:
  107a90:	b530      	push	{r4, r5, lr}
  107a92:	4c09      	ldr	r4, [pc, #36]	(107ab8 <.text+0x7ab8>)
  107a94:	1c05      	mov	r5, r0		(add r5, r0, #0)
  107a96:	2000      	mov	r0, #0
  107a98:	6020      	str	r0, [r4, #0]
  107a9a:	1c08      	mov	r0, r1		(add r0, r1, #0)
  107a9c:	1c11      	mov	r1, r2		(add r1, r2, #0)
  107a9e:	1c1a      	mov	r2, r3		(add r2, r3, #0)
  107aa0:	feb4f7ff 	bl	10780c <_read>
  107aa4:	1c43      	add	r3, r0, #1
  107aa6:	d002      	beq	107aae <_read_r+0x1e>
  107aa8:	bc30      	pop	{r4, r5}
  107aaa:	bc02      	pop	{r1}
  107aac:	4708      	bx	r1
  107aae:	6823      	ldr	r3, [r4, #0]
  107ab0:	2b00      	cmp	r3, #0
  107ab2:	d0f9      	beq	107aa8 <_read_r+0x18>
  107ab4:	602b      	str	r3, [r5, #0]
  107ab6:	e7f7      	b	107aa8 <_read_r+0x18>
  107ab8:	0e6c      	lsr	r4, r5, #25
  107aba:	0020      	lsl	r0, r4, #0

00107abc <__udivsi3>:
  107abc:	2900      	cmp	r1, #0
  107abe:	d034      	beq	107b2a <__udivsi3+0x6e>
  107ac0:	2301      	mov	r3, #1
  107ac2:	2200      	mov	r2, #0
  107ac4:	b410      	push	{r4}
  107ac6:	4288      	cmp	r0, r1
  107ac8:	d32c      	bcc	107b24 <__udivsi3+0x68>
  107aca:	2401      	mov	r4, #1
  107acc:	0724      	lsl	r4, r4, #28
  107ace:	42a1      	cmp	r1, r4
  107ad0:	d204      	bcs	107adc <__udivsi3+0x20>
  107ad2:	4281      	cmp	r1, r0
  107ad4:	d202      	bcs	107adc <__udivsi3+0x20>
  107ad6:	0109      	lsl	r1, r1, #4
  107ad8:	011b      	lsl	r3, r3, #4
  107ada:	e7f8      	b	107ace <__udivsi3+0x12>
  107adc:	00e4      	lsl	r4, r4, #3
  107ade:	42a1      	cmp	r1, r4
  107ae0:	d204      	bcs	107aec <__udivsi3+0x30>
  107ae2:	4281      	cmp	r1, r0
  107ae4:	d202      	bcs	107aec <__udivsi3+0x30>
  107ae6:	0049      	lsl	r1, r1, #1
  107ae8:	005b      	lsl	r3, r3, #1
  107aea:	e7f8      	b	107ade <__udivsi3+0x22>
  107aec:	4288      	cmp	r0, r1
  107aee:	d301      	bcc	107af4 <__udivsi3+0x38>
  107af0:	1a40      	sub	r0, r0, r1
  107af2:	431a      	orr	r2, r3
  107af4:	084c      	lsr	r4, r1, #1
  107af6:	42a0      	cmp	r0, r4
  107af8:	d302      	bcc	107b00 <__udivsi3+0x44>
  107afa:	1b00      	sub	r0, r0, r4
  107afc:	085c      	lsr	r4, r3, #1
  107afe:	4322      	orr	r2, r4
  107b00:	088c      	lsr	r4, r1, #2
  107b02:	42a0      	cmp	r0, r4
  107b04:	d302      	bcc	107b0c <__udivsi3+0x50>
  107b06:	1b00      	sub	r0, r0, r4
  107b08:	089c      	lsr	r4, r3, #2
  107b0a:	4322      	orr	r2, r4
  107b0c:	08cc      	lsr	r4, r1, #3
  107b0e:	42a0      	cmp	r0, r4
  107b10:	d302      	bcc	107b18 <__udivsi3+0x5c>
  107b12:	1b00      	sub	r0, r0, r4
  107b14:	08dc      	lsr	r4, r3, #3
  107b16:	4322      	orr	r2, r4
  107b18:	2800      	cmp	r0, #0
  107b1a:	d003      	beq	107b24 <__udivsi3+0x68>
  107b1c:	091b      	lsr	r3, r3, #4
  107b1e:	d001      	beq	107b24 <__udivsi3+0x68>
  107b20:	0909      	lsr	r1, r1, #4
  107b22:	e7e3      	b	107aec <__udivsi3+0x30>
  107b24:	1c10      	mov	r0, r2		(add r0, r2, #0)
  107b26:	bc10      	pop	{r4}
  107b28:	4770      	bx	lr
  107b2a:	b500      	push	{lr}
  107b2c:	f92ef000 	bl	107d8c <__aeabi_idiv0>
  107b30:	2000      	mov	r0, #0
  107b32:	bc02      	pop	{r1}
  107b34:	4708      	bx	r1
	...

00107b38 <__aeabi_uidivmod>:
  107b38:	b503      	push	{r0, r1, lr}
  107b3a:	ffbff7ff 	bl	107abc <__udivsi3>
  107b3e:	bc0e      	pop	{r1, r2, r3}
  107b40:	4342      	mul	r2, r0
  107b42:	1a89      	sub	r1, r1, r2
  107b44:	4718      	bx	r3
  107b46:	46c0      	nop			(mov r8, r8)

00107b48 <__divsi3>:
  107b48:	2900      	cmp	r1, #0
  107b4a:	d041      	beq	107bd0 <__divsi3+0x88>
  107b4c:	b410      	push	{r4}
  107b4e:	1c04      	mov	r4, r0		(add r4, r0, #0)
  107b50:	404c      	eor	r4, r1
  107b52:	46a4      	mov	ip, r4
  107b54:	2301      	mov	r3, #1
  107b56:	2200      	mov	r2, #0
  107b58:	2900      	cmp	r1, #0
  107b5a:	d500      	bpl	107b5e <__divsi3+0x16>
  107b5c:	4249      	neg	r1, r1
  107b5e:	2800      	cmp	r0, #0
  107b60:	d500      	bpl	107b64 <__divsi3+0x1c>
  107b62:	4240      	neg	r0, r0
  107b64:	4288      	cmp	r0, r1
  107b66:	d32c      	bcc	107bc2 <__divsi3+0x7a>
  107b68:	2401      	mov	r4, #1
  107b6a:	0724      	lsl	r4, r4, #28
  107b6c:	42a1      	cmp	r1, r4
  107b6e:	d204      	bcs	107b7a <__divsi3+0x32>
  107b70:	4281      	cmp	r1, r0
  107b72:	d202      	bcs	107b7a <__divsi3+0x32>
  107b74:	0109      	lsl	r1, r1, #4
  107b76:	011b      	lsl	r3, r3, #4
  107b78:	e7f8      	b	107b6c <__divsi3+0x24>
  107b7a:	00e4      	lsl	r4, r4, #3
  107b7c:	42a1      	cmp	r1, r4
  107b7e:	d204      	bcs	107b8a <__divsi3+0x42>
  107b80:	4281      	cmp	r1, r0
  107b82:	d202      	bcs	107b8a <__divsi3+0x42>
  107b84:	0049      	lsl	r1, r1, #1
  107b86:	005b      	lsl	r3, r3, #1
  107b88:	e7f8      	b	107b7c <__divsi3+0x34>
  107b8a:	4288      	cmp	r0, r1
  107b8c:	d301      	bcc	107b92 <__divsi3+0x4a>
  107b8e:	1a40      	sub	r0, r0, r1
  107b90:	431a      	orr	r2, r3
  107b92:	084c      	lsr	r4, r1, #1
  107b94:	42a0      	cmp	r0, r4
  107b96:	d302      	bcc	107b9e <__divsi3+0x56>
  107b98:	1b00      	sub	r0, r0, r4
  107b9a:	085c      	lsr	r4, r3, #1
  107b9c:	4322      	orr	r2, r4
  107b9e:	088c      	lsr	r4, r1, #2
  107ba0:	42a0      	cmp	r0, r4
  107ba2:	d302      	bcc	107baa <__divsi3+0x62>
  107ba4:	1b00      	sub	r0, r0, r4
  107ba6:	089c      	lsr	r4, r3, #2
  107ba8:	4322      	orr	r2, r4
  107baa:	08cc      	lsr	r4, r1, #3
  107bac:	42a0      	cmp	r0, r4
  107bae:	d302      	bcc	107bb6 <__divsi3+0x6e>
  107bb0:	1b00      	sub	r0, r0, r4
  107bb2:	08dc      	lsr	r4, r3, #3
  107bb4:	4322      	orr	r2, r4
  107bb6:	2800      	cmp	r0, #0
  107bb8:	d003      	beq	107bc2 <__divsi3+0x7a>
  107bba:	091b      	lsr	r3, r3, #4
  107bbc:	d001      	beq	107bc2 <__divsi3+0x7a>
  107bbe:	0909      	lsr	r1, r1, #4
  107bc0:	e7e3      	b	107b8a <__divsi3+0x42>
  107bc2:	1c10      	mov	r0, r2		(add r0, r2, #0)
  107bc4:	4664      	mov	r4, ip
  107bc6:	2c00      	cmp	r4, #0
  107bc8:	d500      	bpl	107bcc <__divsi3+0x84>
  107bca:	4240      	neg	r0, r0
  107bcc:	bc10      	pop	{r4}
  107bce:	4770      	bx	lr
  107bd0:	b500      	push	{lr}
  107bd2:	f8dbf000 	bl	107d8c <__aeabi_idiv0>
  107bd6:	2000      	mov	r0, #0
  107bd8:	bc02      	pop	{r1}
  107bda:	4708      	bx	r1

00107bdc <__aeabi_idivmod>:
  107bdc:	b503      	push	{r0, r1, lr}
  107bde:	ffb3f7ff 	bl	107b48 <__divsi3>
  107be2:	bc0e      	pop	{r1, r2, r3}
  107be4:	4342      	mul	r2, r0
  107be6:	1a89      	sub	r1, r1, r2
  107be8:	4718      	bx	r3
  107bea:	46c0      	nop			(mov r8, r8)

00107bec <__umodsi3>:
  107bec:	2900      	cmp	r1, #0
  107bee:	d05a      	beq	107ca6 <__umodsi3+0xba>
  107bf0:	2301      	mov	r3, #1
  107bf2:	4288      	cmp	r0, r1
  107bf4:	d200      	bcs	107bf8 <__umodsi3+0xc>
  107bf6:	4770      	bx	lr
  107bf8:	b410      	push	{r4}
  107bfa:	2401      	mov	r4, #1
  107bfc:	0724      	lsl	r4, r4, #28
  107bfe:	42a1      	cmp	r1, r4
  107c00:	d204      	bcs	107c0c <__umodsi3+0x20>
  107c02:	4281      	cmp	r1, r0
  107c04:	d202      	bcs	107c0c <__umodsi3+0x20>
  107c06:	0109      	lsl	r1, r1, #4
  107c08:	011b      	lsl	r3, r3, #4
  107c0a:	e7f8      	b	107bfe <__umodsi3+0x12>
  107c0c:	00e4      	lsl	r4, r4, #3
  107c0e:	42a1      	cmp	r1, r4
  107c10:	d204      	bcs	107c1c <__umodsi3+0x30>
  107c12:	4281      	cmp	r1, r0
  107c14:	d202      	bcs	107c1c <__umodsi3+0x30>
  107c16:	0049      	lsl	r1, r1, #1
  107c18:	005b      	lsl	r3, r3, #1
  107c1a:	e7f8      	b	107c0e <__umodsi3+0x22>
  107c1c:	2200      	mov	r2, #0
  107c1e:	4288      	cmp	r0, r1
  107c20:	d300      	bcc	107c24 <__umodsi3+0x38>
  107c22:	1a40      	sub	r0, r0, r1
  107c24:	084c      	lsr	r4, r1, #1
  107c26:	42a0      	cmp	r0, r4
  107c28:	d305      	bcc	107c36 <__umodsi3+0x4a>
  107c2a:	1b00      	sub	r0, r0, r4
  107c2c:	469c      	mov	ip, r3
  107c2e:	2401      	mov	r4, #1
  107c30:	41e3      	ror	r3, r4
  107c32:	431a      	orr	r2, r3
  107c34:	4663      	mov	r3, ip
  107c36:	088c      	lsr	r4, r1, #2
  107c38:	42a0      	cmp	r0, r4
  107c3a:	d305      	bcc	107c48 <__umodsi3+0x5c>
  107c3c:	1b00      	sub	r0, r0, r4
  107c3e:	469c      	mov	ip, r3
  107c40:	2402      	mov	r4, #2
  107c42:	41e3      	ror	r3, r4
  107c44:	431a      	orr	r2, r3
  107c46:	4663      	mov	r3, ip
  107c48:	08cc      	lsr	r4, r1, #3
  107c4a:	42a0      	cmp	r0, r4
  107c4c:	d305      	bcc	107c5a <__umodsi3+0x6e>
  107c4e:	1b00      	sub	r0, r0, r4
  107c50:	469c      	mov	ip, r3
  107c52:	2403      	mov	r4, #3
  107c54:	41e3      	ror	r3, r4
  107c56:	431a      	orr	r2, r3
  107c58:	4663      	mov	r3, ip
  107c5a:	469c      	mov	ip, r3
  107c5c:	2800      	cmp	r0, #0
  107c5e:	d003      	beq	107c68 <__umodsi3+0x7c>
  107c60:	091b      	lsr	r3, r3, #4
  107c62:	d001      	beq	107c68 <__umodsi3+0x7c>
  107c64:	0909      	lsr	r1, r1, #4
  107c66:	e7d9      	b	107c1c <__umodsi3+0x30>
  107c68:	240e      	mov	r4, #14
  107c6a:	0724      	lsl	r4, r4, #28
  107c6c:	4022      	and	r2, r4
  107c6e:	d018      	beq	107ca2 <__umodsi3+0xb6>
  107c70:	4663      	mov	r3, ip
  107c72:	2407      	mov	r4, #7
  107c74:	4223      	tst	r3, r4
  107c76:	d014      	beq	107ca2 <__umodsi3+0xb6>
  107c78:	4663      	mov	r3, ip
  107c7a:	2403      	mov	r4, #3
  107c7c:	41e3      	ror	r3, r4
  107c7e:	421a      	tst	r2, r3
  107c80:	d001      	beq	107c86 <__umodsi3+0x9a>
  107c82:	08cc      	lsr	r4, r1, #3
  107c84:	1900      	add	r0, r0, r4
  107c86:	4663      	mov	r3, ip
  107c88:	2402      	mov	r4, #2
  107c8a:	41e3      	ror	r3, r4
  107c8c:	421a      	tst	r2, r3
  107c8e:	d001      	beq	107c94 <__umodsi3+0xa8>
  107c90:	088c      	lsr	r4, r1, #2
  107c92:	1900      	add	r0, r0, r4
  107c94:	4663      	mov	r3, ip
  107c96:	2401      	mov	r4, #1
  107c98:	41e3      	ror	r3, r4
  107c9a:	421a      	tst	r2, r3
  107c9c:	d001      	beq	107ca2 <__umodsi3+0xb6>
  107c9e:	084c      	lsr	r4, r1, #1
  107ca0:	1900      	add	r0, r0, r4
  107ca2:	bc10      	pop	{r4}
  107ca4:	4770      	bx	lr
  107ca6:	b500      	push	{lr}
  107ca8:	f870f000 	bl	107d8c <__aeabi_idiv0>
  107cac:	2000      	mov	r0, #0
  107cae:	bc02      	pop	{r1}
  107cb0:	4708      	bx	r1
  107cb2:	46c0      	nop			(mov r8, r8)

00107cb4 <__modsi3>:
  107cb4:	2301      	mov	r3, #1
  107cb6:	2900      	cmp	r1, #0
  107cb8:	d062      	beq	107d80 <__modsi3+0xcc>
  107cba:	d500      	bpl	107cbe <__modsi3+0xa>
  107cbc:	4249      	neg	r1, r1
  107cbe:	b410      	push	{r4}
  107cc0:	b401      	push	{r0}
  107cc2:	2800      	cmp	r0, #0
  107cc4:	d500      	bpl	107cc8 <__modsi3+0x14>
  107cc6:	4240      	neg	r0, r0
  107cc8:	4288      	cmp	r0, r1
  107cca:	d353      	bcc	107d74 <__modsi3+0xc0>
  107ccc:	2401      	mov	r4, #1
  107cce:	0724      	lsl	r4, r4, #28
  107cd0:	42a1      	cmp	r1, r4
  107cd2:	d204      	bcs	107cde <__modsi3+0x2a>
  107cd4:	4281      	cmp	r1, r0
  107cd6:	d202      	bcs	107cde <__modsi3+0x2a>
  107cd8:	0109      	lsl	r1, r1, #4
  107cda:	011b      	lsl	r3, r3, #4
  107cdc:	e7f8      	b	107cd0 <__modsi3+0x1c>
  107cde:	00e4      	lsl	r4, r4, #3
  107ce0:	42a1      	cmp	r1, r4
  107ce2:	d204      	bcs	107cee <__modsi3+0x3a>
  107ce4:	4281      	cmp	r1, r0
  107ce6:	d202      	bcs	107cee <__modsi3+0x3a>
  107ce8:	0049      	lsl	r1, r1, #1
  107cea:	005b      	lsl	r3, r3, #1
  107cec:	e7f8      	b	107ce0 <__modsi3+0x2c>
  107cee:	2200      	mov	r2, #0
  107cf0:	4288      	cmp	r0, r1
  107cf2:	d300      	bcc	107cf6 <__modsi3+0x42>
  107cf4:	1a40      	sub	r0, r0, r1
  107cf6:	084c      	lsr	r4, r1, #1
  107cf8:	42a0      	cmp	r0, r4
  107cfa:	d305      	bcc	107d08 <__modsi3+0x54>
  107cfc:	1b00      	sub	r0, r0, r4
  107cfe:	469c      	mov	ip, r3
  107d00:	2401      	mov	r4, #1
  107d02:	41e3      	ror	r3, r4
  107d04:	431a      	orr	r2, r3
  107d06:	4663      	mov	r3, ip
  107d08:	088c      	lsr	r4, r1, #2
  107d0a:	42a0      	cmp	r0, r4
  107d0c:	d305      	bcc	107d1a <__modsi3+0x66>
  107d0e:	1b00      	sub	r0, r0, r4
  107d10:	469c      	mov	ip, r3
  107d12:	2402      	mov	r4, #2
  107d14:	41e3      	ror	r3, r4
  107d16:	431a      	orr	r2, r3
  107d18:	4663      	mov	r3, ip
  107d1a:	08cc      	lsr	r4, r1, #3
  107d1c:	42a0      	cmp	r0, r4
  107d1e:	d305      	bcc	107d2c <__modsi3+0x78>
  107d20:	1b00      	sub	r0, r0, r4
  107d22:	469c      	mov	ip, r3
  107d24:	2403      	mov	r4, #3
  107d26:	41e3      	ror	r3, r4
  107d28:	431a      	orr	r2, r3
  107d2a:	4663      	mov	r3, ip
  107d2c:	469c      	mov	ip, r3
  107d2e:	2800      	cmp	r0, #0
  107d30:	d003      	beq	107d3a <__modsi3+0x86>
  107d32:	091b      	lsr	r3, r3, #4
  107d34:	d001      	beq	107d3a <__modsi3+0x86>
  107d36:	0909      	lsr	r1, r1, #4
  107d38:	e7d9      	b	107cee <__modsi3+0x3a>
  107d3a:	240e      	mov	r4, #14
  107d3c:	0724      	lsl	r4, r4, #28
  107d3e:	4022      	and	r2, r4
  107d40:	d018      	beq	107d74 <__modsi3+0xc0>
  107d42:	4663      	mov	r3, ip
  107d44:	2407      	mov	r4, #7
  107d46:	4223      	tst	r3, r4
  107d48:	d014      	beq	107d74 <__modsi3+0xc0>
  107d4a:	4663      	mov	r3, ip
  107d4c:	2403      	mov	r4, #3
  107d4e:	41e3      	ror	r3, r4
  107d50:	421a      	tst	r2, r3
  107d52:	d001      	beq	107d58 <__modsi3+0xa4>
  107d54:	08cc      	lsr	r4, r1, #3
  107d56:	1900      	add	r0, r0, r4
  107d58:	4663      	mov	r3, ip
  107d5a:	2402      	mov	r4, #2
  107d5c:	41e3      	ror	r3, r4
  107d5e:	421a      	tst	r2, r3
  107d60:	d001      	beq	107d66 <__modsi3+0xb2>
  107d62:	088c      	lsr	r4, r1, #2
  107d64:	1900      	add	r0, r0, r4
  107d66:	4663      	mov	r3, ip
  107d68:	2401      	mov	r4, #1
  107d6a:	41e3      	ror	r3, r4
  107d6c:	421a      	tst	r2, r3
  107d6e:	d001      	beq	107d74 <__modsi3+0xc0>
  107d70:	084c      	lsr	r4, r1, #1
  107d72:	1900      	add	r0, r0, r4
  107d74:	bc10      	pop	{r4}
  107d76:	2c00      	cmp	r4, #0
  107d78:	d500      	bpl	107d7c <__modsi3+0xc8>
  107d7a:	4240      	neg	r0, r0
  107d7c:	bc10      	pop	{r4}
  107d7e:	4770      	bx	lr
  107d80:	b500      	push	{lr}
  107d82:	f803f000 	bl	107d8c <__aeabi_idiv0>
  107d86:	2000      	mov	r0, #0
  107d88:	bc02      	pop	{r1}
  107d8a:	4708      	bx	r1

00107d8c <__aeabi_idiv0>:
  107d8c:	4770      	bx	lr
  107d8e:	46c0      	nop			(mov r8, r8)

00107d90 <__aeabi_drsub>:
  107d90:	e2200102 	eor	r0, r0, #-2147483648	; 0x80000000
  107d94:	ea000000 	b	107d9c <__adddf3>

00107d98 <__aeabi_dsub>:
  107d98:	e2222102 	eor	r2, r2, #-2147483648	; 0x80000000

00107d9c <__adddf3>:
  107d9c:	e92d4030 	stmdb	sp!, {r4, r5, lr}
  107da0:	e1a04080 	mov	r4, r0, lsl #1
  107da4:	e1a05082 	mov	r5, r2, lsl #1
  107da8:	e1340005 	teq	r4, r5
  107dac:	01310003 	teqeq	r1, r3
  107db0:	1194c001 	orrnes	ip, r4, r1
  107db4:	1195c003 	orrnes	ip, r5, r3
  107db8:	11f0cac4 	mvnnes	ip, r4, asr #21
  107dbc:	11f0cac5 	mvnnes	ip, r5, asr #21
  107dc0:	0a00008c 	beq	107ff8 <__adddf3+0x25c>
  107dc4:	e1a04aa4 	mov	r4, r4, lsr #21
  107dc8:	e0745aa5 	rsbs	r5, r4, r5, lsr #21
  107dcc:	b2655000 	rsblt	r5, r5, #0	; 0x0
  107dd0:	da000006 	ble	107df0 <__adddf3+0x54>
  107dd4:	e0844005 	add	r4, r4, r5
  107dd8:	e0213003 	eor	r3, r1, r3
  107ddc:	e0202002 	eor	r2, r0, r2
  107de0:	e0231001 	eor	r1, r3, r1
  107de4:	e0220000 	eor	r0, r2, r0
  107de8:	e0213003 	eor	r3, r1, r3
  107dec:	e0202002 	eor	r2, r0, r2
  107df0:	e3550036 	cmp	r5, #54	; 0x36
  107df4:	88bd4030 	ldmhiia	sp!, {r4, r5, lr}
  107df8:	812fff1e 	bxhi	lr
  107dfc:	e3100102 	tst	r0, #-2147483648	; 0x80000000
  107e00:	e1a00600 	mov	r0, r0, lsl #12
  107e04:	e3a0c601 	mov	ip, #1048576	; 0x100000
  107e08:	e18c0620 	orr	r0, ip, r0, lsr #12
  107e0c:	0a000001 	beq	107e18 <__adddf3+0x7c>
  107e10:	e2711000 	rsbs	r1, r1, #0	; 0x0
  107e14:	e2e00000 	rsc	r0, r0, #0	; 0x0
  107e18:	e3120102 	tst	r2, #-2147483648	; 0x80000000
  107e1c:	e1a02602 	mov	r2, r2, lsl #12
  107e20:	e18c2622 	orr	r2, ip, r2, lsr #12
  107e24:	0a000001 	beq	107e30 <__adddf3+0x94>
  107e28:	e2733000 	rsbs	r3, r3, #0	; 0x0
  107e2c:	e2e22000 	rsc	r2, r2, #0	; 0x0
  107e30:	e1340005 	teq	r4, r5
  107e34:	0a000069 	beq	107fe0 <__adddf3+0x244>
  107e38:	e2444001 	sub	r4, r4, #1	; 0x1
  107e3c:	e275e020 	rsbs	lr, r5, #32	; 0x20
  107e40:	ba000005 	blt	107e5c <__adddf3+0xc0>
  107e44:	e1a0ce13 	mov	ip, r3, lsl lr
  107e48:	e0911533 	adds	r1, r1, r3, lsr r5
  107e4c:	e2a00000 	adc	r0, r0, #0	; 0x0
  107e50:	e0911e12 	adds	r1, r1, r2, lsl lr
  107e54:	e0b00552 	adcs	r0, r0, r2, asr r5
  107e58:	ea000006 	b	107e78 <__adddf3+0xdc>
  107e5c:	e2455020 	sub	r5, r5, #32	; 0x20
  107e60:	e28ee020 	add	lr, lr, #32	; 0x20
  107e64:	e3530001 	cmp	r3, #1	; 0x1
  107e68:	e1a0ce12 	mov	ip, r2, lsl lr
  107e6c:	238cc002 	orrcs	ip, ip, #2	; 0x2
  107e70:	e0911552 	adds	r1, r1, r2, asr r5
  107e74:	e0b00fc2 	adcs	r0, r0, r2, asr #31
  107e78:	e2005102 	and	r5, r0, #-2147483648	; 0x80000000
  107e7c:	5a000002 	bpl	107e8c <__adddf3+0xf0>
  107e80:	e27cc000 	rsbs	ip, ip, #0	; 0x0
  107e84:	e2f11000 	rscs	r1, r1, #0	; 0x0
  107e88:	e2e00000 	rsc	r0, r0, #0	; 0x0
  107e8c:	e3500601 	cmp	r0, #1048576	; 0x100000
  107e90:	3a00000f 	bcc	107ed4 <__adddf3+0x138>
  107e94:	e3500602 	cmp	r0, #2097152	; 0x200000
  107e98:	3a000006 	bcc	107eb8 <__adddf3+0x11c>
  107e9c:	e1b000a0 	movs	r0, r0, lsr #1
  107ea0:	e1b01061 	movs	r1, r1, rrx
  107ea4:	e1a0c06c 	mov	ip, ip, rrx
  107ea8:	e2844001 	add	r4, r4, #1	; 0x1
  107eac:	e1a02a84 	mov	r2, r4, lsl #21
  107eb0:	e3720501 	cmn	r2, #4194304	; 0x400000
  107eb4:	2a00006b 	bcs	108068 <__adddf3+0x2cc>
  107eb8:	e35c0102 	cmp	ip, #-2147483648	; 0x80000000
  107ebc:	01b0c0a1 	moveqs	ip, r1, lsr #1
  107ec0:	e2b11000 	adcs	r1, r1, #0	; 0x0
  107ec4:	e0a00a04 	adc	r0, r0, r4, lsl #20
  107ec8:	e1800005 	orr	r0, r0, r5
  107ecc:	e8bd4030 	ldmia	sp!, {r4, r5, lr}
  107ed0:	e12fff1e 	bx	lr
  107ed4:	e1b0c08c 	movs	ip, ip, lsl #1
  107ed8:	e0b11001 	adcs	r1, r1, r1
  107edc:	e0a00000 	adc	r0, r0, r0
  107ee0:	e3100601 	tst	r0, #1048576	; 0x100000
  107ee4:	e2444001 	sub	r4, r4, #1	; 0x1
  107ee8:	1afffff2 	bne	107eb8 <__adddf3+0x11c>
  107eec:	e3300000 	teq	r0, #0	; 0x0
  107ef0:	13a03014 	movne	r3, #20	; 0x14
  107ef4:	03a03034 	moveq	r3, #52	; 0x34
  107ef8:	01a00001 	moveq	r0, r1
  107efc:	03a01000 	moveq	r1, #0	; 0x0
  107f00:	e1a02000 	mov	r2, r0
  107f04:	e3520801 	cmp	r2, #65536	; 0x10000
  107f08:	21a02822 	movcs	r2, r2, lsr #16
  107f0c:	22433010 	subcs	r3, r3, #16	; 0x10
  107f10:	e3520c01 	cmp	r2, #256	; 0x100
  107f14:	21a02422 	movcs	r2, r2, lsr #8
  107f18:	22433008 	subcs	r3, r3, #8	; 0x8
  107f1c:	e3520010 	cmp	r2, #16	; 0x10
  107f20:	21a02222 	movcs	r2, r2, lsr #4
  107f24:	22433004 	subcs	r3, r3, #4	; 0x4
  107f28:	e3520004 	cmp	r2, #4	; 0x4
  107f2c:	22433002 	subcs	r3, r3, #2	; 0x2
  107f30:	304330a2 	subcc	r3, r3, r2, lsr #1
  107f34:	e04331a2 	sub	r3, r3, r2, lsr #3
  107f38:	e2532020 	subs	r2, r3, #32	; 0x20
  107f3c:	aa000007 	bge	107f60 <__adddf3+0x1c4>
  107f40:	e292200c 	adds	r2, r2, #12	; 0xc
  107f44:	da000004 	ble	107f5c <__adddf3+0x1c0>
  107f48:	e282c014 	add	ip, r2, #20	; 0x14
  107f4c:	e262200c 	rsb	r2, r2, #12	; 0xc
  107f50:	e1a01c10 	mov	r1, r0, lsl ip
  107f54:	e1a00230 	mov	r0, r0, lsr r2
  107f58:	ea000004 	b	107f70 <__adddf3+0x1d4>
  107f5c:	e2822014 	add	r2, r2, #20	; 0x14
  107f60:	d262c020 	rsble	ip, r2, #32	; 0x20
  107f64:	e1a00210 	mov	r0, r0, lsl r2
  107f68:	d1800c31 	orrle	r0, r0, r1, lsr ip
  107f6c:	d1a01211 	movle	r1, r1, lsl r2
  107f70:	e0544003 	subs	r4, r4, r3
  107f74:	a0800a04 	addge	r0, r0, r4, lsl #20
  107f78:	a1800005 	orrge	r0, r0, r5
  107f7c:	a8bd4030 	ldmgeia	sp!, {r4, r5, lr}
  107f80:	a12fff1e 	bxge	lr
  107f84:	e1e04004 	mvn	r4, r4
  107f88:	e254401f 	subs	r4, r4, #31	; 0x1f
  107f8c:	aa00000f 	bge	107fd0 <__adddf3+0x234>
  107f90:	e294400c 	adds	r4, r4, #12	; 0xc
  107f94:	ca000006 	bgt	107fb4 <__adddf3+0x218>
  107f98:	e2844014 	add	r4, r4, #20	; 0x14
  107f9c:	e2642020 	rsb	r2, r4, #32	; 0x20
  107fa0:	e1a01431 	mov	r1, r1, lsr r4
  107fa4:	e1811210 	orr	r1, r1, r0, lsl r2
  107fa8:	e1850430 	orr	r0, r5, r0, lsr r4
  107fac:	e8bd4030 	ldmia	sp!, {r4, r5, lr}
  107fb0:	e12fff1e 	bx	lr
  107fb4:	e264400c 	rsb	r4, r4, #12	; 0xc
  107fb8:	e2642020 	rsb	r2, r4, #32	; 0x20
  107fbc:	e1a01231 	mov	r1, r1, lsr r2
  107fc0:	e1811410 	orr	r1, r1, r0, lsl r4
  107fc4:	e1a00005 	mov	r0, r5
  107fc8:	e8bd4030 	ldmia	sp!, {r4, r5, lr}
  107fcc:	e12fff1e 	bx	lr
  107fd0:	e1a01430 	mov	r1, r0, lsr r4
  107fd4:	e1a00005 	mov	r0, r5
  107fd8:	e8bd4030 	ldmia	sp!, {r4, r5, lr}
  107fdc:	e12fff1e 	bx	lr
  107fe0:	e3340000 	teq	r4, #0	; 0x0
  107fe4:	e2222601 	eor	r2, r2, #1048576	; 0x100000
  107fe8:	02200601 	eoreq	r0, r0, #1048576	; 0x100000
  107fec:	02844001 	addeq	r4, r4, #1	; 0x1
  107ff0:	12455001 	subne	r5, r5, #1	; 0x1
  107ff4:	eaffff8f 	b	107e38 <__adddf3+0x9c>
  107ff8:	e1f0cac4 	mvns	ip, r4, asr #21
  107ffc:	11f0cac5 	mvnnes	ip, r5, asr #21
  108000:	0a00001d 	beq	10807c <__adddf3+0x2e0>
  108004:	e1340005 	teq	r4, r5
  108008:	01310003 	teqeq	r1, r3
  10800c:	0a000004 	beq	108024 <__adddf3+0x288>
  108010:	e3340000 	teq	r4, #0	; 0x0
  108014:	01a00002 	moveq	r0, r2
  108018:	01a01003 	moveq	r1, r3
  10801c:	e8bd4030 	ldmia	sp!, {r4, r5, lr}
  108020:	e12fff1e 	bx	lr
  108024:	e1300002 	teq	r0, r2
  108028:	13a00000 	movne	r0, #0	; 0x0
  10802c:	13a01000 	movne	r1, #0	; 0x0
  108030:	18bd4030 	ldmneia	sp!, {r4, r5, lr}
  108034:	112fff1e 	bxne	lr
  108038:	e1b0caa4 	movs	ip, r4, lsr #21
  10803c:	1a000004 	bne	108054 <__adddf3+0x2b8>
  108040:	e1b01081 	movs	r1, r1, lsl #1
  108044:	e0b00000 	adcs	r0, r0, r0
  108048:	23800102 	orrcs	r0, r0, #-2147483648	; 0x80000000
  10804c:	e8bd4030 	ldmia	sp!, {r4, r5, lr}
  108050:	e12fff1e 	bx	lr
  108054:	e2944501 	adds	r4, r4, #4194304	; 0x400000
  108058:	32800601 	addcc	r0, r0, #1048576	; 0x100000
  10805c:	38bd4030 	ldmccia	sp!, {r4, r5, lr}
  108060:	312fff1e 	bxcc	lr
  108064:	e2005102 	and	r5, r0, #-2147483648	; 0x80000000
  108068:	e385047f 	orr	r0, r5, #2130706432	; 0x7f000000
  10806c:	e380060f 	orr	r0, r0, #15728640	; 0xf00000
  108070:	e3a01000 	mov	r1, #0	; 0x0
  108074:	e8bd4030 	ldmia	sp!, {r4, r5, lr}
  108078:	e12fff1e 	bx	lr
  10807c:	e1f0cac4 	mvns	ip, r4, asr #21
  108080:	11a00002 	movne	r0, r2
  108084:	11a01003 	movne	r1, r3
  108088:	01f0cac5 	mvneqs	ip, r5, asr #21
  10808c:	11a02000 	movne	r2, r0
  108090:	11a03001 	movne	r3, r1
  108094:	e1914600 	orrs	r4, r1, r0, lsl #12
  108098:	01935602 	orreqs	r5, r3, r2, lsl #12
  10809c:	01300002 	teqeq	r0, r2
  1080a0:	13800702 	orrne	r0, r0, #524288	; 0x80000
  1080a4:	e8bd4030 	ldmia	sp!, {r4, r5, lr}
  1080a8:	e12fff1e 	bx	lr

001080ac <__aeabi_ui2d>:
  1080ac:	e3300000 	teq	r0, #0	; 0x0
  1080b0:	03a01000 	moveq	r1, #0	; 0x0
  1080b4:	012fff1e 	bxeq	lr
  1080b8:	e92d4030 	stmdb	sp!, {r4, r5, lr}
  1080bc:	e3a04b01 	mov	r4, #1024	; 0x400
  1080c0:	e2844032 	add	r4, r4, #50	; 0x32
  1080c4:	e3a05000 	mov	r5, #0	; 0x0
  1080c8:	e1a01000 	mov	r1, r0
  1080cc:	e3a00000 	mov	r0, #0	; 0x0
  1080d0:	eaffff85 	b	107eec <__adddf3+0x150>

001080d4 <__aeabi_i2d>:
  1080d4:	e3300000 	teq	r0, #0	; 0x0
  1080d8:	03a01000 	moveq	r1, #0	; 0x0
  1080dc:	012fff1e 	bxeq	lr
  1080e0:	e92d4030 	stmdb	sp!, {r4, r5, lr}
  1080e4:	e3a04b01 	mov	r4, #1024	; 0x400
  1080e8:	e2844032 	add	r4, r4, #50	; 0x32
  1080ec:	e2105102 	ands	r5, r0, #-2147483648	; 0x80000000
  1080f0:	42600000 	rsbmi	r0, r0, #0	; 0x0
  1080f4:	e1a01000 	mov	r1, r0
  1080f8:	e3a00000 	mov	r0, #0	; 0x0
  1080fc:	eaffff7a 	b	107eec <__adddf3+0x150>

00108100 <__aeabi_f2d>:
  108100:	e1b02080 	movs	r2, r0, lsl #1
  108104:	e1a001c2 	mov	r0, r2, asr #3
  108108:	e1a00060 	mov	r0, r0, rrx
  10810c:	e1a01e02 	mov	r1, r2, lsl #28
  108110:	121234ff 	andnes	r3, r2, #-16777216	; 0xff000000
  108114:	133304ff 	teqne	r3, #-16777216	; 0xff000000
  108118:	1220030e 	eorne	r0, r0, #939524096	; 0x38000000
  10811c:	112fff1e 	bxne	lr
  108120:	e3320000 	teq	r2, #0	; 0x0
  108124:	133304ff 	teqne	r3, #-16777216	; 0xff000000
  108128:	012fff1e 	bxeq	lr
  10812c:	e92d4030 	stmdb	sp!, {r4, r5, lr}
  108130:	e3a04d0e 	mov	r4, #896	; 0x380
  108134:	e2005102 	and	r5, r0, #-2147483648	; 0x80000000
  108138:	e3c00102 	bic	r0, r0, #-2147483648	; 0x80000000
  10813c:	eaffff6a 	b	107eec <__adddf3+0x150>

00108140 <__aeabi_ul2d>:
  108140:	e1902001 	orrs	r2, r0, r1
  108144:	012fff1e 	bxeq	lr
  108148:	e92d4030 	stmdb	sp!, {r4, r5, lr}
  10814c:	e3a05000 	mov	r5, #0	; 0x0
  108150:	ea000006 	b	108170 <__aeabi_l2d+0x1c>

00108154 <__aeabi_l2d>:
  108154:	e1902001 	orrs	r2, r0, r1
  108158:	012fff1e 	bxeq	lr
  10815c:	e92d4030 	stmdb	sp!, {r4, r5, lr}
  108160:	e2115102 	ands	r5, r1, #-2147483648	; 0x80000000
  108164:	5a000001 	bpl	108170 <__aeabi_l2d+0x1c>
  108168:	e2700000 	rsbs	r0, r0, #0	; 0x0
  10816c:	e2e11000 	rsc	r1, r1, #0	; 0x0
  108170:	e3a04b01 	mov	r4, #1024	; 0x400
  108174:	e2844032 	add	r4, r4, #50	; 0x32
  108178:	e1a0c000 	mov	ip, r0
  10817c:	e1a00001 	mov	r0, r1
  108180:	e1a0100c 	mov	r1, ip
  108184:	e1b0cb20 	movs	ip, r0, lsr #22
  108188:	0affff3f 	beq	107e8c <__adddf3+0xf0>
  10818c:	e3a02003 	mov	r2, #3	; 0x3
  108190:	e1b0c1ac 	movs	ip, ip, lsr #3
  108194:	12822003 	addne	r2, r2, #3	; 0x3
  108198:	e1b0c1ac 	movs	ip, ip, lsr #3
  10819c:	12822003 	addne	r2, r2, #3	; 0x3
  1081a0:	e08221ac 	add	r2, r2, ip, lsr #3
  1081a4:	e2623020 	rsb	r3, r2, #32	; 0x20
  1081a8:	e1a0c311 	mov	ip, r1, lsl r3
  1081ac:	e1a01231 	mov	r1, r1, lsr r2
  1081b0:	e1811310 	orr	r1, r1, r0, lsl r3
  1081b4:	e1a00230 	mov	r0, r0, lsr r2
  1081b8:	e0844002 	add	r4, r4, r2
  1081bc:	eaffff32 	b	107e8c <__adddf3+0xf0>

001081c0 <__aeabi_dmul>:
  1081c0:	e92d4070 	stmdb	sp!, {r4, r5, r6, lr}
  1081c4:	e3a0c0ff 	mov	ip, #255	; 0xff
  1081c8:	e38ccc07 	orr	ip, ip, #1792	; 0x700
  1081cc:	e01c4a20 	ands	r4, ip, r0, lsr #20
  1081d0:	101c5a22 	andnes	r5, ip, r2, lsr #20
  1081d4:	1134000c 	teqne	r4, ip
  1081d8:	1135000c 	teqne	r5, ip
  1081dc:	0b000075 	bleq	1083b8 <__aeabi_dmul+0x1f8>
  1081e0:	e0844005 	add	r4, r4, r5
  1081e4:	e0206002 	eor	r6, r0, r2
  1081e8:	e1c00a8c 	bic	r0, r0, ip, lsl #21
  1081ec:	e1c22a8c 	bic	r2, r2, ip, lsl #21
  1081f0:	e1915600 	orrs	r5, r1, r0, lsl #12
  1081f4:	11935602 	orrnes	r5, r3, r2, lsl #12
  1081f8:	e3800601 	orr	r0, r0, #1048576	; 0x100000
  1081fc:	e3822601 	orr	r2, r2, #1048576	; 0x100000
  108200:	0a00001d 	beq	10827c <__aeabi_dmul+0xbc>
  108204:	e08ec391 	umull	ip, lr, r1, r3
  108208:	e3a05000 	mov	r5, #0	; 0x0
  10820c:	e0a5e390 	umlal	lr, r5, r0, r3
  108210:	e2063102 	and	r3, r6, #-2147483648	; 0x80000000
  108214:	e0a5e291 	umlal	lr, r5, r1, r2
  108218:	e3a06000 	mov	r6, #0	; 0x0
  10821c:	e0a65290 	umlal	r5, r6, r0, r2
  108220:	e33c0000 	teq	ip, #0	; 0x0
  108224:	138ee001 	orrne	lr, lr, #1	; 0x1
  108228:	e24440ff 	sub	r4, r4, #255	; 0xff
  10822c:	e3560c02 	cmp	r6, #512	; 0x200
  108230:	e2c44c03 	sbc	r4, r4, #768	; 0x300
  108234:	2a000002 	bcs	108244 <__aeabi_dmul+0x84>
  108238:	e1b0e08e 	movs	lr, lr, lsl #1
  10823c:	e0b55005 	adcs	r5, r5, r5
  108240:	e0a66006 	adc	r6, r6, r6
  108244:	e1830586 	orr	r0, r3, r6, lsl #11
  108248:	e1800aa5 	orr	r0, r0, r5, lsr #21
  10824c:	e1a01585 	mov	r1, r5, lsl #11
  108250:	e1811aae 	orr	r1, r1, lr, lsr #21
  108254:	e1a0e58e 	mov	lr, lr, lsl #11
  108258:	e254c0fd 	subs	ip, r4, #253	; 0xfd
  10825c:	835c0c07 	cmphi	ip, #1792	; 0x700
  108260:	8a000011 	bhi	1082ac <__aeabi_dmul+0xec>
  108264:	e35e0102 	cmp	lr, #-2147483648	; 0x80000000
  108268:	01b0e0a1 	moveqs	lr, r1, lsr #1
  10826c:	e2b11000 	adcs	r1, r1, #0	; 0x0
  108270:	e0a00a04 	adc	r0, r0, r4, lsl #20
  108274:	e8bd4070 	ldmia	sp!, {r4, r5, r6, lr}
  108278:	e12fff1e 	bx	lr
  10827c:	e2066102 	and	r6, r6, #-2147483648	; 0x80000000
  108280:	e1860000 	orr	r0, r6, r0
  108284:	e1811003 	orr	r1, r1, r3
  108288:	e0200002 	eor	r0, r0, r2
  10828c:	e05440ac 	subs	r4, r4, ip, lsr #1
  108290:	c074500c 	rsbgts	r5, r4, ip
  108294:	c1800a04 	orrgt	r0, r0, r4, lsl #20
  108298:	c8bd4070 	ldmgtia	sp!, {r4, r5, r6, lr}
  10829c:	c12fff1e 	bxgt	lr
  1082a0:	e3800601 	orr	r0, r0, #1048576	; 0x100000
  1082a4:	e3a0e000 	mov	lr, #0	; 0x0
  1082a8:	e2544001 	subs	r4, r4, #1	; 0x1
  1082ac:	ca00005d 	bgt	108428 <__aeabi_dmul+0x268>
  1082b0:	e3740036 	cmn	r4, #54	; 0x36
  1082b4:	d3a01000 	movle	r1, #0	; 0x0
  1082b8:	d2000102 	andle	r0, r0, #-2147483648	; 0x80000000
  1082bc:	d8bd4070 	ldmleia	sp!, {r4, r5, r6, lr}
  1082c0:	d12fff1e 	bxle	lr
  1082c4:	e2644000 	rsb	r4, r4, #0	; 0x0
  1082c8:	e2544020 	subs	r4, r4, #32	; 0x20
  1082cc:	aa00001a 	bge	10833c <__aeabi_dmul+0x17c>
  1082d0:	e294400c 	adds	r4, r4, #12	; 0xc
  1082d4:	ca00000c 	bgt	10830c <__aeabi_dmul+0x14c>
  1082d8:	e2844014 	add	r4, r4, #20	; 0x14
  1082dc:	e2645020 	rsb	r5, r4, #32	; 0x20
  1082e0:	e1a03511 	mov	r3, r1, lsl r5
  1082e4:	e1a01431 	mov	r1, r1, lsr r4
  1082e8:	e1811510 	orr	r1, r1, r0, lsl r5
  1082ec:	e2002102 	and	r2, r0, #-2147483648	; 0x80000000
  1082f0:	e3c00102 	bic	r0, r0, #-2147483648	; 0x80000000
  1082f4:	e0911fa3 	adds	r1, r1, r3, lsr #31
  1082f8:	e0a20430 	adc	r0, r2, r0, lsr r4
  1082fc:	e19ee083 	orrs	lr, lr, r3, lsl #1
  108300:	01c11fa3 	biceq	r1, r1, r3, lsr #31
  108304:	e8bd4070 	ldmia	sp!, {r4, r5, r6, lr}
  108308:	e12fff1e 	bx	lr
  10830c:	e264400c 	rsb	r4, r4, #12	; 0xc
  108310:	e2645020 	rsb	r5, r4, #32	; 0x20
  108314:	e1a03411 	mov	r3, r1, lsl r4
  108318:	e1a01531 	mov	r1, r1, lsr r5
  10831c:	e1811410 	orr	r1, r1, r0, lsl r4
  108320:	e2000102 	and	r0, r0, #-2147483648	; 0x80000000
  108324:	e0911fa3 	adds	r1, r1, r3, lsr #31
  108328:	e2a00000 	adc	r0, r0, #0	; 0x0
  10832c:	e19ee083 	orrs	lr, lr, r3, lsl #1
  108330:	01c11fa3 	biceq	r1, r1, r3, lsr #31
  108334:	e8bd4070 	ldmia	sp!, {r4, r5, r6, lr}
  108338:	e12fff1e 	bx	lr
  10833c:	e2645020 	rsb	r5, r4, #32	; 0x20
  108340:	e18ee511 	orr	lr, lr, r1, lsl r5
  108344:	e1a03431 	mov	r3, r1, lsr r4
  108348:	e1833510 	orr	r3, r3, r0, lsl r5
  10834c:	e1a01430 	mov	r1, r0, lsr r4
  108350:	e2000102 	and	r0, r0, #-2147483648	; 0x80000000
  108354:	e1c11430 	bic	r1, r1, r0, lsr r4
  108358:	e0811fa3 	add	r1, r1, r3, lsr #31
  10835c:	e19ee083 	orrs	lr, lr, r3, lsl #1
  108360:	01c11fa3 	biceq	r1, r1, r3, lsr #31
  108364:	e8bd4070 	ldmia	sp!, {r4, r5, r6, lr}
  108368:	e12fff1e 	bx	lr
  10836c:	e3340000 	teq	r4, #0	; 0x0
  108370:	1a000008 	bne	108398 <__aeabi_dmul+0x1d8>
  108374:	e2006102 	and	r6, r0, #-2147483648	; 0x80000000
  108378:	e1b01081 	movs	r1, r1, lsl #1
  10837c:	e0a00000 	adc	r0, r0, r0
  108380:	e3100601 	tst	r0, #1048576	; 0x100000
  108384:	02444001 	subeq	r4, r4, #1	; 0x1
  108388:	0afffffa 	beq	108378 <__aeabi_dmul+0x1b8>
  10838c:	e1800006 	orr	r0, r0, r6
  108390:	e3350000 	teq	r5, #0	; 0x0
  108394:	11a0f00e 	movne	pc, lr
  108398:	e2026102 	and	r6, r2, #-2147483648	; 0x80000000
  10839c:	e1b03083 	movs	r3, r3, lsl #1
  1083a0:	e0a22002 	adc	r2, r2, r2
  1083a4:	e3120601 	tst	r2, #1048576	; 0x100000
  1083a8:	02455001 	subeq	r5, r5, #1	; 0x1
  1083ac:	0afffffa 	beq	10839c <__aeabi_dmul+0x1dc>
  1083b0:	e1822006 	orr	r2, r2, r6
  1083b4:	e1a0f00e 	mov	pc, lr
  1083b8:	e134000c 	teq	r4, ip
  1083bc:	e00c5a22 	and	r5, ip, r2, lsr #20
  1083c0:	1135000c 	teqne	r5, ip
  1083c4:	0a000007 	beq	1083e8 <__aeabi_dmul+0x228>
  1083c8:	e1916080 	orrs	r6, r1, r0, lsl #1
  1083cc:	11936082 	orrnes	r6, r3, r2, lsl #1
  1083d0:	1affffe5 	bne	10836c <__aeabi_dmul+0x1ac>
  1083d4:	e0200002 	eor	r0, r0, r2
  1083d8:	e2000102 	and	r0, r0, #-2147483648	; 0x80000000
  1083dc:	e3a01000 	mov	r1, #0	; 0x0
  1083e0:	e8bd4070 	ldmia	sp!, {r4, r5, r6, lr}
  1083e4:	e12fff1e 	bx	lr
  1083e8:	e1916080 	orrs	r6, r1, r0, lsl #1
  1083ec:	01a01003 	moveq	r1, r3
  1083f0:	01a00002 	moveq	r0, r2
  1083f4:	11936082 	orrnes	r6, r3, r2, lsl #1
  1083f8:	0a000010 	beq	108440 <__aeabi_dmul+0x280>
  1083fc:	e134000c 	teq	r4, ip
  108400:	1a000001 	bne	10840c <__aeabi_dmul+0x24c>
  108404:	e1916600 	orrs	r6, r1, r0, lsl #12
  108408:	1a00000c 	bne	108440 <__aeabi_dmul+0x280>
  10840c:	e135000c 	teq	r5, ip
  108410:	1a000003 	bne	108424 <__aeabi_dmul+0x264>
  108414:	e1936602 	orrs	r6, r3, r2, lsl #12
  108418:	11a01003 	movne	r1, r3
  10841c:	11a00002 	movne	r0, r2
  108420:	1a000006 	bne	108440 <__aeabi_dmul+0x280>
  108424:	e0200002 	eor	r0, r0, r2
  108428:	e2000102 	and	r0, r0, #-2147483648	; 0x80000000
  10842c:	e380047f 	orr	r0, r0, #2130706432	; 0x7f000000
  108430:	e380060f 	orr	r0, r0, #15728640	; 0xf00000
  108434:	e3a01000 	mov	r1, #0	; 0x0
  108438:	e8bd4070 	ldmia	sp!, {r4, r5, r6, lr}
  10843c:	e12fff1e 	bx	lr
  108440:	e380047f 	orr	r0, r0, #2130706432	; 0x7f000000
  108444:	e380073e 	orr	r0, r0, #16252928	; 0xf80000
  108448:	e8bd4070 	ldmia	sp!, {r4, r5, r6, lr}
  10844c:	e12fff1e 	bx	lr

00108450 <__aeabi_ddiv>:
  108450:	e92d4070 	stmdb	sp!, {r4, r5, r6, lr}
  108454:	e3a0c0ff 	mov	ip, #255	; 0xff
  108458:	e38ccc07 	orr	ip, ip, #1792	; 0x700
  10845c:	e01c4a20 	ands	r4, ip, r0, lsr #20
  108460:	101c5a22 	andnes	r5, ip, r2, lsr #20
  108464:	1134000c 	teqne	r4, ip
  108468:	1135000c 	teqne	r5, ip
  10846c:	0b00005e 	bleq	1085ec <__aeabi_ddiv+0x19c>
  108470:	e0444005 	sub	r4, r4, r5
  108474:	e020e002 	eor	lr, r0, r2
  108478:	e1935602 	orrs	r5, r3, r2, lsl #12
  10847c:	e1a00600 	mov	r0, r0, lsl #12
  108480:	0a00004c 	beq	1085b8 <__aeabi_ddiv+0x168>
  108484:	e1a02602 	mov	r2, r2, lsl #12
  108488:	e3a05201 	mov	r5, #268435456	; 0x10000000
  10848c:	e1852222 	orr	r2, r5, r2, lsr #4
  108490:	e1822c23 	orr	r2, r2, r3, lsr #24
  108494:	e1a03403 	mov	r3, r3, lsl #8
  108498:	e1855220 	orr	r5, r5, r0, lsr #4
  10849c:	e1855c21 	orr	r5, r5, r1, lsr #24
  1084a0:	e1a06401 	mov	r6, r1, lsl #8
  1084a4:	e20e0102 	and	r0, lr, #-2147483648	; 0x80000000
  1084a8:	e1550002 	cmp	r5, r2
  1084ac:	01560003 	cmpeq	r6, r3
  1084b0:	e2a440fd 	adc	r4, r4, #253	; 0xfd
  1084b4:	e2844c03 	add	r4, r4, #768	; 0x300
  1084b8:	2a000001 	bcs	1084c4 <__aeabi_ddiv+0x74>
  1084bc:	e1b020a2 	movs	r2, r2, lsr #1
  1084c0:	e1a03063 	mov	r3, r3, rrx
  1084c4:	e0566003 	subs	r6, r6, r3
  1084c8:	e0c55002 	sbc	r5, r5, r2
  1084cc:	e1b020a2 	movs	r2, r2, lsr #1
  1084d0:	e1a03063 	mov	r3, r3, rrx
  1084d4:	e3a01601 	mov	r1, #1048576	; 0x100000
  1084d8:	e3a0c702 	mov	ip, #524288	; 0x80000
  1084dc:	e056e003 	subs	lr, r6, r3
  1084e0:	e0d5e002 	sbcs	lr, r5, r2
  1084e4:	20466003 	subcs	r6, r6, r3
  1084e8:	21a0500e 	movcs	r5, lr
  1084ec:	2181100c 	orrcs	r1, r1, ip
  1084f0:	e1b020a2 	movs	r2, r2, lsr #1
  1084f4:	e1a03063 	mov	r3, r3, rrx
  1084f8:	e056e003 	subs	lr, r6, r3
  1084fc:	e0d5e002 	sbcs	lr, r5, r2
  108500:	20466003 	subcs	r6, r6, r3
  108504:	21a0500e 	movcs	r5, lr
  108508:	218110ac 	orrcs	r1, r1, ip, lsr #1
  10850c:	e1b020a2 	movs	r2, r2, lsr #1
  108510:	e1a03063 	mov	r3, r3, rrx
  108514:	e056e003 	subs	lr, r6, r3
  108518:	e0d5e002 	sbcs	lr, r5, r2
  10851c:	20466003 	subcs	r6, r6, r3
  108520:	21a0500e 	movcs	r5, lr
  108524:	2181112c 	orrcs	r1, r1, ip, lsr #2
  108528:	e1b020a2 	movs	r2, r2, lsr #1
  10852c:	e1a03063 	mov	r3, r3, rrx
  108530:	e056e003 	subs	lr, r6, r3
  108534:	e0d5e002 	sbcs	lr, r5, r2
  108538:	20466003 	subcs	r6, r6, r3
  10853c:	21a0500e 	movcs	r5, lr
  108540:	218111ac 	orrcs	r1, r1, ip, lsr #3
  108544:	e195e006 	orrs	lr, r5, r6
  108548:	0a00000d 	beq	108584 <__aeabi_ddiv+0x134>
  10854c:	e1a05205 	mov	r5, r5, lsl #4
  108550:	e1855e26 	orr	r5, r5, r6, lsr #28
  108554:	e1a06206 	mov	r6, r6, lsl #4
  108558:	e1a02182 	mov	r2, r2, lsl #3
  10855c:	e1822ea3 	orr	r2, r2, r3, lsr #29
  108560:	e1a03183 	mov	r3, r3, lsl #3
  108564:	e1b0c22c 	movs	ip, ip, lsr #4
  108568:	1affffdb 	bne	1084dc <__aeabi_ddiv+0x8c>
  10856c:	e3100601 	tst	r0, #1048576	; 0x100000
  108570:	1a000006 	bne	108590 <__aeabi_ddiv+0x140>
  108574:	e1800001 	orr	r0, r0, r1
  108578:	e3a01000 	mov	r1, #0	; 0x0
  10857c:	e3a0c102 	mov	ip, #-2147483648	; 0x80000000
  108580:	eaffffd5 	b	1084dc <__aeabi_ddiv+0x8c>
  108584:	e3100601 	tst	r0, #1048576	; 0x100000
  108588:	01800001 	orreq	r0, r0, r1
  10858c:	03a01000 	moveq	r1, #0	; 0x0
  108590:	e254c0fd 	subs	ip, r4, #253	; 0xfd
  108594:	835c0c07 	cmphi	ip, #1792	; 0x700
  108598:	8affff43 	bhi	1082ac <__aeabi_dmul+0xec>
  10859c:	e055c002 	subs	ip, r5, r2
  1085a0:	0056c003 	subeqs	ip, r6, r3
  1085a4:	01b0c0a1 	moveqs	ip, r1, lsr #1
  1085a8:	e2b11000 	adcs	r1, r1, #0	; 0x0
  1085ac:	e0a00a04 	adc	r0, r0, r4, lsl #20
  1085b0:	e8bd4070 	ldmia	sp!, {r4, r5, r6, lr}
  1085b4:	e12fff1e 	bx	lr
  1085b8:	e20ee102 	and	lr, lr, #-2147483648	; 0x80000000
  1085bc:	e18e0620 	orr	r0, lr, r0, lsr #12
  1085c0:	e09440ac 	adds	r4, r4, ip, lsr #1
  1085c4:	c074500c 	rsbgts	r5, r4, ip
  1085c8:	c1800a04 	orrgt	r0, r0, r4, lsl #20
  1085cc:	c8bd4070 	ldmgtia	sp!, {r4, r5, r6, lr}
  1085d0:	c12fff1e 	bxgt	lr
  1085d4:	e3800601 	orr	r0, r0, #1048576	; 0x100000
  1085d8:	e3a0e000 	mov	lr, #0	; 0x0
  1085dc:	e2544001 	subs	r4, r4, #1	; 0x1
  1085e0:	eaffff31 	b	1082ac <__aeabi_dmul+0xec>
  1085e4:	e185e006 	orr	lr, r5, r6
  1085e8:	eaffff2f 	b	1082ac <__aeabi_dmul+0xec>
  1085ec:	e00c5a22 	and	r5, ip, r2, lsr #20
  1085f0:	e134000c 	teq	r4, ip
  1085f4:	0135000c 	teqeq	r5, ip
  1085f8:	0affff90 	beq	108440 <__aeabi_dmul+0x280>
  1085fc:	e134000c 	teq	r4, ip
  108600:	1a000006 	bne	108620 <__aeabi_ddiv+0x1d0>
  108604:	e1914600 	orrs	r4, r1, r0, lsl #12
  108608:	1affff8c 	bne	108440 <__aeabi_dmul+0x280>
  10860c:	e135000c 	teq	r5, ip
  108610:	1affff83 	bne	108424 <__aeabi_dmul+0x264>
  108614:	e1a01003 	mov	r1, r3
  108618:	e1a00002 	mov	r0, r2
  10861c:	eaffff87 	b	108440 <__aeabi_dmul+0x280>
  108620:	e135000c 	teq	r5, ip
  108624:	1a000004 	bne	10863c <__aeabi_ddiv+0x1ec>
  108628:	e1935602 	orrs	r5, r3, r2, lsl #12
  10862c:	0affff68 	beq	1083d4 <__aeabi_dmul+0x214>
  108630:	e1a01003 	mov	r1, r3
  108634:	e1a00002 	mov	r0, r2
  108638:	eaffff80 	b	108440 <__aeabi_dmul+0x280>
  10863c:	e1916080 	orrs	r6, r1, r0, lsl #1
  108640:	11936082 	orrnes	r6, r3, r2, lsl #1
  108644:	1affff48 	bne	10836c <__aeabi_dmul+0x1ac>
  108648:	e1914080 	orrs	r4, r1, r0, lsl #1
  10864c:	1affff74 	bne	108424 <__aeabi_dmul+0x264>
  108650:	e1935082 	orrs	r5, r3, r2, lsl #1
  108654:	1affff5e 	bne	1083d4 <__aeabi_dmul+0x214>
  108658:	eaffff78 	b	108440 <__aeabi_dmul+0x280>

0010865c <__gedf2>:
  10865c:	e3e0c000 	mvn	ip, #0	; 0x0
  108660:	ea000002 	b	108670 <__cmpdf2+0x4>

00108664 <__ledf2>:
  108664:	e3a0c001 	mov	ip, #1	; 0x1
  108668:	ea000000 	b	108670 <__cmpdf2+0x4>

0010866c <__cmpdf2>:
  10866c:	e3a0c001 	mov	ip, #1	; 0x1
  108670:	e50dc004 	str	ip, [sp, #-4]
  108674:	e1a0c080 	mov	ip, r0, lsl #1
  108678:	e1f0cacc 	mvns	ip, ip, asr #21
  10867c:	e1a0c082 	mov	ip, r2, lsl #1
  108680:	11f0cacc 	mvnnes	ip, ip, asr #21
  108684:	0a00000d 	beq	1086c0 <__cmpdf2+0x54>
  108688:	e191c080 	orrs	ip, r1, r0, lsl #1
  10868c:	0193c082 	orreqs	ip, r3, r2, lsl #1
  108690:	11300002 	teqne	r0, r2
  108694:	01310003 	teqeq	r1, r3
  108698:	03a00000 	moveq	r0, #0	; 0x0
  10869c:	012fff1e 	bxeq	lr
  1086a0:	e3700000 	cmn	r0, #0	; 0x0
  1086a4:	e1300002 	teq	r0, r2
  1086a8:	51500002 	cmppl	r0, r2
  1086ac:	01510003 	cmpeq	r1, r3
  1086b0:	21a00fc2 	movcs	r0, r2, asr #31
  1086b4:	31e00fc2 	mvncc	r0, r2, asr #31
  1086b8:	e3800001 	orr	r0, r0, #1	; 0x1
  1086bc:	e12fff1e 	bx	lr
  1086c0:	e1a0c080 	mov	ip, r0, lsl #1
  1086c4:	e1f0cacc 	mvns	ip, ip, asr #21
  1086c8:	1a000001 	bne	1086d4 <__cmpdf2+0x68>
  1086cc:	e191c600 	orrs	ip, r1, r0, lsl #12
  1086d0:	1a000004 	bne	1086e8 <__cmpdf2+0x7c>
  1086d4:	e1a0c082 	mov	ip, r2, lsl #1
  1086d8:	e1f0cacc 	mvns	ip, ip, asr #21
  1086dc:	1affffe9 	bne	108688 <__cmpdf2+0x1c>
  1086e0:	e193c602 	orrs	ip, r3, r2, lsl #12
  1086e4:	0affffe7 	beq	108688 <__cmpdf2+0x1c>
  1086e8:	e51d0004 	ldr	r0, [sp, #-4]
  1086ec:	e12fff1e 	bx	lr

001086f0 <__aeabi_cdrcmple>:
  1086f0:	e1a0c000 	mov	ip, r0
  1086f4:	e1a00002 	mov	r0, r2
  1086f8:	e1a0200c 	mov	r2, ip
  1086fc:	e1a0c001 	mov	ip, r1
  108700:	e1a01003 	mov	r1, r3
  108704:	e1a0300c 	mov	r3, ip
  108708:	eaffffff 	b	10870c <__aeabi_cdcmpeq>

0010870c <__aeabi_cdcmpeq>:
  10870c:	e92d4001 	stmdb	sp!, {r0, lr}
  108710:	ebffffd5 	bl	10866c <__cmpdf2>
  108714:	e3500000 	cmp	r0, #0	; 0x0
  108718:	43700000 	cmnmi	r0, #0	; 0x0
  10871c:	e8bd4001 	ldmia	sp!, {r0, lr}
  108720:	e12fff1e 	bx	lr

00108724 <__aeabi_dcmpeq>:
  108724:	e52de004 	str	lr, [sp, #-4]!
  108728:	ebfffff7 	bl	10870c <__aeabi_cdcmpeq>
  10872c:	03a00001 	moveq	r0, #1	; 0x1
  108730:	13a00000 	movne	r0, #0	; 0x0
  108734:	e49de004 	ldr	lr, [sp], #4
  108738:	e12fff1e 	bx	lr

0010873c <__aeabi_dcmplt>:
  10873c:	e52de004 	str	lr, [sp, #-4]!
  108740:	ebfffff1 	bl	10870c <__aeabi_cdcmpeq>
  108744:	33a00001 	movcc	r0, #1	; 0x1
  108748:	23a00000 	movcs	r0, #0	; 0x0
  10874c:	e49de004 	ldr	lr, [sp], #4
  108750:	e12fff1e 	bx	lr

00108754 <__aeabi_dcmple>:
  108754:	e52de004 	str	lr, [sp, #-4]!
  108758:	ebffffeb 	bl	10870c <__aeabi_cdcmpeq>
  10875c:	93a00001 	movls	r0, #1	; 0x1
  108760:	83a00000 	movhi	r0, #0	; 0x0
  108764:	e49de004 	ldr	lr, [sp], #4
  108768:	e12fff1e 	bx	lr

0010876c <__aeabi_dcmpge>:
  10876c:	e52de004 	str	lr, [sp, #-4]!
  108770:	ebffffde 	bl	1086f0 <__aeabi_cdrcmple>
  108774:	93a00001 	movls	r0, #1	; 0x1
  108778:	83a00000 	movhi	r0, #0	; 0x0
  10877c:	e49de004 	ldr	lr, [sp], #4
  108780:	e12fff1e 	bx	lr

00108784 <__aeabi_dcmpgt>:
  108784:	e52de004 	str	lr, [sp, #-4]!
  108788:	ebffffd8 	bl	1086f0 <__aeabi_cdrcmple>
  10878c:	33a00001 	movcc	r0, #1	; 0x1
  108790:	23a00000 	movcs	r0, #0	; 0x0
  108794:	e49de004 	ldr	lr, [sp], #4
  108798:	e12fff1e 	bx	lr

0010879c <__aeabi_d2iz>:
  10879c:	e1a02080 	mov	r2, r0, lsl #1
  1087a0:	e2922602 	adds	r2, r2, #2097152	; 0x200000
  1087a4:	2a00000c 	bcs	1087dc <__aeabi_d2iz+0x40>
  1087a8:	5a000009 	bpl	1087d4 <__aeabi_d2iz+0x38>
  1087ac:	e3e03e3e 	mvn	r3, #992	; 0x3e0
  1087b0:	e0532ac2 	subs	r2, r3, r2, asr #21
  1087b4:	9a00000a 	bls	1087e4 <__aeabi_d2iz+0x48>
  1087b8:	e1a03580 	mov	r3, r0, lsl #11
  1087bc:	e3833102 	orr	r3, r3, #-2147483648	; 0x80000000
  1087c0:	e1833aa1 	orr	r3, r3, r1, lsr #21
  1087c4:	e3100102 	tst	r0, #-2147483648	; 0x80000000
  1087c8:	e1a00233 	mov	r0, r3, lsr r2
  1087cc:	12600000 	rsbne	r0, r0, #0	; 0x0
  1087d0:	e12fff1e 	bx	lr
  1087d4:	e3a00000 	mov	r0, #0	; 0x0
  1087d8:	e12fff1e 	bx	lr
  1087dc:	e1911600 	orrs	r1, r1, r0, lsl #12
  1087e0:	1a000002 	bne	1087f0 <__aeabi_d2iz+0x54>
  1087e4:	e2100102 	ands	r0, r0, #-2147483648	; 0x80000000
  1087e8:	03e00102 	mvneq	r0, #-2147483648	; 0x80000000
  1087ec:	e12fff1e 	bx	lr
  1087f0:	e3a00000 	mov	r0, #0	; 0x0
  1087f4:	e12fff1e 	bx	lr

001087f8 <efs_init>:
  1087f8:	b5f0      	push	{r4, r5, r6, r7, lr}
  1087fa:	1c05      	mov	r5, r0		(add r5, r0, #0)
  1087fc:	fbb8f002 	bl	10af70 <if_initInterface>
  108800:	0600      	lsl	r0, r0, #24
  108802:	0e07      	lsr	r7, r0, #24
  108804:	2f00      	cmp	r7, #0
  108806:	d001      	beq	10880c <efs_init+0x14>
  108808:	2001      	mov	r0, #1
  10880a:	e02f      	b	10886c <efs_init+0x74>
  10880c:	1d2c      	add	r4, r5, #4
  10880e:	2200      	mov	r2, #0
  108810:	1c20      	mov	r0, r4		(add r0, r4, #0)
  108812:	1c29      	mov	r1, r5		(add r1, r5, #0)
  108814:	fa10f002 	bl	10ac38 <ioman_init>
  108818:	4b17      	ldr	r3, [pc, #92]	(108878 <.text+0x8878>)
  10881a:	18ee      	add	r6, r5, r3
  10881c:	1c21      	mov	r1, r4		(add r1, r4, #0)
  10881e:	1c30      	mov	r0, r6		(add r0, r6, #0)
  108820:	f84ef000 	bl	1088c0 <disc_initDisc>
  108824:	4b15      	ldr	r3, [pc, #84]	(10887c <.text+0x887c>)
  108826:	18ec      	add	r4, r5, r3
  108828:	1c20      	mov	r0, r4		(add r0, r4, #0)
  10882a:	1c31      	mov	r1, r6		(add r1, r6, #0)
  10882c:	f862f000 	bl	1088f4 <part_initPartition>
  108830:	2394      	mov	r3, #148
  108832:	00db      	lsl	r3, r3, #3
  108834:	5ceb      	ldrb	r3, [r5, r3]
  108836:	061b      	lsl	r3, r3, #24
  108838:	161b      	asr	r3, r3, #24
  10883a:	3301      	add	r3, #1
  10883c:	d10d      	bne	10885a <efs_init+0x62>
  10883e:	238c      	mov	r3, #140
  108840:	00db      	lsl	r3, r3, #3
  108842:	220b      	mov	r2, #11
  108844:	54ea      	strb	r2, [r5, r3]
  108846:	4b0e      	ldr	r3, [pc, #56]	(108880 <.text+0x8880>)
  108848:	50ef      	str	r7, [r5, r3]
  10884a:	238d      	mov	r3, #141
  10884c:	682a      	ldr	r2, [r5, #0]
  10884e:	00db      	lsl	r3, r3, #3
  108850:	50ea      	str	r2, [r5, r3]
  108852:	1c20      	mov	r0, r4		(add r0, r4, #0)
  108854:	1c31      	mov	r1, r6		(add r1, r6, #0)
  108856:	f84df000 	bl	1088f4 <part_initPartition>
  10885a:	4b0a      	ldr	r3, [pc, #40]	(108884 <.text+0x8884>)
  10885c:	1c21      	mov	r1, r4		(add r1, r4, #0)
  10885e:	18e8      	add	r0, r5, r3
  108860:	fb44f000 	bl	108eec <fs_initFs>
  108864:	0400      	lsl	r0, r0, #16
  108866:	2800      	cmp	r0, #0
  108868:	d002      	beq	108870 <efs_init+0x78>
  10886a:	2002      	mov	r0, #2
  10886c:	4240      	neg	r0, r0
  10886e:	e000      	b	108872 <efs_init+0x7a>
  108870:	2000      	mov	r0, #0
  108872:	bcf0      	pop	{r4, r5, r6, r7}
  108874:	bc02      	pop	{r1}
  108876:	4708      	bx	r1
  108878:	0454      	lsl	r4, r2, #17
  10887a:	0000      	lsl	r0, r0, #0
  10887c:	049c      	lsl	r4, r3, #18
  10887e:	0000      	lsl	r0, r0, #0
  108880:	0464      	lsl	r4, r4, #17
  108882:	0000      	lsl	r0, r0, #0
  108884:	04a4      	lsl	r4, r4, #18
	...

00108888 <disc_loadMBR>:
  108888:	b570      	push	{r4, r5, r6, lr}
  10888a:	1c05      	mov	r5, r0		(add r5, r0, #0)
  10888c:	2100      	mov	r1, #0
  10888e:	6800      	ldr	r0, [r0, #0]
  108890:	2205      	mov	r2, #5
  108892:	f915f002 	bl	10aac0 <ioman_getSector>
  108896:	2400      	mov	r4, #0
  108898:	1c06      	mov	r6, r0		(add r6, r0, #0)
  10889a:	1c29      	mov	r1, r5		(add r1, r5, #0)
  10889c:	23df      	mov	r3, #223
  10889e:	005b      	lsl	r3, r3, #1
  1088a0:	3108      	add	r1, #8
  1088a2:	1909      	add	r1, r1, r4
  1088a4:	18e2      	add	r2, r4, r3
  1088a6:	1c30      	mov	r0, r6		(add r0, r6, #0)
  1088a8:	3410      	add	r4, #16
  1088aa:	f9f5f002 	bl	10ac98 <ex_getPartitionField>
  1088ae:	2c40      	cmp	r4, #64
  1088b0:	d1f3      	bne	10889a <disc_loadMBR+0x12>
  1088b2:	6828      	ldr	r0, [r5, #0]
  1088b4:	1c31      	mov	r1, r6		(add r1, r6, #0)
  1088b6:	f989f002 	bl	10abcc <ioman_releaseSector>
  1088ba:	bc70      	pop	{r4, r5, r6}
  1088bc:	bc01      	pop	{r0}
  1088be:	4700      	bx	r0

001088c0 <disc_initDisc>:
  1088c0:	b500      	push	{lr}
  1088c2:	2300      	mov	r3, #0
  1088c4:	6001      	str	r1, [r0, #0]
  1088c6:	7103      	strb	r3, [r0, #4]
  1088c8:	ffdef7ff 	bl	108888 <disc_loadMBR>
  1088cc:	bc01      	pop	{r0}
  1088ce:	4700      	bx	r0

001088d0 <part_isFatPart>:
  1088d0:	0600      	lsl	r0, r0, #24
  1088d2:	0e00      	lsr	r0, r0, #24
  1088d4:	2801      	cmp	r0, #1
  1088d6:	d00b      	beq	1088f0 <part_isFatPart+0x20>
  1088d8:	2804      	cmp	r0, #4
  1088da:	d009      	beq	1088f0 <part_isFatPart+0x20>
  1088dc:	2806      	cmp	r0, #6
  1088de:	d007      	beq	1088f0 <part_isFatPart+0x20>
  1088e0:	280b      	cmp	r0, #11
  1088e2:	d005      	beq	1088f0 <part_isFatPart+0x20>
  1088e4:	285c      	cmp	r0, #92
  1088e6:	d003      	beq	1088f0 <part_isFatPart+0x20>
  1088e8:	285e      	cmp	r0, #94
  1088ea:	d001      	beq	1088f0 <part_isFatPart+0x20>
  1088ec:	2000      	mov	r0, #0
  1088ee:	e000      	b	1088f2 <part_isFatPart+0x22>
  1088f0:	2001      	mov	r0, #1
  1088f2:	4770      	bx	lr

001088f4 <part_initPartition>:
  1088f4:	b530      	push	{r4, r5, lr}
  1088f6:	2301      	mov	r3, #1
  1088f8:	425b      	neg	r3, r3
  1088fa:	6001      	str	r1, [r0, #0]
  1088fc:	7103      	strb	r3, [r0, #4]
  1088fe:	1c04      	mov	r4, r0		(add r4, r0, #0)
  108900:	2503      	mov	r5, #3
  108902:	6822      	ldr	r2, [r4, #0]
  108904:	012b      	lsl	r3, r5, #4
  108906:	189b      	add	r3, r3, r2
  108908:	7b18      	ldrb	r0, [r3, #12]
  10890a:	ffe1f7ff 	bl	1088d0 <part_isFatPart>
  10890e:	2800      	cmp	r0, #0
  108910:	d000      	beq	108914 <part_initPartition+0x20>
  108912:	7125      	strb	r5, [r4, #4]
  108914:	3d01      	sub	r5, #1
  108916:	d2f4      	bcs	108902 <part_initPartition+0xe>
  108918:	bc30      	pop	{r4, r5}
  10891a:	bc01      	pop	{r0}
  10891c:	4700      	bx	r0
	...

00108920 <part_getRealLBA>:
  108920:	7903      	ldrb	r3, [r0, #4]
  108922:	6802      	ldr	r2, [r0, #0]
  108924:	061b      	lsl	r3, r3, #24
  108926:	151b      	asr	r3, r3, #20
  108928:	189b      	add	r3, r3, r2
  10892a:	6918      	ldr	r0, [r3, #16]
  10892c:	1840      	add	r0, r0, r1
  10892e:	4770      	bx	lr

00108930 <part_relSect>:
  108930:	b500      	push	{lr}
  108932:	6803      	ldr	r3, [r0, #0]
  108934:	6818      	ldr	r0, [r3, #0]
  108936:	f949f002 	bl	10abcc <ioman_releaseSector>
  10893a:	0600      	lsl	r0, r0, #24
  10893c:	1600      	asr	r0, r0, #24
  10893e:	bc02      	pop	{r1}
  108940:	4708      	bx	r1
	...

00108944 <part_readBuf>:
  108944:	b530      	push	{r4, r5, lr}
  108946:	1c0d      	mov	r5, r1		(add r5, r1, #0)
  108948:	6801      	ldr	r1, [r0, #0]
  10894a:	680b      	ldr	r3, [r1, #0]
  10894c:	681c      	ldr	r4, [r3, #0]
  10894e:	7903      	ldrb	r3, [r0, #4]
  108950:	061b      	lsl	r3, r3, #24
  108952:	151b      	asr	r3, r3, #20
  108954:	185b      	add	r3, r3, r1
  108956:	6919      	ldr	r1, [r3, #16]
  108958:	1c20      	mov	r0, r4		(add r0, r4, #0)
  10895a:	1949      	add	r1, r1, r5
  10895c:	fb32f002 	bl	10afc4 <if_readBuf>
  108960:	0600      	lsl	r0, r0, #24
  108962:	1600      	asr	r0, r0, #24
  108964:	bc30      	pop	{r4, r5}
  108966:	bc02      	pop	{r1}
  108968:	4708      	bx	r1
	...

0010896c <part_writeBuf>:
  10896c:	b530      	push	{r4, r5, lr}
  10896e:	1c0d      	mov	r5, r1		(add r5, r1, #0)
  108970:	6801      	ldr	r1, [r0, #0]
  108972:	680b      	ldr	r3, [r1, #0]
  108974:	681c      	ldr	r4, [r3, #0]
  108976:	7903      	ldrb	r3, [r0, #4]
  108978:	061b      	lsl	r3, r3, #24
  10897a:	151b      	asr	r3, r3, #20
  10897c:	185b      	add	r3, r3, r1
  10897e:	6919      	ldr	r1, [r3, #16]
  108980:	1c20      	mov	r0, r4		(add r0, r4, #0)
  108982:	1949      	add	r1, r1, r5
  108984:	fb28f002 	bl	10afd8 <if_writeBuf>
  108988:	0600      	lsl	r0, r0, #24
  10898a:	1600      	asr	r0, r0, #24
  10898c:	bc30      	pop	{r4, r5}
  10898e:	bc02      	pop	{r1}
  108990:	4708      	bx	r1
	...

00108994 <part_getSect>:
  108994:	b530      	push	{r4, r5, lr}
  108996:	7903      	ldrb	r3, [r0, #4]
  108998:	1c0d      	mov	r5, r1		(add r5, r1, #0)
  10899a:	061b      	lsl	r3, r3, #24
  10899c:	6801      	ldr	r1, [r0, #0]
  10899e:	151b      	asr	r3, r3, #20
  1089a0:	185b      	add	r3, r3, r1
  1089a2:	680c      	ldr	r4, [r1, #0]
  1089a4:	6919      	ldr	r1, [r3, #16]
  1089a6:	0612      	lsl	r2, r2, #24
  1089a8:	1949      	add	r1, r1, r5
  1089aa:	0e12      	lsr	r2, r2, #24
  1089ac:	1c20      	mov	r0, r4		(add r0, r4, #0)
  1089ae:	f887f002 	bl	10aac0 <ioman_getSector>
  1089b2:	bc30      	pop	{r4, r5}
  1089b4:	bc02      	pop	{r1}
  1089b6:	4708      	bx	r1

001089b8 <part_flushPart>:
  1089b8:	b530      	push	{r4, r5, lr}
  1089ba:	7903      	ldrb	r3, [r0, #4]
  1089bc:	6804      	ldr	r4, [r0, #0]
  1089be:	061b      	lsl	r3, r3, #24
  1089c0:	151b      	asr	r3, r3, #20
  1089c2:	191b      	add	r3, r3, r4
  1089c4:	1c15      	mov	r5, r2		(add r5, r2, #0)
  1089c6:	691a      	ldr	r2, [r3, #16]
  1089c8:	6820      	ldr	r0, [r4, #0]
  1089ca:	1851      	add	r1, r2, r1
  1089cc:	1952      	add	r2, r2, r5
  1089ce:	feb5f001 	bl	10a73c <ioman_flushRange>
  1089d2:	0600      	lsl	r0, r0, #24
  1089d4:	1600      	asr	r0, r0, #24
  1089d6:	bc30      	pop	{r4, r5}
  1089d8:	bc02      	pop	{r1}
  1089da:	4708      	bx	r1

001089dc <part_directSectorRead>:
  1089dc:	b530      	push	{r4, r5, lr}
  1089de:	7903      	ldrb	r3, [r0, #4]
  1089e0:	1c0d      	mov	r5, r1		(add r5, r1, #0)
  1089e2:	061b      	lsl	r3, r3, #24
  1089e4:	6801      	ldr	r1, [r0, #0]
  1089e6:	151b      	asr	r3, r3, #20
  1089e8:	185b      	add	r3, r3, r1
  1089ea:	680c      	ldr	r4, [r1, #0]
  1089ec:	6919      	ldr	r1, [r3, #16]
  1089ee:	1c20      	mov	r0, r4		(add r0, r4, #0)
  1089f0:	1949      	add	r1, r1, r5
  1089f2:	ff0df001 	bl	10a810 <ioman_directSectorRead>
  1089f6:	0600      	lsl	r0, r0, #24
  1089f8:	1600      	asr	r0, r0, #24
  1089fa:	bc30      	pop	{r4, r5}
  1089fc:	bc02      	pop	{r1}
  1089fe:	4708      	bx	r1

00108a00 <part_directSectorWrite>:
  108a00:	b530      	push	{r4, r5, lr}
  108a02:	7903      	ldrb	r3, [r0, #4]
  108a04:	1c0d      	mov	r5, r1		(add r5, r1, #0)
  108a06:	061b      	lsl	r3, r3, #24
  108a08:	6801      	ldr	r1, [r0, #0]
  108a0a:	151b      	asr	r3, r3, #20
  108a0c:	185b      	add	r3, r3, r1
  108a0e:	680c      	ldr	r4, [r1, #0]
  108a10:	6919      	ldr	r1, [r3, #16]
  108a12:	1c20      	mov	r0, r4		(add r0, r4, #0)
  108a14:	1949      	add	r1, r1, r5
  108a16:	ff31f001 	bl	10a87c <ioman_directSectorWrite>
  108a1a:	0600      	lsl	r0, r0, #24
  108a1c:	1600      	asr	r0, r0, #24
  108a1e:	bc30      	pop	{r4, r5}
  108a20:	bc02      	pop	{r1}
  108a22:	4708      	bx	r1

00108a24 <fs_verifySanity>:
  108a24:	b530      	push	{r4, r5, lr}
  108a26:	2380      	mov	r3, #128
  108a28:	8882      	ldrh	r2, [r0, #4]
  108a2a:	009b      	lsl	r3, r3, #2
  108a2c:	1c04      	mov	r4, r0		(add r4, r0, #0)
  108a2e:	2100      	mov	r1, #0
  108a30:	429a      	cmp	r2, r3
  108a32:	d000      	beq	108a36 <fs_verifySanity+0x12>
  108a34:	2101      	mov	r1, #1
  108a36:	2301      	mov	r3, #1
  108a38:	404b      	eor	r3, r1
  108a3a:	79a2      	ldrb	r2, [r4, #6]
  108a3c:	061b      	lsl	r3, r3, #24
  108a3e:	0e1d      	lsr	r5, r3, #24
  108a40:	1e53      	sub	r3, r2, #1
  108a42:	061b      	lsl	r3, r3, #24
  108a44:	0e1b      	lsr	r3, r3, #24
  108a46:	2100      	mov	r1, #0
  108a48:	2b01      	cmp	r3, #1
  108a4a:	d800      	bhi	108a4e <fs_verifySanity+0x2a>
  108a4c:	2101      	mov	r1, #1
  108a4e:	2300      	mov	r3, #0
  108a50:	2a04      	cmp	r2, #4
  108a52:	d100      	bne	108a56 <fs_verifySanity+0x32>
  108a54:	2301      	mov	r3, #1
  108a56:	430b      	orr	r3, r1
  108a58:	2100      	mov	r1, #0
  108a5a:	2a08      	cmp	r2, #8
  108a5c:	d100      	bne	108a60 <fs_verifySanity+0x3c>
  108a5e:	2101      	mov	r1, #1
  108a60:	430b      	orr	r3, r1
  108a62:	2100      	mov	r1, #0
  108a64:	2a10      	cmp	r2, #16
  108a66:	d100      	bne	108a6a <fs_verifySanity+0x46>
  108a68:	2101      	mov	r1, #1
  108a6a:	430b      	orr	r3, r1
  108a6c:	2100      	mov	r1, #0
  108a6e:	2a20      	cmp	r2, #32
  108a70:	d100      	bne	108a74 <fs_verifySanity+0x50>
  108a72:	2101      	mov	r1, #1
  108a74:	430b      	orr	r3, r1
  108a76:	2100      	mov	r1, #0
  108a78:	2a40      	cmp	r2, #64
  108a7a:	d100      	bne	108a7e <fs_verifySanity+0x5a>
  108a7c:	2101      	mov	r1, #1
  108a7e:	430b      	orr	r3, r1
  108a80:	d100      	bne	108a84 <fs_verifySanity+0x60>
  108a82:	2500      	mov	r5, #0
  108a84:	8923      	ldrh	r3, [r4, #8]
  108a86:	2b00      	cmp	r3, #0
  108a88:	d100      	bne	108a8c <fs_verifySanity+0x68>
  108a8a:	2500      	mov	r5, #0
  108a8c:	8a20      	ldrh	r0, [r4, #16]
  108a8e:	6821      	ldr	r1, [r4, #0]
  108a90:	2800      	cmp	r0, #0
  108a92:	d008      	beq	108aa6 <fs_verifySanity+0x82>
  108a94:	790a      	ldrb	r2, [r1, #4]
  108a96:	680b      	ldr	r3, [r1, #0]
  108a98:	0612      	lsl	r2, r2, #24
  108a9a:	1512      	asr	r2, r2, #20
  108a9c:	18d2      	add	r2, r2, r3
  108a9e:	6953      	ldr	r3, [r2, #20]
  108aa0:	4298      	cmp	r0, r3
  108aa2:	d809      	bhi	108ab8 <fs_verifySanity+0x94>
  108aa4:	e009      	b	108aba <fs_verifySanity+0x96>
  108aa6:	790b      	ldrb	r3, [r1, #4]
  108aa8:	680a      	ldr	r2, [r1, #0]
  108aaa:	061b      	lsl	r3, r3, #24
  108aac:	151b      	asr	r3, r3, #20
  108aae:	189b      	add	r3, r3, r2
  108ab0:	695b      	ldr	r3, [r3, #20]
  108ab2:	69a2      	ldr	r2, [r4, #24]
  108ab4:	429a      	cmp	r2, r3
  108ab6:	d900      	bls	108aba <fs_verifySanity+0x96>
  108ab8:	2500      	mov	r5, #0
  108aba:	1c28      	mov	r0, r5		(add r0, r5, #0)
  108abc:	bc30      	pop	{r4, r5}
  108abe:	bc02      	pop	{r1}
  108ac0:	4708      	bx	r1
	...

00108ac4 <fs_countDataSectors>:
  108ac4:	b510      	push	{r4, lr}
  108ac6:	8881      	ldrh	r1, [r0, #4]
  108ac8:	1c04      	mov	r4, r0		(add r4, r0, #0)
  108aca:	8980      	ldrh	r0, [r0, #12]
  108acc:	0140      	lsl	r0, r0, #5
  108ace:	1840      	add	r0, r0, r1
  108ad0:	3801      	sub	r0, #1
  108ad2:	f839f7ff 	bl	107b48 <__divsi3>
  108ad6:	8a22      	ldrh	r2, [r4, #16]
  108ad8:	2a00      	cmp	r2, #0
  108ada:	d003      	beq	108ae4 <fs_countDataSectors+0x20>
  108adc:	2300      	mov	r3, #0
  108ade:	6262      	str	r2, [r4, #36]
  108ae0:	61a3      	str	r3, [r4, #24]
  108ae2:	e002      	b	108aea <fs_countDataSectors+0x26>
  108ae4:	69a3      	ldr	r3, [r4, #24]
  108ae6:	8222      	strh	r2, [r4, #16]
  108ae8:	6263      	str	r3, [r4, #36]
  108aea:	89e2      	ldrh	r2, [r4, #14]
  108aec:	2a00      	cmp	r2, #0
  108aee:	d003      	beq	108af8 <fs_countDataSectors+0x34>
  108af0:	2300      	mov	r3, #0
  108af2:	62a2      	str	r2, [r4, #40]
  108af4:	6163      	str	r3, [r4, #20]
  108af6:	e002      	b	108afe <fs_countDataSectors+0x3a>
  108af8:	6963      	ldr	r3, [r4, #20]
  108afa:	81e2      	strh	r2, [r4, #14]
  108afc:	62a3      	str	r3, [r4, #40]
  108afe:	7aa1      	ldrb	r1, [r4, #10]
  108b00:	6a63      	ldr	r3, [r4, #36]
  108b02:	434b      	mul	r3, r1
  108b04:	8922      	ldrh	r2, [r4, #8]
  108b06:	18d2      	add	r2, r2, r3
  108b08:	1812      	add	r2, r2, r0
  108b0a:	6aa0      	ldr	r0, [r4, #40]
  108b0c:	79a1      	ldrb	r1, [r4, #6]
  108b0e:	1a80      	sub	r0, r0, r2
  108b10:	ffd4f7fe 	bl	107abc <__udivsi3>
  108b14:	6220      	str	r0, [r4, #32]
  108b16:	bc10      	pop	{r4}
  108b18:	bc01      	pop	{r0}
  108b1a:	4700      	bx	r0

00108b1c <fs_determineFatType>:
  108b1c:	6a02      	ldr	r2, [r0, #32]
  108b1e:	4b0a      	ldr	r3, [pc, #40]	(108b48 <.text+0x8b48>)
  108b20:	429a      	cmp	r2, r3
  108b22:	d804      	bhi	108b2e <fs_determineFatType+0x12>
  108b24:	1c03      	mov	r3, r0		(add r3, r0, #0)
  108b26:	333c      	add	r3, #60
  108b28:	2201      	mov	r2, #1
  108b2a:	701a      	strb	r2, [r3, #0]
  108b2c:	e006      	b	108b3c <fs_determineFatType+0x20>
  108b2e:	4b07      	ldr	r3, [pc, #28]	(108b4c <.text+0x8b4c>)
  108b30:	1c01      	mov	r1, r0		(add r1, r0, #0)
  108b32:	313c      	add	r1, #60
  108b34:	429a      	cmp	r2, r3
  108b36:	d804      	bhi	108b42 <fs_determineFatType+0x26>
  108b38:	2302      	mov	r3, #2
  108b3a:	700b      	strb	r3, [r1, #0]
  108b3c:	2300      	mov	r3, #0
  108b3e:	61c3      	str	r3, [r0, #28]
  108b40:	e001      	b	108b46 <fs_determineFatType+0x2a>
  108b42:	2303      	mov	r3, #3
  108b44:	700b      	strb	r3, [r1, #0]
  108b46:	4770      	bx	lr
  108b48:	0ff4      	lsr	r4, r6, #31
  108b4a:	0000      	lsl	r0, r0, #0
  108b4c:	fff4      	second half of BL instruction 0xfff4
	...

00108b50 <fs_findFirstSectorRootDir>:
  108b50:	b530      	push	{r4, r5, lr}
  108b52:	1c03      	mov	r3, r0		(add r3, r0, #0)
  108b54:	333c      	add	r3, #60
  108b56:	781b      	ldrb	r3, [r3, #0]
  108b58:	1c04      	mov	r4, r0		(add r4, r0, #0)
  108b5a:	7aa5      	ldrb	r5, [r4, #10]
  108b5c:	8900      	ldrh	r0, [r0, #8]
  108b5e:	2b03      	cmp	r3, #3
  108b60:	d10e      	bne	108b80 <fs_findFirstSectorRootDir+0x30>
  108b62:	69e3      	ldr	r3, [r4, #28]
  108b64:	79a2      	ldrb	r2, [r4, #6]
  108b66:	3b02      	sub	r3, #2
  108b68:	1c11      	mov	r1, r2		(add r1, r2, #0)
  108b6a:	4359      	mul	r1, r3
  108b6c:	062b      	lsl	r3, r5, #24
  108b6e:	69a2      	ldr	r2, [r4, #24]
  108b70:	0e1b      	lsr	r3, r3, #24
  108b72:	4353      	mul	r3, r2
  108b74:	0400      	lsl	r0, r0, #16
  108b76:	0c00      	lsr	r0, r0, #16
  108b78:	18c9      	add	r1, r1, r3
  108b7a:	1840      	add	r0, r0, r1
  108b7c:	62e0      	str	r0, [r4, #44]
  108b7e:	e007      	b	108b90 <fs_findFirstSectorRootDir+0x40>
  108b80:	062b      	lsl	r3, r5, #24
  108b82:	8a22      	ldrh	r2, [r4, #16]
  108b84:	0e1b      	lsr	r3, r3, #24
  108b86:	4353      	mul	r3, r2
  108b88:	0401      	lsl	r1, r0, #16
  108b8a:	0c09      	lsr	r1, r1, #16
  108b8c:	18c9      	add	r1, r1, r3
  108b8e:	62e1      	str	r1, [r4, #44]
  108b90:	bc30      	pop	{r4, r5}
  108b92:	bc01      	pop	{r0}
  108b94:	4700      	bx	r0
	...

00108b98 <fs_isValidFat>:
  108b98:	b530      	push	{r4, r5, lr}
  108b9a:	2100      	mov	r1, #0
  108b9c:	2205      	mov	r2, #5
  108b9e:	1c05      	mov	r5, r0		(add r5, r0, #0)
  108ba0:	fef8f7ff 	bl	108994 <part_getSect>
  108ba4:	21ff      	mov	r1, #255
  108ba6:	0049      	lsl	r1, r1, #1
  108ba8:	1c04      	mov	r4, r0		(add r4, r0, #0)
  108baa:	f85ff002 	bl	10ac6c <ex_getb16>
  108bae:	4b06      	ldr	r3, [pc, #24]	(108bc8 <.text+0x8bc8>)
  108bb0:	4298      	cmp	r0, r3
  108bb2:	d001      	beq	108bb8 <fs_isValidFat+0x20>
  108bb4:	2000      	mov	r0, #0
  108bb6:	e004      	b	108bc2 <fs_isValidFat+0x2a>
  108bb8:	1c28      	mov	r0, r5		(add r0, r5, #0)
  108bba:	1c21      	mov	r1, r4		(add r1, r4, #0)
  108bbc:	feb8f7ff 	bl	108930 <part_relSect>
  108bc0:	2001      	mov	r0, #1
  108bc2:	bc30      	pop	{r4, r5}
  108bc4:	bc02      	pop	{r1}
  108bc6:	4708      	bx	r1
  108bc8:	aa55      	add	r2, sp, #340
	...

00108bcc <fs_loadVolumeId>:
  108bcc:	b570      	push	{r4, r5, r6, lr}
  108bce:	1c05      	mov	r5, r0		(add r5, r0, #0)
  108bd0:	2205      	mov	r2, #5
  108bd2:	1c0e      	mov	r6, r1		(add r6, r1, #0)
  108bd4:	1c08      	mov	r0, r1		(add r0, r1, #0)
  108bd6:	2100      	mov	r1, #0
  108bd8:	fedcf7ff 	bl	108994 <part_getSect>
  108bdc:	210b      	mov	r1, #11
  108bde:	1c04      	mov	r4, r0		(add r4, r0, #0)
  108be0:	f844f002 	bl	10ac6c <ex_getb16>
  108be4:	80a8      	strh	r0, [r5, #4]
  108be6:	7b63      	ldrb	r3, [r4, #13]
  108be8:	1c20      	mov	r0, r4		(add r0, r4, #0)
  108bea:	71ab      	strb	r3, [r5, #6]
  108bec:	210e      	mov	r1, #14
  108bee:	f83df002 	bl	10ac6c <ex_getb16>
  108bf2:	8128      	strh	r0, [r5, #8]
  108bf4:	7c23      	ldrb	r3, [r4, #16]
  108bf6:	1c20      	mov	r0, r4		(add r0, r4, #0)
  108bf8:	72ab      	strb	r3, [r5, #10]
  108bfa:	2111      	mov	r1, #17
  108bfc:	f836f002 	bl	10ac6c <ex_getb16>
  108c00:	2113      	mov	r1, #19
  108c02:	81a8      	strh	r0, [r5, #12]
  108c04:	1c20      	mov	r0, r4		(add r0, r4, #0)
  108c06:	f831f002 	bl	10ac6c <ex_getb16>
  108c0a:	2116      	mov	r1, #22
  108c0c:	81e8      	strh	r0, [r5, #14]
  108c0e:	1c20      	mov	r0, r4		(add r0, r4, #0)
  108c10:	f82cf002 	bl	10ac6c <ex_getb16>
  108c14:	2120      	mov	r1, #32
  108c16:	8228      	strh	r0, [r5, #16]
  108c18:	1c20      	mov	r0, r4		(add r0, r4, #0)
  108c1a:	f81bf002 	bl	10ac54 <ex_getb32>
  108c1e:	2124      	mov	r1, #36
  108c20:	6168      	str	r0, [r5, #20]
  108c22:	1c20      	mov	r0, r4		(add r0, r4, #0)
  108c24:	f816f002 	bl	10ac54 <ex_getb32>
  108c28:	212c      	mov	r1, #44
  108c2a:	61a8      	str	r0, [r5, #24]
  108c2c:	1c20      	mov	r0, r4		(add r0, r4, #0)
  108c2e:	f811f002 	bl	10ac54 <ex_getb32>
  108c32:	1c21      	mov	r1, r4		(add r1, r4, #0)
  108c34:	61e8      	str	r0, [r5, #28]
  108c36:	1c30      	mov	r0, r6		(add r0, r6, #0)
  108c38:	fe7af7ff 	bl	108930 <part_relSect>
  108c3c:	bc70      	pop	{r4, r5, r6}
  108c3e:	bc01      	pop	{r0}
  108c40:	4700      	bx	r0
	...

00108c44 <fs_getFirstClusterRootDir>:
  108c44:	1c03      	mov	r3, r0		(add r3, r0, #0)
  108c46:	333c      	add	r3, #60
  108c48:	781b      	ldrb	r3, [r3, #0]
  108c4a:	2b03      	cmp	r3, #3
  108c4c:	d001      	beq	108c52 <fs_getFirstClusterRootDir+0xe>
  108c4e:	2001      	mov	r0, #1
  108c50:	e000      	b	108c54 <fs_getFirstClusterRootDir+0x10>
  108c52:	69c0      	ldr	r0, [r0, #28]
  108c54:	4770      	bx	lr
	...

00108c58 <fs_clusterToSector>:
  108c58:	b530      	push	{r4, r5, lr}
  108c5a:	1c03      	mov	r3, r0		(add r3, r0, #0)
  108c5c:	333c      	add	r3, #60
  108c5e:	781b      	ldrb	r3, [r3, #0]
  108c60:	1c0d      	mov	r5, r1		(add r5, r1, #0)
  108c62:	8902      	ldrh	r2, [r0, #8]
  108c64:	7a81      	ldrb	r1, [r0, #10]
  108c66:	6a44      	ldr	r4, [r0, #36]
  108c68:	2b03      	cmp	r3, #3
  108c6a:	d106      	bne	108c7a <fs_clusterToSector+0x22>
  108c6c:	0413      	lsl	r3, r2, #16
  108c6e:	060a      	lsl	r2, r1, #24
  108c70:	0e12      	lsr	r2, r2, #24
  108c72:	4362      	mul	r2, r4
  108c74:	0c1b      	lsr	r3, r3, #16
  108c76:	1899      	add	r1, r3, r2
  108c78:	e008      	b	108c8c <fs_clusterToSector+0x34>
  108c7a:	060b      	lsl	r3, r1, #24
  108c7c:	0e1b      	lsr	r3, r3, #24
  108c7e:	4363      	mul	r3, r4
  108c80:	0412      	lsl	r2, r2, #16
  108c82:	0c12      	lsr	r2, r2, #16
  108c84:	18d2      	add	r2, r2, r3
  108c86:	8983      	ldrh	r3, [r0, #12]
  108c88:	091b      	lsr	r3, r3, #4
  108c8a:	18d1      	add	r1, r2, r3
  108c8c:	7983      	ldrb	r3, [r0, #6]
  108c8e:	1eaa      	sub	r2, r5, #2
  108c90:	1c18      	mov	r0, r3		(add r0, r3, #0)
  108c92:	4350      	mul	r0, r2
  108c94:	1808      	add	r0, r1, r0
  108c96:	bc30      	pop	{r4, r5}
  108c98:	bc02      	pop	{r1}
  108c9a:	4708      	bx	r1

00108c9c <fs_sectorToCluster>:
  108c9c:	b530      	push	{r4, r5, lr}
  108c9e:	1c03      	mov	r3, r0		(add r3, r0, #0)
  108ca0:	333c      	add	r3, #60
  108ca2:	781b      	ldrb	r3, [r3, #0]
  108ca4:	1c0c      	mov	r4, r1		(add r4, r1, #0)
  108ca6:	8902      	ldrh	r2, [r0, #8]
  108ca8:	7a85      	ldrb	r5, [r0, #10]
  108caa:	6a41      	ldr	r1, [r0, #36]
  108cac:	2b03      	cmp	r3, #3
  108cae:	d106      	bne	108cbe <fs_sectorToCluster+0x22>
  108cb0:	0413      	lsl	r3, r2, #16
  108cb2:	062a      	lsl	r2, r5, #24
  108cb4:	0e12      	lsr	r2, r2, #24
  108cb6:	434a      	mul	r2, r1
  108cb8:	0c1b      	lsr	r3, r3, #16
  108cba:	1899      	add	r1, r3, r2
  108cbc:	e008      	b	108cd0 <fs_sectorToCluster+0x34>
  108cbe:	062b      	lsl	r3, r5, #24
  108cc0:	0e1b      	lsr	r3, r3, #24
  108cc2:	434b      	mul	r3, r1
  108cc4:	0412      	lsl	r2, r2, #16
  108cc6:	0c12      	lsr	r2, r2, #16
  108cc8:	18d2      	add	r2, r2, r3
  108cca:	8983      	ldrh	r3, [r0, #12]
  108ccc:	091b      	lsr	r3, r3, #4
  108cce:	18d1      	add	r1, r2, r3
  108cd0:	7985      	ldrb	r5, [r0, #6]
  108cd2:	1a64      	sub	r4, r4, r1
  108cd4:	1c20      	mov	r0, r4		(add r0, r4, #0)
  108cd6:	1c29      	mov	r1, r5		(add r1, r5, #0)
  108cd8:	ff88f7fe 	bl	107bec <__umodsi3>
  108cdc:	1a24      	sub	r4, r4, r0
  108cde:	1c29      	mov	r1, r5		(add r1, r5, #0)
  108ce0:	1c20      	mov	r0, r4		(add r0, r4, #0)
  108ce2:	feebf7fe 	bl	107abc <__udivsi3>
  108ce6:	3002      	add	r0, #2
  108ce8:	bc30      	pop	{r4, r5}
  108cea:	bc02      	pop	{r1}
  108cec:	4708      	bx	r1
	...

00108cf0 <fs_getNextFreeCluster>:
  108cf0:	b530      	push	{r4, r5, lr}
  108cf2:	1c05      	mov	r5, r0		(add r5, r0, #0)
  108cf4:	1c0c      	mov	r4, r1		(add r4, r1, #0)
  108cf6:	e007      	b	108d08 <fs_getNextFreeCluster+0x18>
  108cf8:	1c28      	mov	r0, r5		(add r0, r5, #0)
  108cfa:	1c21      	mov	r1, r4		(add r1, r4, #0)
  108cfc:	2200      	mov	r2, #0
  108cfe:	f9ebf000 	bl	1090d8 <fat_getNextClusterAddress>
  108d02:	2800      	cmp	r0, #0
  108d04:	d004      	beq	108d10 <fs_getNextFreeCluster+0x20>
  108d06:	3401      	add	r4, #1
  108d08:	6a2b      	ldr	r3, [r5, #32]
  108d0a:	429c      	cmp	r4, r3
  108d0c:	d3f4      	bcc	108cf8 <fs_getNextFreeCluster+0x8>
  108d0e:	2400      	mov	r4, #0
  108d10:	1c20      	mov	r0, r4		(add r0, r4, #0)
  108d12:	bc30      	pop	{r4, r5}
  108d14:	bc02      	pop	{r1}
  108d16:	4708      	bx	r1

00108d18 <fs_giveFreeClusterHint>:
  108d18:	2002      	mov	r0, #2
  108d1a:	4770      	bx	lr

00108d1c <fs_getLastCluster>:
  108d1c:	b530      	push	{r4, r5, lr}
  108d1e:	688a      	ldr	r2, [r1, #8]
  108d20:	1c05      	mov	r5, r0		(add r5, r0, #0)
  108d22:	1c0c      	mov	r4, r1		(add r4, r1, #0)
  108d24:	2a00      	cmp	r2, #0
  108d26:	d102      	bne	108d2e <fs_getLastCluster+0x12>
  108d28:	68cb      	ldr	r3, [r1, #12]
  108d2a:	604a      	str	r2, [r1, #4]
  108d2c:	608b      	str	r3, [r1, #8]
  108d2e:	6923      	ldr	r3, [r4, #16]
  108d30:	2b00      	cmp	r3, #0
  108d32:	d110      	bne	108d56 <fs_getLastCluster+0x3a>
  108d34:	e007      	b	108d46 <fs_getLastCluster+0x2a>
  108d36:	7823      	ldrb	r3, [r4, #0]
  108d38:	6862      	ldr	r2, [r4, #4]
  108d3a:	18d2      	add	r2, r2, r3
  108d3c:	6062      	str	r2, [r4, #4]
  108d3e:	68a2      	ldr	r2, [r4, #8]
  108d40:	18d2      	add	r2, r2, r3
  108d42:	60a2      	str	r2, [r4, #8]
  108d44:	7020      	strb	r0, [r4, #0]
  108d46:	1c28      	mov	r0, r5		(add r0, r5, #0)
  108d48:	1c21      	mov	r1, r4		(add r1, r4, #0)
  108d4a:	fba9f000 	bl	1094a0 <fat_getNextClusterChain>
  108d4e:	0400      	lsl	r0, r0, #16
  108d50:	0c00      	lsr	r0, r0, #16
  108d52:	2800      	cmp	r0, #0
  108d54:	d0ef      	beq	108d36 <fs_getLastCluster+0x1a>
  108d56:	6920      	ldr	r0, [r4, #16]
  108d58:	bc30      	pop	{r4, r5}
  108d5a:	bc02      	pop	{r1}
  108d5c:	4708      	bx	r1
	...

00108d60 <fs_initClusterChain>:
  108d60:	2300      	mov	r3, #0
  108d62:	60ca      	str	r2, [r1, #12]
  108d64:	608a      	str	r2, [r1, #8]
  108d66:	604b      	str	r3, [r1, #4]
  108d68:	610b      	str	r3, [r1, #16]
  108d6a:	700b      	strb	r3, [r1, #0]
  108d6c:	614b      	str	r3, [r1, #20]
  108d6e:	4770      	bx	lr

00108d70 <fs_setFirstClusterInDirEntry>:
  108d70:	0c0b      	lsr	r3, r1, #16
  108d72:	7503      	strb	r3, [r0, #20]
  108d74:	7681      	strb	r1, [r0, #26]
  108d76:	0a1b      	lsr	r3, r3, #8
  108d78:	0a09      	lsr	r1, r1, #8
  108d7a:	7543      	strb	r3, [r0, #21]
  108d7c:	76c1      	strb	r1, [r0, #27]
  108d7e:	4770      	bx	lr

00108d80 <fs_flushFs>:
  108d80:	b500      	push	{lr}
  108d82:	6803      	ldr	r3, [r0, #0]
  108d84:	6a82      	ldr	r2, [r0, #40]
  108d86:	2100      	mov	r1, #0
  108d88:	1c18      	mov	r0, r3		(add r0, r3, #0)
  108d8a:	fe15f7ff 	bl	1089b8 <part_flushPart>
  108d8e:	0600      	lsl	r0, r0, #24
  108d90:	1600      	asr	r0, r0, #24
  108d92:	bc02      	pop	{r1}
  108d94:	4708      	bx	r1
	...

00108d98 <fs_umount>:
  108d98:	b500      	push	{lr}
  108d9a:	fff1f7ff 	bl	108d80 <fs_flushFs>
  108d9e:	0600      	lsl	r0, r0, #24
  108da0:	1600      	asr	r0, r0, #24
  108da2:	bc02      	pop	{r1}
  108da4:	4708      	bx	r1
	...

00108da8 <fs_clearCluster>:
  108da8:	b5f0      	push	{r4, r5, r6, r7, lr}
  108daa:	b081      	sub	sp, #4
  108dac:	1c05      	mov	r5, r0		(add r5, r0, #0)
  108dae:	2700      	mov	r7, #0
  108db0:	9100      	str	r1, [sp, #0]
  108db2:	e012      	b	108dda <fs_clearCluster+0x32>
  108db4:	9900      	ldr	r1, [sp, #0]
  108db6:	1c28      	mov	r0, r5		(add r0, r5, #0)
  108db8:	ff4ef7ff 	bl	108c58 <fs_clusterToSector>
  108dbc:	682c      	ldr	r4, [r5, #0]
  108dbe:	1981      	add	r1, r0, r6
  108dc0:	2202      	mov	r2, #2
  108dc2:	1c20      	mov	r0, r4		(add r0, r4, #0)
  108dc4:	fde6f7ff 	bl	108994 <part_getSect>
  108dc8:	2180      	mov	r1, #128
  108dca:	1c04      	mov	r4, r0		(add r4, r0, #0)
  108dcc:	0089      	lsl	r1, r1, #2
  108dce:	f931f002 	bl	10b034 <memClr>
  108dd2:	6828      	ldr	r0, [r5, #0]
  108dd4:	1c21      	mov	r1, r4		(add r1, r4, #0)
  108dd6:	fdabf7ff 	bl	108930 <part_relSect>
  108dda:	043b      	lsl	r3, r7, #16
  108ddc:	0c1e      	lsr	r6, r3, #16
  108dde:	79ab      	ldrb	r3, [r5, #6]
  108de0:	3701      	add	r7, #1
  108de2:	42b3      	cmp	r3, r6
  108de4:	d8e6      	bhi	108db4 <fs_clearCluster+0xc>
  108de6:	2000      	mov	r0, #0
  108de8:	b001      	add	sp, #4
  108dea:	bcf0      	pop	{r4, r5, r6, r7}
  108dec:	bc02      	pop	{r1}
  108dee:	4708      	bx	r1

00108df0 <fs_getFsInfo>:
  108df0:	b570      	push	{r4, r5, r6, lr}
  108df2:	0609      	lsl	r1, r1, #24
  108df4:	2201      	mov	r2, #1
  108df6:	1c04      	mov	r4, r0		(add r4, r0, #0)
  108df8:	0e0e      	lsr	r6, r1, #24
  108dfa:	6800      	ldr	r0, [r0, #0]
  108dfc:	2101      	mov	r1, #1
  108dfe:	fdc9f7ff 	bl	108994 <part_getSect>
  108e02:	2100      	mov	r1, #0
  108e04:	1c05      	mov	r5, r0		(add r5, r0, #0)
  108e06:	ff25f001 	bl	10ac54 <ex_getb32>
  108e0a:	4b16      	ldr	r3, [pc, #88]	(108e64 <.text+0x8e64>)
  108e0c:	4298      	cmp	r0, r3
  108e0e:	d107      	bne	108e20 <fs_getFsInfo+0x30>
  108e10:	21fe      	mov	r1, #254
  108e12:	1c28      	mov	r0, r5		(add r0, r5, #0)
  108e14:	0049      	lsl	r1, r1, #1
  108e16:	ff1df001 	bl	10ac54 <ex_getb32>
  108e1a:	4b13      	ldr	r3, [pc, #76]	(108e68 <.text+0x8e68>)
  108e1c:	4298      	cmp	r0, r3
  108e1e:	d006      	beq	108e2e <fs_getFsInfo+0x3e>
  108e20:	6820      	ldr	r0, [r4, #0]
  108e22:	1c29      	mov	r1, r5		(add r1, r5, #0)
  108e24:	fd84f7ff 	bl	108930 <part_relSect>
  108e28:	2001      	mov	r0, #1
  108e2a:	4240      	neg	r0, r0
  108e2c:	e016      	b	108e5c <fs_getFsInfo+0x6c>
  108e2e:	21f4      	mov	r1, #244
  108e30:	0049      	lsl	r1, r1, #1
  108e32:	1c28      	mov	r0, r5		(add r0, r5, #0)
  108e34:	ff0ef001 	bl	10ac54 <ex_getb32>
  108e38:	21f6      	mov	r1, #246
  108e3a:	6360      	str	r0, [r4, #52]
  108e3c:	0049      	lsl	r1, r1, #1
  108e3e:	1c28      	mov	r0, r5		(add r0, r5, #0)
  108e40:	ff08f001 	bl	10ac54 <ex_getb32>
  108e44:	1c29      	mov	r1, r5		(add r1, r5, #0)
  108e46:	63a0      	str	r0, [r4, #56]
  108e48:	6820      	ldr	r0, [r4, #0]
  108e4a:	fd71f7ff 	bl	108930 <part_relSect>
  108e4e:	2e00      	cmp	r6, #0
  108e50:	d003      	beq	108e5a <fs_getFsInfo+0x6a>
  108e52:	1c20      	mov	r0, r4		(add r0, r4, #0)
  108e54:	fc0ef000 	bl	109674 <fat_countFreeClusters>
  108e58:	6360      	str	r0, [r4, #52]
  108e5a:	2000      	mov	r0, #0
  108e5c:	bc70      	pop	{r4, r5, r6}
  108e5e:	bc02      	pop	{r1}
  108e60:	4708      	bx	r1
  108e62:	0000      	lsl	r0, r0, #0
  108e64:	5252      	strh	r2, [r2, r1]
  108e66:	4161      	adc	r1, r4
  108e68:	0000      	lsl	r0, r0, #0
  108e6a:	aa55      	add	r2, sp, #340

00108e6c <fs_setFsInfo>:
  108e6c:	b530      	push	{r4, r5, lr}
  108e6e:	2101      	mov	r1, #1
  108e70:	2202      	mov	r2, #2
  108e72:	1c05      	mov	r5, r0		(add r5, r0, #0)
  108e74:	6800      	ldr	r0, [r0, #0]
  108e76:	fd8df7ff 	bl	108994 <part_getSect>
  108e7a:	2100      	mov	r1, #0
  108e7c:	1c04      	mov	r4, r0		(add r4, r0, #0)
  108e7e:	fee9f001 	bl	10ac54 <ex_getb32>
  108e82:	4b13      	ldr	r3, [pc, #76]	(108ed0 <.text+0x8ed0>)
  108e84:	4298      	cmp	r0, r3
  108e86:	d107      	bne	108e98 <fs_setFsInfo+0x2c>
  108e88:	21fe      	mov	r1, #254
  108e8a:	1c20      	mov	r0, r4		(add r0, r4, #0)
  108e8c:	0049      	lsl	r1, r1, #1
  108e8e:	fee1f001 	bl	10ac54 <ex_getb32>
  108e92:	4b10      	ldr	r3, [pc, #64]	(108ed4 <.text+0x8ed4>)
  108e94:	4298      	cmp	r0, r3
  108e96:	d006      	beq	108ea6 <fs_setFsInfo+0x3a>
  108e98:	6828      	ldr	r0, [r5, #0]
  108e9a:	1c21      	mov	r1, r4		(add r1, r4, #0)
  108e9c:	fd48f7ff 	bl	108930 <part_relSect>
  108ea0:	2001      	mov	r0, #1
  108ea2:	4240      	neg	r0, r0
  108ea4:	e010      	b	108ec8 <fs_setFsInfo+0x5c>
  108ea6:	21f4      	mov	r1, #244
  108ea8:	6b6a      	ldr	r2, [r5, #52]
  108eaa:	1c20      	mov	r0, r4		(add r0, r4, #0)
  108eac:	0049      	lsl	r1, r1, #1
  108eae:	fee9f001 	bl	10ac84 <ex_setb32>
  108eb2:	21f6      	mov	r1, #246
  108eb4:	6baa      	ldr	r2, [r5, #56]
  108eb6:	1c20      	mov	r0, r4		(add r0, r4, #0)
  108eb8:	0049      	lsl	r1, r1, #1
  108eba:	fee3f001 	bl	10ac84 <ex_setb32>
  108ebe:	6828      	ldr	r0, [r5, #0]
  108ec0:	1c21      	mov	r1, r4		(add r1, r4, #0)
  108ec2:	fd35f7ff 	bl	108930 <part_relSect>
  108ec6:	2000      	mov	r0, #0
  108ec8:	bc30      	pop	{r4, r5}
  108eca:	bc02      	pop	{r1}
  108ecc:	4708      	bx	r1
  108ece:	0000      	lsl	r0, r0, #0
  108ed0:	5252      	strh	r2, [r2, r1]
  108ed2:	4161      	adc	r1, r4
  108ed4:	0000      	lsl	r0, r0, #0
  108ed6:	aa55      	add	r2, sp, #340

00108ed8 <fs_initCurrentDir>:
  108ed8:	1c03      	mov	r3, r0		(add r3, r0, #0)
  108eda:	333c      	add	r3, #60
  108edc:	781b      	ldrb	r3, [r3, #0]
  108ede:	2b03      	cmp	r3, #3
  108ee0:	d001      	beq	108ee6 <fs_initCurrentDir+0xe>
  108ee2:	2301      	mov	r3, #1
  108ee4:	e000      	b	108ee8 <fs_initCurrentDir+0x10>
  108ee6:	69c3      	ldr	r3, [r0, #28]
  108ee8:	6303      	str	r3, [r0, #48]
  108eea:	4770      	bx	lr

00108eec <fs_initFs>:
  108eec:	b530      	push	{r4, r5, lr}
  108eee:	1c04      	mov	r4, r0		(add r4, r0, #0)
  108ef0:	1c08      	mov	r0, r1		(add r0, r1, #0)
  108ef2:	1c0d      	mov	r5, r1		(add r5, r1, #0)
  108ef4:	fe50f7ff 	bl	108b98 <fs_isValidFat>
  108ef8:	0400      	lsl	r0, r0, #16
  108efa:	2800      	cmp	r0, #0
  108efc:	d101      	bne	108f02 <fs_initFs+0x16>
  108efe:	2001      	mov	r0, #1
  108f00:	e00a      	b	108f18 <fs_initFs+0x2c>
  108f02:	1c20      	mov	r0, r4		(add r0, r4, #0)
  108f04:	6025      	str	r5, [r4, #0]
  108f06:	1c29      	mov	r1, r5		(add r1, r5, #0)
  108f08:	fe60f7ff 	bl	108bcc <fs_loadVolumeId>
  108f0c:	1c20      	mov	r0, r4		(add r0, r4, #0)
  108f0e:	fd89f7ff 	bl	108a24 <fs_verifySanity>
  108f12:	2800      	cmp	r0, #0
  108f14:	d102      	bne	108f1c <fs_initFs+0x30>
  108f16:	2002      	mov	r0, #2
  108f18:	4240      	neg	r0, r0
  108f1a:	e00c      	b	108f36 <fs_initFs+0x4a>
  108f1c:	1c20      	mov	r0, r4		(add r0, r4, #0)
  108f1e:	fdd1f7ff 	bl	108ac4 <fs_countDataSectors>
  108f22:	1c20      	mov	r0, r4		(add r0, r4, #0)
  108f24:	fdfaf7ff 	bl	108b1c <fs_determineFatType>
  108f28:	1c20      	mov	r0, r4		(add r0, r4, #0)
  108f2a:	fe11f7ff 	bl	108b50 <fs_findFirstSectorRootDir>
  108f2e:	1c20      	mov	r0, r4		(add r0, r4, #0)
  108f30:	ffd2f7ff 	bl	108ed8 <fs_initCurrentDir>
  108f34:	2000      	mov	r0, #0
  108f36:	bc30      	pop	{r4, r5}
  108f38:	bc02      	pop	{r1}
  108f3a:	4708      	bx	r1

00108f3c <fs_findFile>:
  108f3c:	b5f0      	push	{r4, r5, r6, r7, lr}
  108f3e:	b089      	sub	sp, #36
  108f40:	9003      	str	r0, [sp, #12]
  108f42:	9202      	str	r2, [sp, #8]
  108f44:	1c1d      	mov	r5, r3		(add r5, r3, #0)
  108f46:	780b      	ldrb	r3, [r1, #0]
  108f48:	1c08      	mov	r0, r1		(add r0, r1, #0)
  108f4a:	2b2f      	cmp	r3, #47
  108f4c:	d113      	bne	108f76 <fs_findFile+0x3a>
  108f4e:	9b03      	ldr	r3, [sp, #12]
  108f50:	333c      	add	r3, #60
  108f52:	781b      	ldrb	r3, [r3, #0]
  108f54:	2b03      	cmp	r3, #3
  108f56:	d001      	beq	108f5c <fs_findFile+0x20>
  108f58:	2701      	mov	r7, #1
  108f5a:	e001      	b	108f60 <fs_findFile+0x24>
  108f5c:	9903      	ldr	r1, [sp, #12]
  108f5e:	69cf      	ldr	r7, [r1, #28]
  108f60:	3001      	add	r0, #1
  108f62:	2d00      	cmp	r5, #0
  108f64:	d000      	beq	108f68 <fs_findFile+0x2c>
  108f66:	602f      	str	r7, [r5, #0]
  108f68:	7803      	ldrb	r3, [r0, #0]
  108f6a:	2b00      	cmp	r3, #0
  108f6c:	d059      	beq	109022 <fs_findFile+0xe6>
  108f6e:	2200      	mov	r2, #0
  108f70:	9204      	str	r2, [sp, #16]
  108f72:	9205      	str	r2, [sp, #20]
  108f74:	e040      	b	108ff8 <fs_findFile+0xbc>
  108f76:	9b03      	ldr	r3, [sp, #12]
  108f78:	6b1f      	ldr	r7, [r3, #48]
  108f7a:	2d00      	cmp	r5, #0
  108f7c:	d0f7      	beq	108f6e <fs_findFile+0x32>
  108f7e:	602f      	str	r7, [r5, #0]
  108f80:	e7f5      	b	108f6e <fs_findFile+0x32>
  108f82:	2100      	mov	r1, #0
  108f84:	9100      	str	r1, [sp, #0]
  108f86:	2119      	mov	r1, #25
  108f88:	9803      	ldr	r0, [sp, #12]
  108f8a:	4469      	add	r1, sp
  108f8c:	1c3a      	mov	r2, r7		(add r2, r7, #0)
  108f8e:	9b02      	ldr	r3, [sp, #8]
  108f90:	f912f001 	bl	10a1b8 <dir_findinDir>
  108f94:	1c04      	mov	r4, r0		(add r4, r0, #0)
  108f96:	2800      	cmp	r0, #0
  108f98:	d10a      	bne	108fb0 <fs_findFile+0x74>
  108f9a:	2119      	mov	r1, #25
  108f9c:	1c30      	mov	r0, r6		(add r0, r6, #0)
  108f9e:	4469      	add	r1, sp
  108fa0:	fca6f000 	bl	1098f0 <file_normalToFatName>
  108fa4:	2800      	cmp	r0, #0
  108fa6:	d03e      	beq	109026 <fs_findFile+0xea>
  108fa8:	2d00      	cmp	r5, #0
  108faa:	d03c      	beq	109026 <fs_findFile+0xea>
  108fac:	602c      	str	r4, [r5, #0]
  108fae:	e03a      	b	109026 <fs_findFile+0xea>
  108fb0:	9b02      	ldr	r3, [sp, #8]
  108fb2:	795a      	ldrb	r2, [r3, #5]
  108fb4:	2310      	mov	r3, #16
  108fb6:	1c11      	mov	r1, r2		(add r1, r2, #0)
  108fb8:	4019      	and	r1, r3
  108fba:	9101      	str	r1, [sp, #4]
  108fbc:	d008      	beq	108fd0 <fs_findFile+0x94>
  108fbe:	2d00      	cmp	r5, #0
  108fc0:	d000      	beq	108fc4 <fs_findFile+0x88>
  108fc2:	6028      	str	r0, [r5, #0]
  108fc4:	9a04      	ldr	r2, [sp, #16]
  108fc6:	2a00      	cmp	r2, #0
  108fc8:	d011      	beq	108fee <fs_findFile+0xb2>
  108fca:	2300      	mov	r3, #0
  108fcc:	602b      	str	r3, [r5, #0]
  108fce:	e00e      	b	108fee <fs_findFile+0xb2>
  108fd0:	2119      	mov	r1, #25
  108fd2:	1c30      	mov	r0, r6		(add r0, r6, #0)
  108fd4:	4469      	add	r1, sp
  108fd6:	fc8bf000 	bl	1098f0 <file_normalToFatName>
  108fda:	2800      	cmp	r0, #0
  108fdc:	d102      	bne	108fe4 <fs_findFile+0xa8>
  108fde:	2101      	mov	r1, #1
  108fe0:	9104      	str	r1, [sp, #16]
  108fe2:	e005      	b	108ff0 <fs_findFile+0xb4>
  108fe4:	2d00      	cmp	r5, #0
  108fe6:	d01e      	beq	109026 <fs_findFile+0xea>
  108fe8:	9a01      	ldr	r2, [sp, #4]
  108fea:	602a      	str	r2, [r5, #0]
  108fec:	e01b      	b	109026 <fs_findFile+0xea>
  108fee:	1c27      	mov	r7, r4		(add r7, r4, #0)
  108ff0:	9b05      	ldr	r3, [sp, #20]
  108ff2:	3301      	add	r3, #1
  108ff4:	9305      	str	r3, [sp, #20]
  108ff6:	1c30      	mov	r0, r6		(add r0, r6, #0)
  108ff8:	9905      	ldr	r1, [sp, #20]
  108ffa:	060b      	lsl	r3, r1, #24
  108ffc:	2119      	mov	r1, #25
  108ffe:	4469      	add	r1, sp
  109000:	0e1c      	lsr	r4, r3, #24
  109002:	fc75f000 	bl	1098f0 <file_normalToFatName>
  109006:	1c06      	mov	r6, r0		(add r6, r0, #0)
  109008:	2800      	cmp	r0, #0
  10900a:	d1ba      	bne	108f82 <fs_findFile+0x46>
  10900c:	2c00      	cmp	r4, #0
  10900e:	d00a      	beq	109026 <fs_findFile+0xea>
  109010:	9a02      	ldr	r2, [sp, #8]
  109012:	7953      	ldrb	r3, [r2, #5]
  109014:	06d9      	lsl	r1, r3, #27
  109016:	d404      	bmi	109022 <fs_findFile+0xe6>
  109018:	9a04      	ldr	r2, [sp, #16]
  10901a:	2a00      	cmp	r2, #0
  10901c:	d001      	beq	109022 <fs_findFile+0xe6>
  10901e:	2001      	mov	r0, #1
  109020:	e002      	b	109028 <fs_findFile+0xec>
  109022:	2002      	mov	r0, #2
  109024:	e000      	b	109028 <fs_findFile+0xec>
  109026:	2000      	mov	r0, #0
  109028:	b009      	add	sp, #36
  10902a:	bcf0      	pop	{r4, r5, r6, r7}
  10902c:	bc02      	pop	{r1}
  10902e:	4708      	bx	r1

00109030 <fs_findFreeFile>:
  109030:	b5f0      	push	{r4, r5, r6, r7, lr}
  109032:	b085      	sub	sp, #20
  109034:	2300      	mov	r3, #0
  109036:	9304      	str	r3, [sp, #16]
  109038:	ab04      	add	r3, sp, #16
  10903a:	1c04      	mov	r4, r0		(add r4, r0, #0)
  10903c:	1c0d      	mov	r5, r1		(add r5, r1, #0)
  10903e:	1c16      	mov	r6, r2		(add r6, r2, #0)
  109040:	ff7cf7ff 	bl	108f3c <fs_findFile>
  109044:	0600      	lsl	r0, r0, #24
  109046:	2800      	cmp	r0, #0
  109048:	d122      	bne	109090 <fs_findFreeFile+0x60>
  10904a:	466f      	mov	r7, sp
  10904c:	3705      	add	r7, #5
  10904e:	1c28      	mov	r0, r5		(add r0, r5, #0)
  109050:	1c39      	mov	r1, r7		(add r1, r7, #0)
  109052:	f8e3f001 	bl	10a21c <dir_getFatFileName>
  109056:	0600      	lsl	r0, r0, #24
  109058:	2800      	cmp	r0, #0
  10905a:	d019      	beq	109090 <fs_findFreeFile+0x60>
  10905c:	2501      	mov	r5, #1
  10905e:	9a04      	ldr	r2, [sp, #16]
  109060:	1c20      	mov	r0, r4		(add r0, r4, #0)
  109062:	1c39      	mov	r1, r7		(add r1, r7, #0)
  109064:	1c33      	mov	r3, r6		(add r3, r6, #0)
  109066:	9500      	str	r5, [sp, #0]
  109068:	f8a6f001 	bl	10a1b8 <dir_findinDir>
  10906c:	2800      	cmp	r0, #0
  10906e:	d111      	bne	109094 <fs_findFreeFile+0x64>
  109070:	9904      	ldr	r1, [sp, #16]
  109072:	1c20      	mov	r0, r4		(add r0, r4, #0)
  109074:	f8fef001 	bl	10a274 <dir_addCluster>
  109078:	0600      	lsl	r0, r0, #24
  10907a:	2800      	cmp	r0, #0
  10907c:	d108      	bne	109090 <fs_findFreeFile+0x60>
  10907e:	9a04      	ldr	r2, [sp, #16]
  109080:	1c20      	mov	r0, r4		(add r0, r4, #0)
  109082:	1c39      	mov	r1, r7		(add r1, r7, #0)
  109084:	1c33      	mov	r3, r6		(add r3, r6, #0)
  109086:	9500      	str	r5, [sp, #0]
  109088:	f896f001 	bl	10a1b8 <dir_findinDir>
  10908c:	2800      	cmp	r0, #0
  10908e:	d101      	bne	109094 <fs_findFreeFile+0x64>
  109090:	2000      	mov	r0, #0
  109092:	e000      	b	109096 <fs_findFreeFile+0x66>
  109094:	2001      	mov	r0, #1
  109096:	b005      	add	sp, #20
  109098:	bcf0      	pop	{r4, r5, r6, r7}
  10909a:	bc02      	pop	{r1}
  10909c:	4708      	bx	r1
  10909e:	46c0      	nop			(mov r8, r8)

001090a0 <fat_getSectorAddressFatEntry>:
  1090a0:	b510      	push	{r4, lr}
  1090a2:	1c03      	mov	r3, r0		(add r3, r0, #0)
  1090a4:	333c      	add	r3, #60
  1090a6:	781b      	ldrb	r3, [r3, #0]
  1090a8:	1c02      	mov	r2, r0		(add r2, r0, #0)
  1090aa:	8904      	ldrh	r4, [r0, #8]
  1090ac:	2b02      	cmp	r3, #2
  1090ae:	d007      	beq	1090c0 <fat_getSectorAddressFatEntry+0x20>
  1090b0:	2b03      	cmp	r3, #3
  1090b2:	d007      	beq	1090c4 <fat_getSectorAddressFatEntry+0x24>
  1090b4:	2b01      	cmp	r3, #1
  1090b6:	d10b      	bne	1090d0 <fat_getSectorAddressFatEntry+0x30>
  1090b8:	004b      	lsl	r3, r1, #1
  1090ba:	185b      	add	r3, r3, r1
  1090bc:	0a98      	lsr	r0, r3, #10
  1090be:	e002      	b	1090c6 <fat_getSectorAddressFatEntry+0x26>
  1090c0:	0a08      	lsr	r0, r1, #8
  1090c2:	e000      	b	1090c6 <fat_getSectorAddressFatEntry+0x26>
  1090c4:	09c8      	lsr	r0, r1, #7
  1090c6:	6a53      	ldr	r3, [r2, #36]
  1090c8:	4298      	cmp	r0, r3
  1090ca:	d201      	bcs	1090d0 <fat_getSectorAddressFatEntry+0x30>
  1090cc:	1820      	add	r0, r4, r0
  1090ce:	e000      	b	1090d2 <fat_getSectorAddressFatEntry+0x32>
  1090d0:	2000      	mov	r0, #0
  1090d2:	bc10      	pop	{r4}
  1090d4:	bc02      	pop	{r1}
  1090d6:	4708      	bx	r1

001090d8 <fat_getNextClusterAddress>:
  1090d8:	b5f0      	push	{r4, r5, r6, r7, lr}
  1090da:	b081      	sub	sp, #4
  1090dc:	1c06      	mov	r6, r0		(add r6, r0, #0)
  1090de:	1c0f      	mov	r7, r1		(add r7, r1, #0)
  1090e0:	ffdef7ff 	bl	1090a0 <fat_getSectorAddressFatEntry>
  1090e4:	8933      	ldrh	r3, [r6, #8]
  1090e6:	6a72      	ldr	r2, [r6, #36]
  1090e8:	1ac3      	sub	r3, r0, r3
  1090ea:	1c05      	mov	r5, r0		(add r5, r0, #0)
  1090ec:	429a      	cmp	r2, r3
  1090ee:	d94c      	bls	10918a <fat_getNextClusterAddress+0xb2>
  1090f0:	2800      	cmp	r0, #0
  1090f2:	d04a      	beq	10918a <fat_getNextClusterAddress+0xb2>
  1090f4:	6830      	ldr	r0, [r6, #0]
  1090f6:	1c29      	mov	r1, r5		(add r1, r5, #0)
  1090f8:	2201      	mov	r2, #1
  1090fa:	fc4bf7ff 	bl	108994 <part_getSect>
  1090fe:	1c33      	mov	r3, r6		(add r3, r6, #0)
  109100:	333c      	add	r3, #60
  109102:	781b      	ldrb	r3, [r3, #0]
  109104:	1c04      	mov	r4, r0		(add r4, r0, #0)
  109106:	2b02      	cmp	r3, #2
  109108:	d02c      	beq	109164 <fat_getNextClusterAddress+0x8c>
  10910a:	2b03      	cmp	r3, #3
  10910c:	d031      	beq	109172 <fat_getNextClusterAddress+0x9a>
  10910e:	2b01      	cmp	r3, #1
  109110:	d001      	beq	109116 <fat_getNextClusterAddress+0x3e>
  109112:	2500      	mov	r5, #0
  109114:	e034      	b	109180 <fat_getNextClusterAddress+0xa8>
  109116:	4b20      	ldr	r3, [pc, #128]	(109198 <.text+0x9198>)
  109118:	1c3a      	mov	r2, r7		(add r2, r7, #0)
  10911a:	401a      	and	r2, r3
  10911c:	0053      	lsl	r3, r2, #1
  10911e:	189b      	add	r3, r3, r2
  109120:	4a1e      	ldr	r2, [pc, #120]	(10919c <.text+0x919c>)
  109122:	085b      	lsr	r3, r3, #1
  109124:	4013      	and	r3, r2
  109126:	5cc1      	ldrb	r1, [r0, r3]
  109128:	9100      	str	r1, [sp, #0]
  10912a:	4293      	cmp	r3, r2
  10912c:	d10b      	bne	109146 <fat_getNextClusterAddress+0x6e>
  10912e:	1c21      	mov	r1, r4		(add r1, r4, #0)
  109130:	6830      	ldr	r0, [r6, #0]
  109132:	fbfdf7ff 	bl	108930 <part_relSect>
  109136:	2201      	mov	r2, #1
  109138:	6830      	ldr	r0, [r6, #0]
  10913a:	1c69      	add	r1, r5, #1
  10913c:	fc2af7ff 	bl	108994 <part_getSect>
  109140:	7802      	ldrb	r2, [r0, #0]
  109142:	1c04      	mov	r4, r0		(add r4, r0, #0)
  109144:	e001      	b	10914a <fat_getNextClusterAddress+0x72>
  109146:	18c3      	add	r3, r0, r3
  109148:	785a      	ldrb	r2, [r3, #1]
  10914a:	07fb      	lsl	r3, r7, #31
  10914c:	d405      	bmi	10915a <fat_getNextClusterAddress+0x82>
  10914e:	230f      	mov	r3, #15
  109150:	4013      	and	r3, r2
  109152:	9900      	ldr	r1, [sp, #0]
  109154:	021b      	lsl	r3, r3, #8
  109156:	185d      	add	r5, r3, r1
  109158:	e012      	b	109180 <fat_getNextClusterAddress+0xa8>
  10915a:	9900      	ldr	r1, [sp, #0]
  10915c:	0112      	lsl	r2, r2, #4
  10915e:	090b      	lsr	r3, r1, #4
  109160:	18d5      	add	r5, r2, r3
  109162:	e00d      	b	109180 <fat_getNextClusterAddress+0xa8>
  109164:	23ff      	mov	r3, #255
  109166:	1c39      	mov	r1, r7		(add r1, r7, #0)
  109168:	4019      	and	r1, r3
  10916a:	0049      	lsl	r1, r1, #1
  10916c:	fd7ef001 	bl	10ac6c <ex_getb16>
  109170:	e005      	b	10917e <fat_getNextClusterAddress+0xa6>
  109172:	237f      	mov	r3, #127
  109174:	1c39      	mov	r1, r7		(add r1, r7, #0)
  109176:	4019      	and	r1, r3
  109178:	0089      	lsl	r1, r1, #2
  10917a:	fd6bf001 	bl	10ac54 <ex_getb32>
  10917e:	1c05      	mov	r5, r0		(add r5, r0, #0)
  109180:	6830      	ldr	r0, [r6, #0]
  109182:	1c21      	mov	r1, r4		(add r1, r4, #0)
  109184:	fbd4f7ff 	bl	108930 <part_relSect>
  109188:	e000      	b	10918c <fat_getNextClusterAddress+0xb4>
  10918a:	2500      	mov	r5, #0
  10918c:	1c28      	mov	r0, r5		(add r0, r5, #0)
  10918e:	b001      	add	sp, #4
  109190:	bcf0      	pop	{r4, r5, r6, r7}
  109192:	bc02      	pop	{r1}
  109194:	4708      	bx	r1
  109196:	0000      	lsl	r0, r0, #0
  109198:	03ff      	lsl	r7, r7, #15
  10919a:	0000      	lsl	r0, r0, #0
  10919c:	01ff      	lsl	r7, r7, #7
	...

001091a0 <fat_setNextClusterAddress>:
  1091a0:	b5f0      	push	{r4, r5, r6, r7, lr}
  1091a2:	b082      	sub	sp, #8
  1091a4:	1c06      	mov	r6, r0		(add r6, r0, #0)
  1091a6:	1c0f      	mov	r7, r1		(add r7, r1, #0)
  1091a8:	1c15      	mov	r5, r2		(add r5, r2, #0)
  1091aa:	ff79f7ff 	bl	1090a0 <fat_getSectorAddressFatEntry>
  1091ae:	8933      	ldrh	r3, [r6, #8]
  1091b0:	6a72      	ldr	r2, [r6, #36]
  1091b2:	1ac3      	sub	r3, r0, r3
  1091b4:	1c01      	mov	r1, r0		(add r1, r0, #0)
  1091b6:	429a      	cmp	r2, r3
  1091b8:	d972      	bls	1092a0 <fat_setNextClusterAddress+0x100>
  1091ba:	2800      	cmp	r0, #0
  1091bc:	d070      	beq	1092a0 <fat_setNextClusterAddress+0x100>
  1091be:	6830      	ldr	r0, [r6, #0]
  1091c0:	2202      	mov	r2, #2
  1091c2:	fbe7f7ff 	bl	108994 <part_getSect>
  1091c6:	1c33      	mov	r3, r6		(add r3, r6, #0)
  1091c8:	9001      	str	r0, [sp, #4]
  1091ca:	333c      	add	r3, #60
  1091cc:	7818      	ldrb	r0, [r3, #0]
  1091ce:	2802      	cmp	r0, #2
  1091d0:	d050      	beq	109274 <fat_setNextClusterAddress+0xd4>
  1091d2:	2803      	cmp	r0, #3
  1091d4:	d058      	beq	109288 <fat_setNextClusterAddress+0xe8>
  1091d6:	2801      	cmp	r0, #1
  1091d8:	d162      	bne	1092a0 <fat_setNextClusterAddress+0x100>
  1091da:	4b33      	ldr	r3, [pc, #204]	(1092a8 <.text+0x92a8>)
  1091dc:	1c3a      	mov	r2, r7		(add r2, r7, #0)
  1091de:	401a      	and	r2, r3
  1091e0:	0053      	lsl	r3, r2, #1
  1091e2:	189b      	add	r3, r3, r2
  1091e4:	4a31      	ldr	r2, [pc, #196]	(1092ac <.text+0x92ac>)
  1091e6:	085b      	lsr	r3, r3, #1
  1091e8:	1c39      	mov	r1, r7		(add r1, r7, #0)
  1091ea:	4013      	and	r3, r2
  1091ec:	4041      	eor	r1, r0
  1091ee:	4293      	cmp	r3, r2
  1091f0:	d12b      	bne	10924a <fat_setNextClusterAddress+0xaa>
  1091f2:	1c0a      	mov	r2, r1		(add r2, r1, #0)
  1091f4:	4002      	and	r2, r0
  1091f6:	9200      	str	r2, [sp, #0]
  1091f8:	d002      	beq	109200 <fat_setNextClusterAddress+0x60>
  1091fa:	9a01      	ldr	r2, [sp, #4]
  1091fc:	54d5      	strb	r5, [r2, r3]
  1091fe:	e007      	b	109210 <fat_setNextClusterAddress+0x70>
  109200:	9a01      	ldr	r2, [sp, #4]
  109202:	18d1      	add	r1, r2, r3
  109204:	780b      	ldrb	r3, [r1, #0]
  109206:	220f      	mov	r2, #15
  109208:	4013      	and	r3, r2
  10920a:	012a      	lsl	r2, r5, #4
  10920c:	189b      	add	r3, r3, r2
  10920e:	700b      	strb	r3, [r1, #0]
  109210:	1c39      	mov	r1, r7		(add r1, r7, #0)
  109212:	1c30      	mov	r0, r6		(add r0, r6, #0)
  109214:	ff44f7ff 	bl	1090a0 <fat_getSectorAddressFatEntry>
  109218:	6834      	ldr	r4, [r6, #0]
  10921a:	1c01      	mov	r1, r0		(add r1, r0, #0)
  10921c:	3101      	add	r1, #1
  10921e:	1c20      	mov	r0, r4		(add r0, r4, #0)
  109220:	2202      	mov	r2, #2
  109222:	fbb7f7ff 	bl	108994 <part_getSect>
  109226:	9b00      	ldr	r3, [sp, #0]
  109228:	1c04      	mov	r4, r0		(add r4, r0, #0)
  10922a:	2b00      	cmp	r3, #0
  10922c:	d006      	beq	10923c <fat_setNextClusterAddress+0x9c>
  10922e:	7803      	ldrb	r3, [r0, #0]
  109230:	210f      	mov	r1, #15
  109232:	0a2a      	lsr	r2, r5, #8
  109234:	438b      	bic	r3, r1
  109236:	400a      	and	r2, r1
  109238:	189b      	add	r3, r3, r2
  10923a:	e000      	b	10923e <fat_setNextClusterAddress+0x9e>
  10923c:	092b      	lsr	r3, r5, #4
  10923e:	7023      	strb	r3, [r4, #0]
  109240:	1c21      	mov	r1, r4		(add r1, r4, #0)
  109242:	6830      	ldr	r0, [r6, #0]
  109244:	fb74f7ff 	bl	108930 <part_relSect>
  109248:	e026      	b	109298 <fat_setNextClusterAddress+0xf8>
  10924a:	9a01      	ldr	r2, [sp, #4]
  10924c:	18d4      	add	r4, r2, r3
  10924e:	4201      	tst	r1, r0
  109250:	d007      	beq	109262 <fat_setNextClusterAddress+0xc2>
  109252:	7863      	ldrb	r3, [r4, #1]
  109254:	210f      	mov	r1, #15
  109256:	0a2a      	lsr	r2, r5, #8
  109258:	438b      	bic	r3, r1
  10925a:	400a      	and	r2, r1
  10925c:	189b      	add	r3, r3, r2
  10925e:	7025      	strb	r5, [r4, #0]
  109260:	e006      	b	109270 <fat_setNextClusterAddress+0xd0>
  109262:	7823      	ldrb	r3, [r4, #0]
  109264:	220f      	mov	r2, #15
  109266:	4013      	and	r3, r2
  109268:	012a      	lsl	r2, r5, #4
  10926a:	189b      	add	r3, r3, r2
  10926c:	7023      	strb	r3, [r4, #0]
  10926e:	092b      	lsr	r3, r5, #4
  109270:	7063      	strb	r3, [r4, #1]
  109272:	e011      	b	109298 <fat_setNextClusterAddress+0xf8>
  109274:	23ff      	mov	r3, #255
  109276:	1c39      	mov	r1, r7		(add r1, r7, #0)
  109278:	4019      	and	r1, r3
  10927a:	042a      	lsl	r2, r5, #16
  10927c:	0049      	lsl	r1, r1, #1
  10927e:	0c12      	lsr	r2, r2, #16
  109280:	9801      	ldr	r0, [sp, #4]
  109282:	fcf9f001 	bl	10ac78 <ex_setb16>
  109286:	e007      	b	109298 <fat_setNextClusterAddress+0xf8>
  109288:	237f      	mov	r3, #127
  10928a:	1c39      	mov	r1, r7		(add r1, r7, #0)
  10928c:	4019      	and	r1, r3
  10928e:	0089      	lsl	r1, r1, #2
  109290:	9801      	ldr	r0, [sp, #4]
  109292:	1c2a      	mov	r2, r5		(add r2, r5, #0)
  109294:	fcf6f001 	bl	10ac84 <ex_setb32>
  109298:	6830      	ldr	r0, [r6, #0]
  10929a:	9901      	ldr	r1, [sp, #4]
  10929c:	fb48f7ff 	bl	108930 <part_relSect>
  1092a0:	b002      	add	sp, #8
  1092a2:	bcf0      	pop	{r4, r5, r6, r7}
  1092a4:	bc01      	pop	{r0}
  1092a6:	4700      	bx	r0
  1092a8:	03ff      	lsl	r7, r7, #15
  1092aa:	0000      	lsl	r0, r0, #0
  1092ac:	01ff      	lsl	r7, r7, #7
	...

001092b0 <fat_isEocMarker>:
  1092b0:	303c      	add	r0, #60
  1092b2:	7803      	ldrb	r3, [r0, #0]
  1092b4:	2b02      	cmp	r3, #2
  1092b6:	d005      	beq	1092c4 <fat_isEocMarker+0x14>
  1092b8:	2b03      	cmp	r3, #3
  1092ba:	d007      	beq	1092cc <fat_isEocMarker+0x1c>
  1092bc:	2b01      	cmp	r3, #1
  1092be:	d10d      	bne	1092dc <fat_isEocMarker+0x2c>
  1092c0:	4b07      	ldr	r3, [pc, #28]	(1092e0 <.text+0x92e0>)
  1092c2:	e000      	b	1092c6 <fat_isEocMarker+0x16>
  1092c4:	4b07      	ldr	r3, [pc, #28]	(1092e4 <.text+0x92e4>)
  1092c6:	4299      	cmp	r1, r3
  1092c8:	d906      	bls	1092d8 <fat_isEocMarker+0x28>
  1092ca:	e007      	b	1092dc <fat_isEocMarker+0x2c>
  1092cc:	4b06      	ldr	r3, [pc, #24]	(1092e8 <.text+0x92e8>)
  1092ce:	1c0a      	mov	r2, r1		(add r2, r1, #0)
  1092d0:	401a      	and	r2, r3
  1092d2:	3b08      	sub	r3, #8
  1092d4:	429a      	cmp	r2, r3
  1092d6:	d801      	bhi	1092dc <fat_isEocMarker+0x2c>
  1092d8:	2000      	mov	r0, #0
  1092da:	e000      	b	1092de <fat_isEocMarker+0x2e>
  1092dc:	2001      	mov	r0, #1
  1092de:	4770      	bx	lr
  1092e0:	0ff7      	lsr	r7, r6, #31
  1092e2:	0000      	lsl	r0, r0, #0
  1092e4:	fff7      	second half of BL instruction 0xfff7
  1092e6:	0000      	lsl	r0, r0, #0
  1092e8:	ffff      	second half of BL instruction 0xffff
  1092ea:	0fff      	lsr	r7, r7, #31

001092ec <fat_giveEocMarker>:
  1092ec:	303c      	add	r0, #60
  1092ee:	7803      	ldrb	r3, [r0, #0]
  1092f0:	2b02      	cmp	r3, #2
  1092f2:	d00a      	beq	10930a <fat_giveEocMarker+0x1e>
  1092f4:	2b03      	cmp	r3, #3
  1092f6:	d002      	beq	1092fe <fat_giveEocMarker+0x12>
  1092f8:	2b01      	cmp	r3, #1
  1092fa:	d102      	bne	109302 <fat_giveEocMarker+0x16>
  1092fc:	e003      	b	109306 <fat_giveEocMarker+0x1a>
  1092fe:	4804      	ldr	r0, [pc, #16]	(109310 <.text+0x9310>)
  109300:	e004      	b	10930c <fat_giveEocMarker+0x20>
  109302:	2000      	mov	r0, #0
  109304:	e002      	b	10930c <fat_giveEocMarker+0x20>
  109306:	4803      	ldr	r0, [pc, #12]	(109314 <.text+0x9314>)
  109308:	e000      	b	10930c <fat_giveEocMarker+0x20>
  10930a:	4803      	ldr	r0, [pc, #12]	(109318 <.text+0x9318>)
  10930c:	4770      	bx	lr
  10930e:	0000      	lsl	r0, r0, #0
  109310:	ffff      	second half of BL instruction 0xffff
  109312:	0fff      	lsr	r7, r7, #31
  109314:	0fff      	lsr	r7, r7, #31
  109316:	0000      	lsl	r0, r0, #0
  109318:	ffff      	second half of BL instruction 0xffff
	...

0010931c <fat_getNextClusterAddressWBuf>:
  10931c:	b5f0      	push	{r4, r5, r6, r7, lr}
  10931e:	1c03      	mov	r3, r0		(add r3, r0, #0)
  109320:	333c      	add	r3, #60
  109322:	781b      	ldrb	r3, [r3, #0]
  109324:	1c05      	mov	r5, r0		(add r5, r0, #0)
  109326:	1c0e      	mov	r6, r1		(add r6, r1, #0)
  109328:	1c14      	mov	r4, r2		(add r4, r2, #0)
  10932a:	2b02      	cmp	r3, #2
  10932c:	d02e      	beq	10938c <fat_getNextClusterAddressWBuf+0x70>
  10932e:	2b03      	cmp	r3, #3
  109330:	d033      	beq	10939a <fat_getNextClusterAddressWBuf+0x7e>
  109332:	2b01      	cmp	r3, #1
  109334:	d001      	beq	10933a <fat_getNextClusterAddressWBuf+0x1e>
  109336:	2000      	mov	r0, #0
  109338:	e035      	b	1093a6 <fat_getNextClusterAddressWBuf+0x8a>
  10933a:	4b1c      	ldr	r3, [pc, #112]	(1093ac <.text+0x93ac>)
  10933c:	1c0a      	mov	r2, r1		(add r2, r1, #0)
  10933e:	401a      	and	r2, r3
  109340:	0053      	lsl	r3, r2, #1
  109342:	189b      	add	r3, r3, r2
  109344:	085b      	lsr	r3, r3, #1
  109346:	4a1a      	ldr	r2, [pc, #104]	(1093b0 <.text+0x93b0>)
  109348:	1c18      	mov	r0, r3		(add r0, r3, #0)
  10934a:	4010      	and	r0, r2
  10934c:	5c27      	ldrb	r7, [r4, r0]
  10934e:	4290      	cmp	r0, r2
  109350:	d10f      	bne	109372 <fat_getNextClusterAddressWBuf+0x56>
  109352:	1c28      	mov	r0, r5		(add r0, r5, #0)
  109354:	fea4f7ff 	bl	1090a0 <fat_getSectorAddressFatEntry>
  109358:	682c      	ldr	r4, [r5, #0]
  10935a:	1c01      	mov	r1, r0		(add r1, r0, #0)
  10935c:	3101      	add	r1, #1
  10935e:	1c20      	mov	r0, r4		(add r0, r4, #0)
  109360:	2201      	mov	r2, #1
  109362:	fb17f7ff 	bl	108994 <part_getSect>
  109366:	1c01      	mov	r1, r0		(add r1, r0, #0)
  109368:	7804      	ldrb	r4, [r0, #0]
  10936a:	6828      	ldr	r0, [r5, #0]
  10936c:	fae0f7ff 	bl	108930 <part_relSect>
  109370:	e001      	b	109376 <fat_getNextClusterAddressWBuf+0x5a>
  109372:	1823      	add	r3, r4, r0
  109374:	785c      	ldrb	r4, [r3, #1]
  109376:	07f3      	lsl	r3, r6, #31
  109378:	d404      	bmi	109384 <fat_getNextClusterAddressWBuf+0x68>
  10937a:	230f      	mov	r3, #15
  10937c:	4023      	and	r3, r4
  10937e:	021b      	lsl	r3, r3, #8
  109380:	19d8      	add	r0, r3, r7
  109382:	e010      	b	1093a6 <fat_getNextClusterAddressWBuf+0x8a>
  109384:	0122      	lsl	r2, r4, #4
  109386:	093b      	lsr	r3, r7, #4
  109388:	18d0      	add	r0, r2, r3
  10938a:	e00c      	b	1093a6 <fat_getNextClusterAddressWBuf+0x8a>
  10938c:	23ff      	mov	r3, #255
  10938e:	4019      	and	r1, r3
  109390:	0049      	lsl	r1, r1, #1
  109392:	1c10      	mov	r0, r2		(add r0, r2, #0)
  109394:	fc6af001 	bl	10ac6c <ex_getb16>
  109398:	e005      	b	1093a6 <fat_getNextClusterAddressWBuf+0x8a>
  10939a:	237f      	mov	r3, #127
  10939c:	4019      	and	r1, r3
  10939e:	0089      	lsl	r1, r1, #2
  1093a0:	1c10      	mov	r0, r2		(add r0, r2, #0)
  1093a2:	fc57f001 	bl	10ac54 <ex_getb32>
  1093a6:	bcf0      	pop	{r4, r5, r6, r7}
  1093a8:	bc02      	pop	{r1}
  1093aa:	4708      	bx	r1
  1093ac:	03ff      	lsl	r7, r7, #15
  1093ae:	0000      	lsl	r0, r0, #0
  1093b0:	01ff      	lsl	r7, r7, #7
	...

001093b4 <fat_setNextClusterAddressWBuf>:
  1093b4:	b5f0      	push	{r4, r5, r6, r7, lr}
  1093b6:	b082      	sub	sp, #8
  1093b8:	9000      	str	r0, [sp, #0]
  1093ba:	1c1e      	mov	r6, r3		(add r6, r3, #0)
  1093bc:	1c03      	mov	r3, r0		(add r3, r0, #0)
  1093be:	333c      	add	r3, #60
  1093c0:	1c0f      	mov	r7, r1		(add r7, r1, #0)
  1093c2:	7819      	ldrb	r1, [r3, #0]
  1093c4:	1c15      	mov	r5, r2		(add r5, r2, #0)
  1093c6:	2902      	cmp	r1, #2
  1093c8:	d050      	beq	10946c <fat_setNextClusterAddressWBuf+0xb8>
  1093ca:	2903      	cmp	r1, #3
  1093cc:	d058      	beq	109480 <fat_setNextClusterAddressWBuf+0xcc>
  1093ce:	2901      	cmp	r1, #1
  1093d0:	d15d      	bne	10948e <fat_setNextClusterAddressWBuf+0xda>
  1093d2:	4b31      	ldr	r3, [pc, #196]	(109498 <.text+0x9498>)
  1093d4:	1c3a      	mov	r2, r7		(add r2, r7, #0)
  1093d6:	401a      	and	r2, r3
  1093d8:	0053      	lsl	r3, r2, #1
  1093da:	189b      	add	r3, r3, r2
  1093dc:	085b      	lsr	r3, r3, #1
  1093de:	4a2f      	ldr	r2, [pc, #188]	(10949c <.text+0x949c>)
  1093e0:	1c18      	mov	r0, r3		(add r0, r3, #0)
  1093e2:	1c3c      	mov	r4, r7		(add r4, r7, #0)
  1093e4:	4010      	and	r0, r2
  1093e6:	404c      	eor	r4, r1
  1093e8:	4290      	cmp	r0, r2
  1093ea:	d12b      	bne	109444 <fat_setNextClusterAddressWBuf+0x90>
  1093ec:	1c23      	mov	r3, r4		(add r3, r4, #0)
  1093ee:	400b      	and	r3, r1
  1093f0:	9301      	str	r3, [sp, #4]
  1093f2:	d001      	beq	1093f8 <fat_setNextClusterAddressWBuf+0x44>
  1093f4:	5435      	strb	r5, [r6, r0]
  1093f6:	e006      	b	109406 <fat_setNextClusterAddressWBuf+0x52>
  1093f8:	1831      	add	r1, r6, r0
  1093fa:	780b      	ldrb	r3, [r1, #0]
  1093fc:	220f      	mov	r2, #15
  1093fe:	4013      	and	r3, r2
  109400:	012a      	lsl	r2, r5, #4
  109402:	189b      	add	r3, r3, r2
  109404:	700b      	strb	r3, [r1, #0]
  109406:	9b00      	ldr	r3, [sp, #0]
  109408:	1c39      	mov	r1, r7		(add r1, r7, #0)
  10940a:	1c18      	mov	r0, r3		(add r0, r3, #0)
  10940c:	681c      	ldr	r4, [r3, #0]
  10940e:	fe47f7ff 	bl	1090a0 <fat_getSectorAddressFatEntry>
  109412:	1c01      	mov	r1, r0		(add r1, r0, #0)
  109414:	3101      	add	r1, #1
  109416:	1c20      	mov	r0, r4		(add r0, r4, #0)
  109418:	2202      	mov	r2, #2
  10941a:	fabbf7ff 	bl	108994 <part_getSect>
  10941e:	9b01      	ldr	r3, [sp, #4]
  109420:	1c04      	mov	r4, r0		(add r4, r0, #0)
  109422:	2b00      	cmp	r3, #0
  109424:	d006      	beq	109434 <fat_setNextClusterAddressWBuf+0x80>
  109426:	7803      	ldrb	r3, [r0, #0]
  109428:	210f      	mov	r1, #15
  10942a:	0a2a      	lsr	r2, r5, #8
  10942c:	438b      	bic	r3, r1
  10942e:	400a      	and	r2, r1
  109430:	189b      	add	r3, r3, r2
  109432:	e000      	b	109436 <fat_setNextClusterAddressWBuf+0x82>
  109434:	092b      	lsr	r3, r5, #4
  109436:	7023      	strb	r3, [r4, #0]
  109438:	9b00      	ldr	r3, [sp, #0]
  10943a:	1c21      	mov	r1, r4		(add r1, r4, #0)
  10943c:	6818      	ldr	r0, [r3, #0]
  10943e:	fa77f7ff 	bl	108930 <part_relSect>
  109442:	e024      	b	10948e <fat_setNextClusterAddressWBuf+0xda>
  109444:	1830      	add	r0, r6, r0
  109446:	420c      	tst	r4, r1
  109448:	d007      	beq	10945a <fat_setNextClusterAddressWBuf+0xa6>
  10944a:	7843      	ldrb	r3, [r0, #1]
  10944c:	210f      	mov	r1, #15
  10944e:	0a2a      	lsr	r2, r5, #8
  109450:	438b      	bic	r3, r1
  109452:	400a      	and	r2, r1
  109454:	189b      	add	r3, r3, r2
  109456:	7005      	strb	r5, [r0, #0]
  109458:	e006      	b	109468 <fat_setNextClusterAddressWBuf+0xb4>
  10945a:	7803      	ldrb	r3, [r0, #0]
  10945c:	220f      	mov	r2, #15
  10945e:	4013      	and	r3, r2
  109460:	012a      	lsl	r2, r5, #4
  109462:	189b      	add	r3, r3, r2
  109464:	7003      	strb	r3, [r0, #0]
  109466:	092b      	lsr	r3, r5, #4
  109468:	7043      	strb	r3, [r0, #1]
  10946a:	e010      	b	10948e <fat_setNextClusterAddressWBuf+0xda>
  10946c:	23ff      	mov	r3, #255
  10946e:	1c39      	mov	r1, r7		(add r1, r7, #0)
  109470:	4019      	and	r1, r3
  109472:	0412      	lsl	r2, r2, #16
  109474:	0049      	lsl	r1, r1, #1
  109476:	0c12      	lsr	r2, r2, #16
  109478:	1c30      	mov	r0, r6		(add r0, r6, #0)
  10947a:	fbfdf001 	bl	10ac78 <ex_setb16>
  10947e:	e006      	b	10948e <fat_setNextClusterAddressWBuf+0xda>
  109480:	237f      	mov	r3, #127
  109482:	1c39      	mov	r1, r7		(add r1, r7, #0)
  109484:	4019      	and	r1, r3
  109486:	0089      	lsl	r1, r1, #2
  109488:	1c30      	mov	r0, r6		(add r0, r6, #0)
  10948a:	fbfbf001 	bl	10ac84 <ex_setb32>
  10948e:	b002      	add	sp, #8
  109490:	bcf0      	pop	{r4, r5, r6, r7}
  109492:	bc01      	pop	{r0}
  109494:	4700      	bx	r0
  109496:	0000      	lsl	r0, r0, #0
  109498:	03ff      	lsl	r7, r7, #15
  10949a:	0000      	lsl	r0, r0, #0
  10949c:	01ff      	lsl	r7, r7, #7
	...

001094a0 <fat_getNextClusterChain>:
  1094a0:	b5f0      	push	{r4, r5, r6, r7, lr}
  1094a2:	1c0d      	mov	r5, r1		(add r5, r1, #0)
  1094a4:	6889      	ldr	r1, [r1, #8]
  1094a6:	b083      	sub	sp, #12
  1094a8:	1c06      	mov	r6, r0		(add r6, r0, #0)
  1094aa:	2900      	cmp	r1, #0
  1094ac:	d01a      	beq	1094e4 <fat_getNextClusterChain+0x44>
  1094ae:	fdf7f7ff 	bl	1090a0 <fat_getSectorAddressFatEntry>
  1094b2:	9000      	str	r0, [sp, #0]
  1094b4:	9900      	ldr	r1, [sp, #0]
  1094b6:	2201      	mov	r2, #1
  1094b8:	6830      	ldr	r0, [r6, #0]
  1094ba:	fa6bf7ff 	bl	108994 <part_getSect>
  1094be:	9002      	str	r0, [sp, #8]
  1094c0:	68a9      	ldr	r1, [r5, #8]
  1094c2:	1c30      	mov	r0, r6		(add r0, r6, #0)
  1094c4:	9a02      	ldr	r2, [sp, #8]
  1094c6:	ff29f7ff 	bl	10931c <fat_getNextClusterAddressWBuf>
  1094ca:	1c04      	mov	r4, r0		(add r4, r0, #0)
  1094cc:	1c21      	mov	r1, r4		(add r1, r4, #0)
  1094ce:	1c30      	mov	r0, r6		(add r0, r6, #0)
  1094d0:	feeef7ff 	bl	1092b0 <fat_isEocMarker>
  1094d4:	2800      	cmp	r0, #0
  1094d6:	d008      	beq	1094ea <fat_getNextClusterChain+0x4a>
  1094d8:	68ab      	ldr	r3, [r5, #8]
  1094da:	6830      	ldr	r0, [r6, #0]
  1094dc:	612b      	str	r3, [r5, #16]
  1094de:	9902      	ldr	r1, [sp, #8]
  1094e0:	fa26f7ff 	bl	108930 <part_relSect>
  1094e4:	2001      	mov	r0, #1
  1094e6:	4240      	neg	r0, r0
  1094e8:	e027      	b	10953a <fat_getNextClusterChain+0x9a>
  1094ea:	686b      	ldr	r3, [r5, #4]
  1094ec:	1e62      	sub	r2, r4, #1
  1094ee:	3301      	add	r3, #1
  1094f0:	2700      	mov	r7, #0
  1094f2:	60ac      	str	r4, [r5, #8]
  1094f4:	606b      	str	r3, [r5, #4]
  1094f6:	e006      	b	109506 <fat_getNextClusterChain+0x66>
  1094f8:	1c21      	mov	r1, r4		(add r1, r4, #0)
  1094fa:	9a02      	ldr	r2, [sp, #8]
  1094fc:	1c30      	mov	r0, r6		(add r0, r6, #0)
  1094fe:	ff0df7ff 	bl	10931c <fat_getNextClusterAddressWBuf>
  109502:	1c22      	mov	r2, r4		(add r2, r4, #0)
  109504:	1c04      	mov	r4, r0		(add r4, r0, #0)
  109506:	043b      	lsl	r3, r7, #16
  109508:	0c1b      	lsr	r3, r3, #16
  10950a:	9301      	str	r3, [sp, #4]
  10950c:	1e63      	sub	r3, r4, #1
  10950e:	4293      	cmp	r3, r2
  109510:	d107      	bne	109522 <fat_getNextClusterChain+0x82>
  109512:	1c30      	mov	r0, r6		(add r0, r6, #0)
  109514:	1c21      	mov	r1, r4		(add r1, r4, #0)
  109516:	fdc3f7ff 	bl	1090a0 <fat_getSectorAddressFatEntry>
  10951a:	9a00      	ldr	r2, [sp, #0]
  10951c:	3701      	add	r7, #1
  10951e:	4290      	cmp	r0, r2
  109520:	d0ea      	beq	1094f8 <fat_getNextClusterChain+0x58>
  109522:	9a01      	ldr	r2, [sp, #4]
  109524:	0413      	lsl	r3, r2, #16
  109526:	141b      	asr	r3, r3, #16
  109528:	3b01      	sub	r3, #1
  10952a:	d500      	bpl	10952e <fat_getNextClusterChain+0x8e>
  10952c:	2300      	mov	r3, #0
  10952e:	702b      	strb	r3, [r5, #0]
  109530:	9902      	ldr	r1, [sp, #8]
  109532:	6830      	ldr	r0, [r6, #0]
  109534:	f9fcf7ff 	bl	108930 <part_relSect>
  109538:	2000      	mov	r0, #0
  10953a:	b003      	add	sp, #12
  10953c:	bcf0      	pop	{r4, r5, r6, r7}
  10953e:	bc02      	pop	{r1}
  109540:	4708      	bx	r1
	...

00109544 <fat_LogicToDiscCluster>:
  109544:	b570      	push	{r4, r5, r6, lr}
  109546:	684b      	ldr	r3, [r1, #4]
  109548:	1c06      	mov	r6, r0		(add r6, r0, #0)
  10954a:	1c0c      	mov	r4, r1		(add r4, r1, #0)
  10954c:	1c15      	mov	r5, r2		(add r5, r2, #0)
  10954e:	429a      	cmp	r2, r3
  109550:	d302      	bcc	109558 <fat_LogicToDiscCluster+0x14>
  109552:	688b      	ldr	r3, [r1, #8]
  109554:	2b00      	cmp	r3, #0
  109556:	d104      	bne	109562 <fat_LogicToDiscCluster+0x1e>
  109558:	68e3      	ldr	r3, [r4, #12]
  10955a:	2200      	mov	r2, #0
  10955c:	6062      	str	r2, [r4, #4]
  10955e:	60a3      	str	r3, [r4, #8]
  109560:	7022      	strb	r2, [r4, #0]
  109562:	6863      	ldr	r3, [r4, #4]
  109564:	42ab      	cmp	r3, r5
  109566:	d015      	beq	109594 <fat_LogicToDiscCluster+0x50>
  109568:	7823      	ldrb	r3, [r4, #0]
  10956a:	2b00      	cmp	r3, #0
  10956c:	d008      	beq	109580 <fat_LogicToDiscCluster+0x3c>
  10956e:	3b01      	sub	r3, #1
  109570:	7023      	strb	r3, [r4, #0]
  109572:	6863      	ldr	r3, [r4, #4]
  109574:	3301      	add	r3, #1
  109576:	6063      	str	r3, [r4, #4]
  109578:	68a3      	ldr	r3, [r4, #8]
  10957a:	3301      	add	r3, #1
  10957c:	60a3      	str	r3, [r4, #8]
  10957e:	e7f0      	b	109562 <fat_LogicToDiscCluster+0x1e>
  109580:	1c30      	mov	r0, r6		(add r0, r6, #0)
  109582:	1c21      	mov	r1, r4		(add r1, r4, #0)
  109584:	ff8cf7ff 	bl	1094a0 <fat_getNextClusterChain>
  109588:	0400      	lsl	r0, r0, #16
  10958a:	2800      	cmp	r0, #0
  10958c:	d0e9      	beq	109562 <fat_LogicToDiscCluster+0x1e>
  10958e:	2001      	mov	r0, #1
  109590:	4240      	neg	r0, r0
  109592:	e000      	b	109596 <fat_LogicToDiscCluster+0x52>
  109594:	2000      	mov	r0, #0
  109596:	bc70      	pop	{r4, r5, r6}
  109598:	bc02      	pop	{r1}
  10959a:	4708      	bx	r1

0010959c <fat_unlinkClusterChain>:
  10959c:	b5f0      	push	{r4, r5, r6, r7, lr}
  10959e:	2300      	mov	r3, #0
  1095a0:	604b      	str	r3, [r1, #4]
  1095a2:	68cb      	ldr	r3, [r1, #12]
  1095a4:	1c05      	mov	r5, r0		(add r5, r0, #0)
  1095a6:	1c0c      	mov	r4, r1		(add r4, r1, #0)
  1095a8:	2600      	mov	r6, #0
  1095aa:	2200      	mov	r2, #0
  1095ac:	608b      	str	r3, [r1, #8]
  1095ae:	e008      	b	1095c2 <fat_unlinkClusterChain+0x26>
  1095b0:	2e00      	cmp	r6, #0
  1095b2:	d004      	beq	1095be <fat_unlinkClusterChain+0x22>
  1095b4:	1c28      	mov	r0, r5		(add r0, r5, #0)
  1095b6:	1c31      	mov	r1, r6		(add r1, r6, #0)
  1095b8:	2200      	mov	r2, #0
  1095ba:	fdf1f7ff 	bl	1091a0 <fat_setNextClusterAddress>
  1095be:	68a6      	ldr	r6, [r4, #8]
  1095c0:	1c3a      	mov	r2, r7		(add r2, r7, #0)
  1095c2:	1c28      	mov	r0, r5		(add r0, r5, #0)
  1095c4:	1c21      	mov	r1, r4		(add r1, r4, #0)
  1095c6:	1c57      	add	r7, r2, #1
  1095c8:	ffbcf7ff 	bl	109544 <fat_LogicToDiscCluster>
  1095cc:	0400      	lsl	r0, r0, #16
  1095ce:	2800      	cmp	r0, #0
  1095d0:	d0ee      	beq	1095b0 <fat_unlinkClusterChain+0x14>
  1095d2:	1c28      	mov	r0, r5		(add r0, r5, #0)
  1095d4:	68a1      	ldr	r1, [r4, #8]
  1095d6:	2200      	mov	r2, #0
  1095d8:	fde2f7ff 	bl	1091a0 <fat_setNextClusterAddress>
  1095dc:	6b6b      	ldr	r3, [r5, #52]
  1095de:	2000      	mov	r0, #0
  1095e0:	19db      	add	r3, r3, r7
  1095e2:	636b      	str	r3, [r5, #52]
  1095e4:	bcf0      	pop	{r4, r5, r6, r7}
  1095e6:	bc02      	pop	{r1}
  1095e8:	4708      	bx	r1
	...

001095ec <fat_countClustersInChain>:
  1095ec:	b570      	push	{r4, r5, r6, lr}
  1095ee:	b086      	sub	sp, #24
  1095f0:	1c06      	mov	r6, r0		(add r6, r0, #0)
  1095f2:	2901      	cmp	r1, #1
  1095f4:	d913      	bls	10961e <fat_countClustersInChain+0x32>
  1095f6:	466b      	mov	r3, sp
  1095f8:	2200      	mov	r2, #0
  1095fa:	701a      	strb	r2, [r3, #0]
  1095fc:	2300      	mov	r3, #0
  1095fe:	9304      	str	r3, [sp, #16]
  109600:	9301      	str	r3, [sp, #4]
  109602:	9302      	str	r3, [sp, #8]
  109604:	9103      	str	r1, [sp, #12]
  109606:	2400      	mov	r4, #0
  109608:	1c30      	mov	r0, r6		(add r0, r6, #0)
  10960a:	4669      	mov	r1, sp
  10960c:	1c22      	mov	r2, r4		(add r2, r4, #0)
  10960e:	ff99f7ff 	bl	109544 <fat_LogicToDiscCluster>
  109612:	0400      	lsl	r0, r0, #16
  109614:	1c65      	add	r5, r4, #1
  109616:	2800      	cmp	r0, #0
  109618:	d102      	bne	109620 <fat_countClustersInChain+0x34>
  10961a:	1c2c      	mov	r4, r5		(add r4, r5, #0)
  10961c:	e7f4      	b	109608 <fat_countClustersInChain+0x1c>
  10961e:	2400      	mov	r4, #0
  109620:	1c20      	mov	r0, r4		(add r0, r4, #0)
  109622:	b006      	add	sp, #24
  109624:	bc70      	pop	{r4, r5, r6}
  109626:	bc02      	pop	{r1}
  109628:	4708      	bx	r1
	...

0010962c <fat_DiscToLogicCluster>:
  10962c:	b5f0      	push	{r4, r5, r6, r7, lr}
  10962e:	b086      	sub	sp, #24
  109630:	466b      	mov	r3, sp
  109632:	1c16      	mov	r6, r2		(add r6, r2, #0)
  109634:	2200      	mov	r2, #0
  109636:	701a      	strb	r2, [r3, #0]
  109638:	1c07      	mov	r7, r0		(add r7, r0, #0)
  10963a:	2300      	mov	r3, #0
  10963c:	2200      	mov	r2, #0
  10963e:	2400      	mov	r4, #0
  109640:	9304      	str	r3, [sp, #16]
  109642:	9301      	str	r3, [sp, #4]
  109644:	9302      	str	r3, [sp, #8]
  109646:	9103      	str	r1, [sp, #12]
  109648:	e004      	b	109654 <fat_DiscToLogicCluster+0x28>
  10964a:	9b02      	ldr	r3, [sp, #8]
  10964c:	42b3      	cmp	r3, r6
  10964e:	d100      	bne	109652 <fat_DiscToLogicCluster+0x26>
  109650:	9c01      	ldr	r4, [sp, #4]
  109652:	1c2a      	mov	r2, r5		(add r2, r5, #0)
  109654:	1c38      	mov	r0, r7		(add r0, r7, #0)
  109656:	4669      	mov	r1, sp
  109658:	1c55      	add	r5, r2, #1
  10965a:	ff73f7ff 	bl	109544 <fat_LogicToDiscCluster>
  10965e:	0400      	lsl	r0, r0, #16
  109660:	2800      	cmp	r0, #0
  109662:	d101      	bne	109668 <fat_DiscToLogicCluster+0x3c>
  109664:	2c00      	cmp	r4, #0
  109666:	d0f0      	beq	10964a <fat_DiscToLogicCluster+0x1e>
  109668:	1c20      	mov	r0, r4		(add r0, r4, #0)
  10966a:	b006      	add	sp, #24
  10966c:	bcf0      	pop	{r4, r5, r6, r7}
  10966e:	bc02      	pop	{r1}
  109670:	4708      	bx	r1
	...

00109674 <fat_countFreeClusters>:
  109674:	b570      	push	{r4, r5, r6, lr}
  109676:	1c06      	mov	r6, r0		(add r6, r0, #0)
  109678:	2402      	mov	r4, #2
  10967a:	2500      	mov	r5, #0
  10967c:	e008      	b	109690 <fat_countFreeClusters+0x1c>
  10967e:	1c30      	mov	r0, r6		(add r0, r6, #0)
  109680:	1c21      	mov	r1, r4		(add r1, r4, #0)
  109682:	2200      	mov	r2, #0
  109684:	fd28f7ff 	bl	1090d8 <fat_getNextClusterAddress>
  109688:	2800      	cmp	r0, #0
  10968a:	d100      	bne	10968e <fat_countFreeClusters+0x1a>
  10968c:	3501      	add	r5, #1
  10968e:	3401      	add	r4, #1
  109690:	6a33      	ldr	r3, [r6, #32]
  109692:	3301      	add	r3, #1
  109694:	429c      	cmp	r4, r3
  109696:	d9f2      	bls	10967e <fat_countFreeClusters+0xa>
  109698:	1c28      	mov	r0, r5		(add r0, r5, #0)
  10969a:	bc70      	pop	{r4, r5, r6}
  10969c:	bc02      	pop	{r1}
  10969e:	4708      	bx	r1

001096a0 <fat_allocClusterChain>:
  1096a0:	b5f0      	push	{r4, r5, r6, r7, lr}
  1096a2:	68cb      	ldr	r3, [r1, #12]
  1096a4:	b085      	sub	sp, #20
  1096a6:	1c05      	mov	r5, r0		(add r5, r0, #0)
  1096a8:	9101      	str	r1, [sp, #4]
  1096aa:	9200      	str	r2, [sp, #0]
  1096ac:	2b01      	cmp	r3, #1
  1096ae:	d802      	bhi	1096b6 <fat_allocClusterChain+0x16>
  1096b0:	0413      	lsl	r3, r2, #16
  1096b2:	1418      	asr	r0, r3, #16
  1096b4:	e0a8      	b	109808 <fat_allocClusterChain+0x168>
  1096b6:	9901      	ldr	r1, [sp, #4]
  1096b8:	fb30f7ff 	bl	108d1c <fs_getLastCluster>
  1096bc:	9900      	ldr	r1, [sp, #0]
  1096be:	1c07      	mov	r7, r0		(add r7, r0, #0)
  1096c0:	2900      	cmp	r1, #0
  1096c2:	d100      	bne	1096c6 <fat_allocClusterChain+0x26>
  1096c4:	e097      	b	1097f6 <fat_allocClusterChain+0x156>
  1096c6:	2200      	mov	r2, #0
  1096c8:	9102      	str	r1, [sp, #8]
  1096ca:	9204      	str	r2, [sp, #16]
  1096cc:	1c06      	mov	r6, r0		(add r6, r0, #0)
  1096ce:	6a2b      	ldr	r3, [r5, #32]
  1096d0:	3601      	add	r6, #1
  1096d2:	3301      	add	r3, #1
  1096d4:	429e      	cmp	r6, r3
  1096d6:	d335      	bcc	109744 <fat_allocClusterChain+0xa4>
  1096d8:	9b04      	ldr	r3, [sp, #16]
  1096da:	2b00      	cmp	r3, #0
  1096dc:	d02f      	beq	10973e <fat_allocClusterChain+0x9e>
  1096de:	1c39      	mov	r1, r7		(add r1, r7, #0)
  1096e0:	1c28      	mov	r0, r5		(add r0, r5, #0)
  1096e2:	fcddf7ff 	bl	1090a0 <fat_getSectorAddressFatEntry>
  1096e6:	682c      	ldr	r4, [r5, #0]
  1096e8:	1c01      	mov	r1, r0		(add r1, r0, #0)
  1096ea:	2202      	mov	r2, #2
  1096ec:	1c20      	mov	r0, r4		(add r0, r4, #0)
  1096ee:	f951f7ff 	bl	108994 <part_getSect>
  1096f2:	1c2b      	mov	r3, r5		(add r3, r5, #0)
  1096f4:	333c      	add	r3, #60
  1096f6:	781b      	ldrb	r3, [r3, #0]
  1096f8:	1c04      	mov	r4, r0		(add r4, r0, #0)
  1096fa:	2b02      	cmp	r3, #2
  1096fc:	d00a      	beq	109714 <fat_allocClusterChain+0x74>
  1096fe:	2b03      	cmp	r3, #3
  109700:	d002      	beq	109708 <fat_allocClusterChain+0x68>
  109702:	2b01      	cmp	r3, #1
  109704:	d102      	bne	10970c <fat_allocClusterChain+0x6c>
  109706:	e003      	b	109710 <fat_allocClusterChain+0x70>
  109708:	4a41      	ldr	r2, [pc, #260]	(109810 <.text+0x9810>)
  10970a:	e004      	b	109716 <fat_allocClusterChain+0x76>
  10970c:	2200      	mov	r2, #0
  10970e:	e002      	b	109716 <fat_allocClusterChain+0x76>
  109710:	4a40      	ldr	r2, [pc, #256]	(109814 <.text+0x9814>)
  109712:	e000      	b	109716 <fat_allocClusterChain+0x76>
  109714:	4a40      	ldr	r2, [pc, #256]	(109818 <.text+0x9818>)
  109716:	1c23      	mov	r3, r4		(add r3, r4, #0)
  109718:	1c28      	mov	r0, r5		(add r0, r5, #0)
  10971a:	1c39      	mov	r1, r7		(add r1, r7, #0)
  10971c:	fe4af7ff 	bl	1093b4 <fat_setNextClusterAddressWBuf>
  109720:	9901      	ldr	r1, [sp, #4]
  109722:	6828      	ldr	r0, [r5, #0]
  109724:	610f      	str	r7, [r1, #16]
  109726:	1c21      	mov	r1, r4		(add r1, r4, #0)
  109728:	f902f7ff 	bl	108930 <part_relSect>
  10972c:	9b00      	ldr	r3, [sp, #0]
  10972e:	9902      	ldr	r1, [sp, #8]
  109730:	1a5a      	sub	r2, r3, r1
  109732:	6b6b      	ldr	r3, [r5, #52]
  109734:	1a9b      	sub	r3, r3, r2
  109736:	0412      	lsl	r2, r2, #16
  109738:	1410      	asr	r0, r2, #16
  10973a:	636b      	str	r3, [r5, #52]
  10973c:	e064      	b	109808 <fat_allocClusterChain+0x168>
  10973e:	2201      	mov	r2, #1
  109740:	9204      	str	r2, [sp, #16]
  109742:	2602      	mov	r6, #2
  109744:	1c31      	mov	r1, r6		(add r1, r6, #0)
  109746:	1c28      	mov	r0, r5		(add r0, r5, #0)
  109748:	fcaaf7ff 	bl	1090a0 <fat_getSectorAddressFatEntry>
  10974c:	682c      	ldr	r4, [r5, #0]
  10974e:	1c01      	mov	r1, r0		(add r1, r0, #0)
  109750:	2201      	mov	r2, #1
  109752:	1c20      	mov	r0, r4		(add r0, r4, #0)
  109754:	f91ef7ff 	bl	108994 <part_getSect>
  109758:	9003      	str	r0, [sp, #12]
  10975a:	1c31      	mov	r1, r6		(add r1, r6, #0)
  10975c:	1c28      	mov	r0, r5		(add r0, r5, #0)
  10975e:	9a03      	ldr	r2, [sp, #12]
  109760:	fddcf7ff 	bl	10931c <fat_getNextClusterAddressWBuf>
  109764:	2800      	cmp	r0, #0
  109766:	d118      	bne	10979a <fat_allocClusterChain+0xfa>
  109768:	1c39      	mov	r1, r7		(add r1, r7, #0)
  10976a:	1c28      	mov	r0, r5		(add r0, r5, #0)
  10976c:	fc98f7ff 	bl	1090a0 <fat_getSectorAddressFatEntry>
  109770:	682c      	ldr	r4, [r5, #0]
  109772:	1c01      	mov	r1, r0		(add r1, r0, #0)
  109774:	2202      	mov	r2, #2
  109776:	1c20      	mov	r0, r4		(add r0, r4, #0)
  109778:	f90cf7ff 	bl	108994 <part_getSect>
  10977c:	1c04      	mov	r4, r0		(add r4, r0, #0)
  10977e:	1c39      	mov	r1, r7		(add r1, r7, #0)
  109780:	1c23      	mov	r3, r4		(add r3, r4, #0)
  109782:	1c28      	mov	r0, r5		(add r0, r5, #0)
  109784:	1c32      	mov	r2, r6		(add r2, r6, #0)
  109786:	fe15f7ff 	bl	1093b4 <fat_setNextClusterAddressWBuf>
  10978a:	6828      	ldr	r0, [r5, #0]
  10978c:	1c21      	mov	r1, r4		(add r1, r4, #0)
  10978e:	f8cff7ff 	bl	108930 <part_relSect>
  109792:	9b02      	ldr	r3, [sp, #8]
  109794:	3b01      	sub	r3, #1
  109796:	9302      	str	r3, [sp, #8]
  109798:	1c37      	mov	r7, r6		(add r7, r6, #0)
  10979a:	9903      	ldr	r1, [sp, #12]
  10979c:	6828      	ldr	r0, [r5, #0]
  10979e:	f8c7f7ff 	bl	108930 <part_relSect>
  1097a2:	9902      	ldr	r1, [sp, #8]
  1097a4:	2900      	cmp	r1, #0
  1097a6:	d192      	bne	1096ce <fat_allocClusterChain+0x2e>
  1097a8:	1c39      	mov	r1, r7		(add r1, r7, #0)
  1097aa:	1c28      	mov	r0, r5		(add r0, r5, #0)
  1097ac:	fc78f7ff 	bl	1090a0 <fat_getSectorAddressFatEntry>
  1097b0:	682c      	ldr	r4, [r5, #0]
  1097b2:	1c01      	mov	r1, r0		(add r1, r0, #0)
  1097b4:	2202      	mov	r2, #2
  1097b6:	1c20      	mov	r0, r4		(add r0, r4, #0)
  1097b8:	f8ecf7ff 	bl	108994 <part_getSect>
  1097bc:	1c2b      	mov	r3, r5		(add r3, r5, #0)
  1097be:	333c      	add	r3, #60
  1097c0:	781b      	ldrb	r3, [r3, #0]
  1097c2:	1c04      	mov	r4, r0		(add r4, r0, #0)
  1097c4:	2b02      	cmp	r3, #2
  1097c6:	d00a      	beq	1097de <fat_allocClusterChain+0x13e>
  1097c8:	2b03      	cmp	r3, #3
  1097ca:	d002      	beq	1097d2 <fat_allocClusterChain+0x132>
  1097cc:	2b01      	cmp	r3, #1
  1097ce:	d102      	bne	1097d6 <fat_allocClusterChain+0x136>
  1097d0:	e003      	b	1097da <fat_allocClusterChain+0x13a>
  1097d2:	4a0f      	ldr	r2, [pc, #60]	(109810 <.text+0x9810>)
  1097d4:	e004      	b	1097e0 <fat_allocClusterChain+0x140>
  1097d6:	2200      	mov	r2, #0
  1097d8:	e002      	b	1097e0 <fat_allocClusterChain+0x140>
  1097da:	4a0e      	ldr	r2, [pc, #56]	(109814 <.text+0x9814>)
  1097dc:	e000      	b	1097e0 <fat_allocClusterChain+0x140>
  1097de:	4a0e      	ldr	r2, [pc, #56]	(109818 <.text+0x9818>)
  1097e0:	1c28      	mov	r0, r5		(add r0, r5, #0)
  1097e2:	1c39      	mov	r1, r7		(add r1, r7, #0)
  1097e4:	1c23      	mov	r3, r4		(add r3, r4, #0)
  1097e6:	fde5f7ff 	bl	1093b4 <fat_setNextClusterAddressWBuf>
  1097ea:	9a01      	ldr	r2, [sp, #4]
  1097ec:	6828      	ldr	r0, [r5, #0]
  1097ee:	6117      	str	r7, [r2, #16]
  1097f0:	1c21      	mov	r1, r4		(add r1, r4, #0)
  1097f2:	f89df7ff 	bl	108930 <part_relSect>
  1097f6:	9901      	ldr	r1, [sp, #4]
  1097f8:	694b      	ldr	r3, [r1, #20]
  1097fa:	2b00      	cmp	r3, #0
  1097fc:	d003      	beq	109806 <fat_allocClusterChain+0x166>
  1097fe:	9a00      	ldr	r2, [sp, #0]
  109800:	9901      	ldr	r1, [sp, #4]
  109802:	189b      	add	r3, r3, r2
  109804:	614b      	str	r3, [r1, #20]
  109806:	2000      	mov	r0, #0
  109808:	b005      	add	sp, #20
  10980a:	bcf0      	pop	{r4, r5, r6, r7}
  10980c:	bc02      	pop	{r1}
  10980e:	4708      	bx	r1
  109810:	ffff      	second half of BL instruction 0xffff
  109812:	0fff      	lsr	r7, r7, #31
  109814:	0fff      	lsr	r7, r7, #31
  109816:	0000      	lsl	r0, r0, #0
  109818:	ffff      	second half of BL instruction 0xffff
	...

0010981c <file_getAttr>:
  10981c:	1c03      	mov	r3, r0		(add r3, r0, #0)
  10981e:	0609      	lsl	r1, r1, #24
  109820:	3344      	add	r3, #68
  109822:	0e09      	lsr	r1, r1, #24
  109824:	781b      	ldrb	r3, [r3, #0]
  109826:	2001      	mov	r0, #1
  109828:	4088      	lsl	r0, r1
  10982a:	4018      	and	r0, r3
  10982c:	0600      	lsl	r0, r0, #24
  10982e:	0e00      	lsr	r0, r0, #24
  109830:	4770      	bx	lr
	...

00109834 <file_setpos>:
  109834:	6cc3      	ldr	r3, [r0, #76]
  109836:	4299      	cmp	r1, r3
  109838:	d902      	bls	109840 <file_setpos+0xc>
  10983a:	2001      	mov	r0, #1
  10983c:	4240      	neg	r0, r0
  10983e:	e001      	b	109844 <file_setpos+0x10>
  109840:	6481      	str	r1, [r0, #72]
  109842:	2000      	mov	r0, #0
  109844:	4770      	bx	lr
	...

00109848 <file_initFile>:
  109848:	69c3      	ldr	r3, [r0, #28]
  10984a:	6281      	str	r1, [r0, #40]
  10984c:	2100      	mov	r1, #0
  10984e:	64c3      	str	r3, [r0, #76]
  109850:	6481      	str	r1, [r0, #72]
  109852:	6813      	ldr	r3, [r2, #0]
  109854:	6203      	str	r3, [r0, #32]
  109856:	7912      	ldrb	r2, [r2, #4]
  109858:	1d43      	add	r3, r0, #5
  10985a:	77da      	strb	r2, [r3, #31]
  10985c:	3327      	add	r3, #39
  10985e:	7019      	strb	r1, [r3, #0]
  109860:	8a83      	ldrh	r3, [r0, #20]
  109862:	8b42      	ldrh	r2, [r0, #26]
  109864:	041b      	lsl	r3, r3, #16
  109866:	189b      	add	r3, r3, r2
  109868:	6383      	str	r3, [r0, #56]
  10986a:	63c1      	str	r1, [r0, #60]
  10986c:	6301      	str	r1, [r0, #48]
  10986e:	6343      	str	r3, [r0, #52]
  109870:	6401      	str	r1, [r0, #64]
  109872:	4770      	bx	lr

00109874 <file_setAttr>:
  109874:	0609      	lsl	r1, r1, #24
  109876:	0612      	lsl	r2, r2, #24
  109878:	0e09      	lsr	r1, r1, #24
  10987a:	3044      	add	r0, #68
  10987c:	2a00      	cmp	r2, #0
  10987e:	d004      	beq	10988a <file_setAttr+0x16>
  109880:	2301      	mov	r3, #1
  109882:	7802      	ldrb	r2, [r0, #0]
  109884:	408b      	lsl	r3, r1
  109886:	4313      	orr	r3, r2
  109888:	e003      	b	109892 <file_setAttr+0x1e>
  10988a:	2201      	mov	r2, #1
  10988c:	7803      	ldrb	r3, [r0, #0]
  10988e:	408a      	lsl	r2, r1
  109890:	4393      	bic	r3, r2
  109892:	7003      	strb	r3, [r0, #0]
  109894:	4770      	bx	lr
	...

00109898 <file_validateChar>:
  109898:	0600      	lsl	r0, r0, #24
  10989a:	0e00      	lsr	r0, r0, #24
  10989c:	281f      	cmp	r0, #31
  10989e:	d924      	bls	1098ea <file_validateChar+0x52>
  1098a0:	1c03      	mov	r3, r0		(add r3, r0, #0)
  1098a2:	3b21      	sub	r3, #33
  1098a4:	061b      	lsl	r3, r3, #24
  1098a6:	0e1b      	lsr	r3, r3, #24
  1098a8:	2b0e      	cmp	r3, #14
  1098aa:	d801      	bhi	1098b0 <file_validateChar+0x18>
  1098ac:	282d      	cmp	r0, #45
  1098ae:	d11c      	bne	1098ea <file_validateChar+0x52>
  1098b0:	1c03      	mov	r3, r0		(add r3, r0, #0)
  1098b2:	3b3a      	sub	r3, #58
  1098b4:	061b      	lsl	r3, r3, #24
  1098b6:	0e1b      	lsr	r3, r3, #24
  1098b8:	2b06      	cmp	r3, #6
  1098ba:	d916      	bls	1098ea <file_validateChar+0x52>
  1098bc:	1c03      	mov	r3, r0		(add r3, r0, #0)
  1098be:	3b5b      	sub	r3, #91
  1098c0:	061b      	lsl	r3, r3, #24
  1098c2:	0e1b      	lsr	r3, r3, #24
  1098c4:	2b05      	cmp	r3, #5
  1098c6:	d801      	bhi	1098cc <file_validateChar+0x34>
  1098c8:	285f      	cmp	r0, #95
  1098ca:	d10e      	bne	1098ea <file_validateChar+0x52>
  1098cc:	287a      	cmp	r0, #122
  1098ce:	d901      	bls	1098d4 <file_validateChar+0x3c>
  1098d0:	287e      	cmp	r0, #126
  1098d2:	d10a      	bne	1098ea <file_validateChar+0x52>
  1098d4:	1c03      	mov	r3, r0		(add r3, r0, #0)
  1098d6:	3b61      	sub	r3, #97
  1098d8:	061b      	lsl	r3, r3, #24
  1098da:	0e1b      	lsr	r3, r3, #24
  1098dc:	2b19      	cmp	r3, #25
  1098de:	d805      	bhi	1098ec <file_validateChar+0x54>
  1098e0:	1c03      	mov	r3, r0		(add r3, r0, #0)
  1098e2:	3b20      	sub	r3, #32
  1098e4:	061b      	lsl	r3, r3, #24
  1098e6:	0e18      	lsr	r0, r3, #24
  1098e8:	e000      	b	1098ec <file_validateChar+0x54>
  1098ea:	2058      	mov	r0, #88
  1098ec:	4770      	bx	lr
	...

001098f0 <file_normalToFatName>:
  1098f0:	b5f0      	push	{r4, r5, r6, r7, lr}
  1098f2:	b081      	sub	sp, #4
  1098f4:	1c04      	mov	r4, r0		(add r4, r0, #0)
  1098f6:	1c0e      	mov	r6, r1		(add r6, r1, #0)
  1098f8:	2200      	mov	r2, #0
  1098fa:	2320      	mov	r3, #32
  1098fc:	5593      	strb	r3, [r2, r6]
  1098fe:	3201      	add	r2, #1
  109900:	2a0b      	cmp	r2, #11
  109902:	d1fa      	bne	1098fa <file_normalToFatName+0xa>
  109904:	7823      	ldrb	r3, [r4, #0]
  109906:	2b2e      	cmp	r3, #46
  109908:	d004      	beq	109914 <file_normalToFatName+0x24>
  10990a:	2300      	mov	r3, #0
  10990c:	2700      	mov	r7, #0
  10990e:	2500      	mov	r5, #0
  109910:	9300      	str	r3, [sp, #0]
  109912:	e028      	b	109966 <file_normalToFatName+0x76>
  109914:	7033      	strb	r3, [r6, #0]
  109916:	7863      	ldrb	r3, [r4, #1]
  109918:	1c60      	add	r0, r4, #1
  10991a:	2b2e      	cmp	r3, #46
  10991c:	d12f      	bne	10997e <file_normalToFatName+0x8e>
  10991e:	1ca0      	add	r0, r4, #2
  109920:	7073      	strb	r3, [r6, #1]
  109922:	e02c      	b	10997e <file_normalToFatName+0x8e>
  109924:	282e      	cmp	r0, #46
  109926:	d106      	bne	109936 <file_normalToFatName+0x46>
  109928:	9b00      	ldr	r3, [sp, #0]
  10992a:	2b00      	cmp	r3, #0
  10992c:	d106      	bne	10993c <file_normalToFatName+0x4c>
  10992e:	2301      	mov	r3, #1
  109930:	2508      	mov	r5, #8
  109932:	9300      	str	r3, [sp, #0]
  109934:	e016      	b	109964 <file_normalToFatName+0x74>
  109936:	9b00      	ldr	r3, [sp, #0]
  109938:	2b00      	cmp	r3, #0
  10993a:	d008      	beq	10994e <file_normalToFatName+0x5e>
  10993c:	2d0a      	cmp	r5, #10
  10993e:	d811      	bhi	109964 <file_normalToFatName+0x74>
  109940:	ffaaf7ff 	bl	109898 <file_validateChar>
  109944:	1c6b      	add	r3, r5, #1
  109946:	061b      	lsl	r3, r3, #24
  109948:	5570      	strb	r0, [r6, r5]
  10994a:	0e1d      	lsr	r5, r3, #24
  10994c:	e00a      	b	109964 <file_normalToFatName+0x74>
  10994e:	2d07      	cmp	r5, #7
  109950:	d808      	bhi	109964 <file_normalToFatName+0x74>
  109952:	ffa1f7ff 	bl	109898 <file_validateChar>
  109956:	1c6b      	add	r3, r5, #1
  109958:	061b      	lsl	r3, r3, #24
  10995a:	5570      	strb	r0, [r6, r5]
  10995c:	0e1d      	lsr	r5, r3, #24
  10995e:	1c7b      	add	r3, r7, #1
  109960:	061b      	lsl	r3, r3, #24
  109962:	0e1f      	lsr	r7, r3, #24
  109964:	3401      	add	r4, #1
  109966:	7820      	ldrb	r0, [r4, #0]
  109968:	2800      	cmp	r0, #0
  10996a:	d003      	beq	109974 <file_normalToFatName+0x84>
  10996c:	2820      	cmp	r0, #32
  10996e:	d001      	beq	109974 <file_normalToFatName+0x84>
  109970:	282f      	cmp	r0, #47
  109972:	d1d7      	bne	109924 <file_normalToFatName+0x34>
  109974:	2f00      	cmp	r7, #0
  109976:	d101      	bne	10997c <file_normalToFatName+0x8c>
  109978:	2000      	mov	r0, #0
  10997a:	e004      	b	109986 <file_normalToFatName+0x96>
  10997c:	1c20      	mov	r0, r4		(add r0, r4, #0)
  10997e:	7803      	ldrb	r3, [r0, #0]
  109980:	2b00      	cmp	r3, #0
  109982:	d000      	beq	109986 <file_normalToFatName+0x96>
  109984:	3001      	add	r0, #1
  109986:	b001      	add	sp, #4
  109988:	bcf0      	pop	{r4, r5, r6, r7}
  10998a:	bc02      	pop	{r1}
  10998c:	4708      	bx	r1
	...

00109990 <file_requiredCluster>:
  109990:	b5f0      	push	{r4, r5, r6, r7, lr}
  109992:	6cc3      	ldr	r3, [r0, #76]
  109994:	b082      	sub	sp, #8
  109996:	1c17      	mov	r7, r2		(add r7, r2, #0)
  109998:	188a      	add	r2, r1, r2
  10999a:	1c04      	mov	r4, r0		(add r4, r0, #0)
  10999c:	9100      	str	r1, [sp, #0]
  10999e:	9201      	str	r2, [sp, #4]
  1099a0:	429a      	cmp	r2, r3
  1099a2:	d925      	bls	1099f0 <file_requiredCluster+0x60>
  1099a4:	6c06      	ldr	r6, [r0, #64]
  1099a6:	2e00      	cmp	r6, #0
  1099a8:	d105      	bne	1099b6 <file_requiredCluster+0x26>
  1099aa:	6a80      	ldr	r0, [r0, #40]
  1099ac:	6ba1      	ldr	r1, [r4, #56]
  1099ae:	fe1df7ff 	bl	1095ec <fat_countClustersInChain>
  1099b2:	6420      	str	r0, [r4, #64]
  1099b4:	1c06      	mov	r6, r0		(add r6, r0, #0)
  1099b6:	6aa3      	ldr	r3, [r4, #40]
  1099b8:	889a      	ldrh	r2, [r3, #4]
  1099ba:	799b      	ldrb	r3, [r3, #6]
  1099bc:	1c1d      	mov	r5, r3		(add r5, r3, #0)
  1099be:	4355      	mul	r5, r2
  1099c0:	6ce0      	ldr	r0, [r4, #76]
  1099c2:	9b00      	ldr	r3, [sp, #0]
  1099c4:	1a3c      	sub	r4, r7, r0
  1099c6:	1940      	add	r0, r0, r5
  1099c8:	3801      	sub	r0, #1
  1099ca:	1c29      	mov	r1, r5		(add r1, r5, #0)
  1099cc:	18e4      	add	r4, r4, r3
  1099ce:	f875f7fe 	bl	107abc <__udivsi3>
  1099d2:	1a30      	sub	r0, r6, r0
  1099d4:	1c2b      	mov	r3, r5		(add r3, r5, #0)
  1099d6:	4343      	mul	r3, r0
  1099d8:	429c      	cmp	r4, r3
  1099da:	d909      	bls	1099f0 <file_requiredCluster+0x60>
  1099dc:	1c28      	mov	r0, r5		(add r0, r5, #0)
  1099de:	4370      	mul	r0, r6
  1099e0:	9a01      	ldr	r2, [sp, #4]
  1099e2:	1a10      	sub	r0, r2, r0
  1099e4:	1940      	add	r0, r0, r5
  1099e6:	1c29      	mov	r1, r5		(add r1, r5, #0)
  1099e8:	3801      	sub	r0, #1
  1099ea:	f867f7fe 	bl	107abc <__udivsi3>
  1099ee:	e000      	b	1099f2 <file_requiredCluster+0x62>
  1099f0:	2000      	mov	r0, #0
  1099f2:	b002      	add	sp, #8
  1099f4:	bcf0      	pop	{r4, r5, r6, r7}
  1099f6:	bc02      	pop	{r1}
  1099f8:	4708      	bx	r1
	...

001099fc <file_fread>:
  1099fc:	b5f0      	push	{r4, r5, r6, r7, lr}
  1099fe:	1c05      	mov	r5, r0		(add r5, r0, #0)
  109a00:	b086      	sub	sp, #24
  109a02:	9300      	str	r3, [sp, #0]
  109a04:	1c2b      	mov	r3, r5		(add r3, r5, #0)
  109a06:	3344      	add	r3, #68
  109a08:	1c08      	mov	r0, r1		(add r0, r1, #0)
  109a0a:	1c11      	mov	r1, r2		(add r1, r2, #0)
  109a0c:	781a      	ldrb	r2, [r3, #0]
  109a0e:	2301      	mov	r3, #1
  109a10:	4213      	tst	r3, r2
  109a12:	d06b      	beq	109aec <file_fread+0xf0>
  109a14:	6cea      	ldr	r2, [r5, #76]
  109a16:	4290      	cmp	r0, r2
  109a18:	d302      	bcc	109a20 <file_fread+0x24>
  109a1a:	2300      	mov	r3, #0
  109a1c:	9302      	str	r3, [sp, #8]
  109a1e:	e000      	b	109a22 <file_fread+0x26>
  109a20:	9102      	str	r1, [sp, #8]
  109a22:	1843      	add	r3, r0, r1
  109a24:	4293      	cmp	r3, r2
  109a26:	d803      	bhi	109a30 <file_fread+0x34>
  109a28:	2400      	mov	r4, #0
  109a2a:	9003      	str	r0, [sp, #12]
  109a2c:	9401      	str	r4, [sp, #4]
  109a2e:	e059      	b	109ae4 <file_fread+0xe8>
  109a30:	9b02      	ldr	r3, [sp, #8]
  109a32:	2b00      	cmp	r3, #0
  109a34:	d05a      	beq	109aec <file_fread+0xf0>
  109a36:	1a12      	sub	r2, r2, r0
  109a38:	9202      	str	r2, [sp, #8]
  109a3a:	e7f5      	b	109a28 <file_fread+0x2c>
  109a3c:	6aaf      	ldr	r7, [r5, #40]
  109a3e:	79bc      	ldrb	r4, [r7, #6]
  109a40:	9803      	ldr	r0, [sp, #12]
  109a42:	0261      	lsl	r1, r4, #9
  109a44:	f83af7fe 	bl	107abc <__udivsi3>
  109a48:	9a03      	ldr	r2, [sp, #12]
  109a4a:	9004      	str	r0, [sp, #16]
  109a4c:	1c21      	mov	r1, r4		(add r1, r4, #0)
  109a4e:	0a50      	lsr	r0, r2, #9
  109a50:	f8ccf7fe 	bl	107bec <__umodsi3>
  109a54:	4b29      	ldr	r3, [pc, #164]	(109afc <.text+0x9afc>)
  109a56:	1c04      	mov	r4, r0		(add r4, r0, #0)
  109a58:	9803      	ldr	r0, [sp, #12]
  109a5a:	4018      	and	r0, r3
  109a5c:	9005      	str	r0, [sp, #20]
  109a5e:	d105      	bne	109a6c <file_fread+0x70>
  109a60:	9a02      	ldr	r2, [sp, #8]
  109a62:	429a      	cmp	r2, r3
  109a64:	d902      	bls	109a6c <file_fread+0x70>
  109a66:	2680      	mov	r6, #128
  109a68:	00b6      	lsl	r6, r6, #2
  109a6a:	e007      	b	109a7c <file_fread+0x80>
  109a6c:	2380      	mov	r3, #128
  109a6e:	9805      	ldr	r0, [sp, #20]
  109a70:	009b      	lsl	r3, r3, #2
  109a72:	9e02      	ldr	r6, [sp, #8]
  109a74:	1a1b      	sub	r3, r3, r0
  109a76:	429e      	cmp	r6, r3
  109a78:	d900      	bls	109a7c <file_fread+0x80>
  109a7a:	1c1e      	mov	r6, r3		(add r6, r3, #0)
  109a7c:	1c29      	mov	r1, r5		(add r1, r5, #0)
  109a7e:	312c      	add	r1, #44
  109a80:	1c38      	mov	r0, r7		(add r0, r7, #0)
  109a82:	9a04      	ldr	r2, [sp, #16]
  109a84:	fd5ef7ff 	bl	109544 <fat_LogicToDiscCluster>
  109a88:	0400      	lsl	r0, r0, #16
  109a8a:	2800      	cmp	r0, #0
  109a8c:	d12e      	bne	109aec <file_fread+0xf0>
  109a8e:	6b69      	ldr	r1, [r5, #52]
  109a90:	6aa8      	ldr	r0, [r5, #40]
  109a92:	f8e1f7ff 	bl	108c58 <fs_clusterToSector>
  109a96:	2380      	mov	r3, #128
  109a98:	1901      	add	r1, r0, r4
  109a9a:	9c00      	ldr	r4, [sp, #0]
  109a9c:	9801      	ldr	r0, [sp, #4]
  109a9e:	009b      	lsl	r3, r3, #2
  109aa0:	6aaa      	ldr	r2, [r5, #40]
  109aa2:	1827      	add	r7, r4, r0
  109aa4:	429e      	cmp	r6, r3
  109aa6:	d104      	bne	109ab2 <file_fread+0xb6>
  109aa8:	6810      	ldr	r0, [r2, #0]
  109aaa:	1c3a      	mov	r2, r7		(add r2, r7, #0)
  109aac:	ff96f7fe 	bl	1089dc <part_directSectorRead>
  109ab0:	e00f      	b	109ad2 <file_fread+0xd6>
  109ab2:	6810      	ldr	r0, [r2, #0]
  109ab4:	2201      	mov	r2, #1
  109ab6:	ff6df7fe 	bl	108994 <part_getSect>
  109aba:	9a05      	ldr	r2, [sp, #20]
  109abc:	1c04      	mov	r4, r0		(add r4, r0, #0)
  109abe:	1c39      	mov	r1, r7		(add r1, r7, #0)
  109ac0:	1880      	add	r0, r0, r2
  109ac2:	1c32      	mov	r2, r6		(add r2, r6, #0)
  109ac4:	faa6f001 	bl	10b014 <memCpy>
  109ac8:	6aab      	ldr	r3, [r5, #40]
  109aca:	1c21      	mov	r1, r4		(add r1, r4, #0)
  109acc:	6818      	ldr	r0, [r3, #0]
  109ace:	ff2ff7fe 	bl	108930 <part_relSect>
  109ad2:	9b03      	ldr	r3, [sp, #12]
  109ad4:	9c01      	ldr	r4, [sp, #4]
  109ad6:	9802      	ldr	r0, [sp, #8]
  109ad8:	199b      	add	r3, r3, r6
  109ada:	19a4      	add	r4, r4, r6
  109adc:	1b80      	sub	r0, r0, r6
  109ade:	9303      	str	r3, [sp, #12]
  109ae0:	9401      	str	r4, [sp, #4]
  109ae2:	9002      	str	r0, [sp, #8]
  109ae4:	9a02      	ldr	r2, [sp, #8]
  109ae6:	2a00      	cmp	r2, #0
  109ae8:	d1a8      	bne	109a3c <file_fread+0x40>
  109aea:	e001      	b	109af0 <file_fread+0xf4>
  109aec:	2300      	mov	r3, #0
  109aee:	9301      	str	r3, [sp, #4]
  109af0:	9801      	ldr	r0, [sp, #4]
  109af2:	b006      	add	sp, #24
  109af4:	bcf0      	pop	{r4, r5, r6, r7}
  109af6:	bc02      	pop	{r1}
  109af8:	4708      	bx	r1
  109afa:	0000      	lsl	r0, r0, #0
  109afc:	01ff      	lsl	r7, r7, #7
	...

00109b00 <file_read>:
  109b00:	b530      	push	{r4, r5, lr}
  109b02:	1c0d      	mov	r5, r1		(add r5, r1, #0)
  109b04:	1c13      	mov	r3, r2		(add r3, r2, #0)
  109b06:	6c81      	ldr	r1, [r0, #72]
  109b08:	1c2a      	mov	r2, r5		(add r2, r5, #0)
  109b0a:	1c04      	mov	r4, r0		(add r4, r0, #0)
  109b0c:	ff76f7ff 	bl	1099fc <file_fread>
  109b10:	6ca3      	ldr	r3, [r4, #72]
  109b12:	181b      	add	r3, r3, r0
  109b14:	64a3      	str	r3, [r4, #72]
  109b16:	bc30      	pop	{r4, r5}
  109b18:	bc02      	pop	{r1}
  109b1a:	4708      	bx	r1

00109b1c <file_fwrite>:
  109b1c:	b5f0      	push	{r4, r5, r6, r7, lr}
  109b1e:	b088      	sub	sp, #32
  109b20:	9300      	str	r3, [sp, #0]
  109b22:	1c03      	mov	r3, r0		(add r3, r0, #0)
  109b24:	3344      	add	r3, #68
  109b26:	781b      	ldrb	r3, [r3, #0]
  109b28:	1c05      	mov	r5, r0		(add r5, r0, #0)
  109b2a:	1c0c      	mov	r4, r1		(add r4, r1, #0)
  109b2c:	1c16      	mov	r6, r2		(add r6, r2, #0)
  109b2e:	07d8      	lsl	r0, r3, #31
  109b30:	d400      	bmi	109b34 <file_fwrite+0x18>
  109b32:	e08d      	b	109c50 <file_fwrite+0x134>
  109b34:	0799      	lsl	r1, r3, #30
  109b36:	d400      	bmi	109b3a <file_fwrite+0x1e>
  109b38:	e08a      	b	109c50 <file_fwrite+0x134>
  109b3a:	6cea      	ldr	r2, [r5, #76]
  109b3c:	9207      	str	r2, [sp, #28]
  109b3e:	4294      	cmp	r4, r2
  109b40:	d800      	bhi	109b44 <file_fwrite+0x28>
  109b42:	9407      	str	r4, [sp, #28]
  109b44:	1c32      	mov	r2, r6		(add r2, r6, #0)
  109b46:	1c28      	mov	r0, r5		(add r0, r5, #0)
  109b48:	9907      	ldr	r1, [sp, #28]
  109b4a:	ff21f7ff 	bl	109990 <file_requiredCluster>
  109b4e:	1c02      	mov	r2, r0		(add r2, r0, #0)
  109b50:	2800      	cmp	r0, #0
  109b52:	d104      	bne	109b5e <file_fwrite+0x42>
  109b54:	2300      	mov	r3, #0
  109b56:	9604      	str	r6, [sp, #16]
  109b58:	9406      	str	r4, [sp, #24]
  109b5a:	9305      	str	r3, [sp, #20]
  109b5c:	e061      	b	109c22 <file_fwrite+0x106>
  109b5e:	1c29      	mov	r1, r5		(add r1, r5, #0)
  109b60:	6aa8      	ldr	r0, [r5, #40]
  109b62:	312c      	add	r1, #44
  109b64:	3201      	add	r2, #1
  109b66:	fd9bf7ff 	bl	1096a0 <fat_allocClusterChain>
  109b6a:	0400      	lsl	r0, r0, #16
  109b6c:	2800      	cmp	r0, #0
  109b6e:	d0f1      	beq	109b54 <file_fwrite+0x38>
  109b70:	e06e      	b	109c50 <file_fwrite+0x134>
  109b72:	6aaf      	ldr	r7, [r5, #40]
  109b74:	79bc      	ldrb	r4, [r7, #6]
  109b76:	9806      	ldr	r0, [sp, #24]
  109b78:	0261      	lsl	r1, r4, #9
  109b7a:	ff9ff7fd 	bl	107abc <__udivsi3>
  109b7e:	9906      	ldr	r1, [sp, #24]
  109b80:	9001      	str	r0, [sp, #4]
  109b82:	0a48      	lsr	r0, r1, #9
  109b84:	1c21      	mov	r1, r4		(add r1, r4, #0)
  109b86:	f831f7fe 	bl	107bec <__umodsi3>
  109b8a:	4b35      	ldr	r3, [pc, #212]	(109c60 <.text+0x9c60>)
  109b8c:	9a06      	ldr	r2, [sp, #24]
  109b8e:	9002      	str	r0, [sp, #8]
  109b90:	401a      	and	r2, r3
  109b92:	9203      	str	r2, [sp, #12]
  109b94:	d105      	bne	109ba2 <file_fwrite+0x86>
  109b96:	9804      	ldr	r0, [sp, #16]
  109b98:	4298      	cmp	r0, r3
  109b9a:	d902      	bls	109ba2 <file_fwrite+0x86>
  109b9c:	2680      	mov	r6, #128
  109b9e:	00b6      	lsl	r6, r6, #2
  109ba0:	e009      	b	109bb6 <file_fwrite+0x9a>
  109ba2:	2380      	mov	r3, #128
  109ba4:	9903      	ldr	r1, [sp, #12]
  109ba6:	009b      	lsl	r3, r3, #2
  109ba8:	1a5a      	sub	r2, r3, r1
  109baa:	9b04      	ldr	r3, [sp, #16]
  109bac:	4293      	cmp	r3, r2
  109bae:	d900      	bls	109bb2 <file_fwrite+0x96>
  109bb0:	1c13      	mov	r3, r2		(add r3, r2, #0)
  109bb2:	041b      	lsl	r3, r3, #16
  109bb4:	0c1e      	lsr	r6, r3, #16
  109bb6:	1c29      	mov	r1, r5		(add r1, r5, #0)
  109bb8:	312c      	add	r1, #44
  109bba:	1c38      	mov	r0, r7		(add r0, r7, #0)
  109bbc:	9a01      	ldr	r2, [sp, #4]
  109bbe:	fcc1f7ff 	bl	109544 <fat_LogicToDiscCluster>
  109bc2:	0400      	lsl	r0, r0, #16
  109bc4:	6aac      	ldr	r4, [r5, #40]
  109bc6:	2800      	cmp	r0, #0
  109bc8:	d138      	bne	109c3c <file_fwrite+0x120>
  109bca:	6b69      	ldr	r1, [r5, #52]
  109bcc:	1c20      	mov	r0, r4		(add r0, r4, #0)
  109bce:	f843f7ff 	bl	108c58 <fs_clusterToSector>
  109bd2:	9a02      	ldr	r2, [sp, #8]
  109bd4:	2380      	mov	r3, #128
  109bd6:	1881      	add	r1, r0, r2
  109bd8:	9800      	ldr	r0, [sp, #0]
  109bda:	9a05      	ldr	r2, [sp, #20]
  109bdc:	009b      	lsl	r3, r3, #2
  109bde:	6aac      	ldr	r4, [r5, #40]
  109be0:	1887      	add	r7, r0, r2
  109be2:	429e      	cmp	r6, r3
  109be4:	d104      	bne	109bf0 <file_fwrite+0xd4>
  109be6:	6820      	ldr	r0, [r4, #0]
  109be8:	1c3a      	mov	r2, r7		(add r2, r7, #0)
  109bea:	ff09f7fe 	bl	108a00 <part_directSectorWrite>
  109bee:	e00f      	b	109c10 <file_fwrite+0xf4>
  109bf0:	6820      	ldr	r0, [r4, #0]
  109bf2:	2202      	mov	r2, #2
  109bf4:	fecef7fe 	bl	108994 <part_getSect>
  109bf8:	9b03      	ldr	r3, [sp, #12]
  109bfa:	1c04      	mov	r4, r0		(add r4, r0, #0)
  109bfc:	18c1      	add	r1, r0, r3
  109bfe:	1c32      	mov	r2, r6		(add r2, r6, #0)
  109c00:	1c38      	mov	r0, r7		(add r0, r7, #0)
  109c02:	fa07f001 	bl	10b014 <memCpy>
  109c06:	6aab      	ldr	r3, [r5, #40]
  109c08:	1c21      	mov	r1, r4		(add r1, r4, #0)
  109c0a:	6818      	ldr	r0, [r3, #0]
  109c0c:	fe90f7fe 	bl	108930 <part_relSect>
  109c10:	9806      	ldr	r0, [sp, #24]
  109c12:	9905      	ldr	r1, [sp, #20]
  109c14:	9a04      	ldr	r2, [sp, #16]
  109c16:	1980      	add	r0, r0, r6
  109c18:	1989      	add	r1, r1, r6
  109c1a:	1b92      	sub	r2, r2, r6
  109c1c:	9006      	str	r0, [sp, #24]
  109c1e:	9105      	str	r1, [sp, #20]
  109c20:	9204      	str	r2, [sp, #16]
  109c22:	9b04      	ldr	r3, [sp, #16]
  109c24:	2b00      	cmp	r3, #0
  109c26:	d1a4      	bne	109b72 <file_fwrite+0x56>
  109c28:	6cea      	ldr	r2, [r5, #76]
  109c2a:	9807      	ldr	r0, [sp, #28]
  109c2c:	9b05      	ldr	r3, [sp, #20]
  109c2e:	1a11      	sub	r1, r2, r0
  109c30:	428b      	cmp	r3, r1
  109c32:	d90f      	bls	109c54 <file_fwrite+0x138>
  109c34:	1a5b      	sub	r3, r3, r1
  109c36:	18d3      	add	r3, r2, r3
  109c38:	64eb      	str	r3, [r5, #76]
  109c3a:	e00b      	b	109c54 <file_fwrite+0x138>
  109c3c:	6cea      	ldr	r2, [r5, #76]
  109c3e:	9805      	ldr	r0, [sp, #20]
  109c40:	1c29      	mov	r1, r5		(add r1, r5, #0)
  109c42:	1812      	add	r2, r2, r0
  109c44:	64ea      	str	r2, [r5, #76]
  109c46:	3120      	add	r1, #32
  109c48:	1c20      	mov	r0, r4		(add r0, r4, #0)
  109c4a:	f993f000 	bl	109f74 <dir_setFileSize>
  109c4e:	e001      	b	109c54 <file_fwrite+0x138>
  109c50:	2100      	mov	r1, #0
  109c52:	9105      	str	r1, [sp, #20]
  109c54:	9805      	ldr	r0, [sp, #20]
  109c56:	b008      	add	sp, #32
  109c58:	bcf0      	pop	{r4, r5, r6, r7}
  109c5a:	bc02      	pop	{r1}
  109c5c:	4708      	bx	r1
  109c5e:	0000      	lsl	r0, r0, #0
  109c60:	01ff      	lsl	r7, r7, #7
	...

00109c64 <file_write>:
  109c64:	b530      	push	{r4, r5, lr}
  109c66:	1c0d      	mov	r5, r1		(add r5, r1, #0)
  109c68:	1c13      	mov	r3, r2		(add r3, r2, #0)
  109c6a:	6c81      	ldr	r1, [r0, #72]
  109c6c:	1c2a      	mov	r2, r5		(add r2, r5, #0)
  109c6e:	1c04      	mov	r4, r0		(add r4, r0, #0)
  109c70:	ff54f7ff 	bl	109b1c <file_fwrite>
  109c74:	6ca3      	ldr	r3, [r4, #72]
  109c76:	181b      	add	r3, r3, r0
  109c78:	64a3      	str	r3, [r4, #72]
  109c7a:	bc30      	pop	{r4, r5}
  109c7c:	bc02      	pop	{r1}
  109c7e:	4708      	bx	r1

00109c80 <file_fclose>:
  109c80:	b510      	push	{r4, lr}
  109c82:	1c04      	mov	r4, r0		(add r4, r0, #0)
  109c84:	f9f0f001 	bl	10b068 <fs_hasTimeSupport>
  109c88:	1c22      	mov	r2, r4		(add r2, r4, #0)
  109c8a:	3244      	add	r2, #68
  109c8c:	2800      	cmp	r0, #0
  109c8e:	d010      	beq	109cb2 <file_fclose+0x32>
  109c90:	2100      	mov	r1, #0
  109c92:	8261      	strh	r1, [r4, #18]
  109c94:	7812      	ldrb	r2, [r2, #0]
  109c96:	2302      	mov	r3, #2
  109c98:	4213      	tst	r3, r2
  109c9a:	d003      	beq	109ca4 <file_fclose+0x24>
  109c9c:	6ce3      	ldr	r3, [r4, #76]
  109c9e:	8321      	strh	r1, [r4, #24]
  109ca0:	61e3      	str	r3, [r4, #28]
  109ca2:	82e1      	strh	r1, [r4, #22]
  109ca4:	1c22      	mov	r2, r4		(add r2, r4, #0)
  109ca6:	6aa0      	ldr	r0, [r4, #40]
  109ca8:	3220      	add	r2, #32
  109caa:	1c21      	mov	r1, r4		(add r1, r4, #0)
  109cac:	f97cf000 	bl	109fa8 <dir_updateDirectoryEntry>
  109cb0:	e009      	b	109cc6 <file_fclose+0x46>
  109cb2:	7812      	ldrb	r2, [r2, #0]
  109cb4:	2302      	mov	r3, #2
  109cb6:	4213      	tst	r3, r2
  109cb8:	d005      	beq	109cc6 <file_fclose+0x46>
  109cba:	1c21      	mov	r1, r4		(add r1, r4, #0)
  109cbc:	6aa0      	ldr	r0, [r4, #40]
  109cbe:	3120      	add	r1, #32
  109cc0:	6ce2      	ldr	r2, [r4, #76]
  109cc2:	f957f000 	bl	109f74 <dir_setFileSize>
  109cc6:	1c20      	mov	r0, r4		(add r0, r4, #0)
  109cc8:	2150      	mov	r1, #80
  109cca:	f9b3f001 	bl	10b034 <memClr>
  109cce:	1c20      	mov	r0, r4		(add r0, r4, #0)
  109cd0:	2100      	mov	r1, #0
  109cd2:	2200      	mov	r2, #0
  109cd4:	fdcef7ff 	bl	109874 <file_setAttr>
  109cd8:	1c20      	mov	r0, r4		(add r0, r4, #0)
  109cda:	2101      	mov	r1, #1
  109cdc:	2200      	mov	r2, #0
  109cde:	fdc9f7ff 	bl	109874 <file_setAttr>
  109ce2:	2000      	mov	r0, #0
  109ce4:	bc10      	pop	{r4}
  109ce6:	bc02      	pop	{r1}
  109ce8:	4708      	bx	r1
	...

00109cec <file_fopen>:
  109cec:	b5f0      	push	{r4, r5, r6, r7, lr}
  109cee:	b08e      	sub	sp, #56
  109cf0:	1c0e      	mov	r6, r1		(add r6, r1, #0)
  109cf2:	061b      	lsl	r3, r3, #24
  109cf4:	2121      	mov	r1, #33
  109cf6:	1c05      	mov	r5, r0		(add r5, r0, #0)
  109cf8:	0e1c      	lsr	r4, r3, #24
  109cfa:	1c10      	mov	r0, r2		(add r0, r2, #0)
  109cfc:	4469      	add	r1, sp
  109cfe:	1c17      	mov	r7, r2		(add r7, r2, #0)
  109d00:	fa8cf000 	bl	10a21c <dir_getFatFileName>
  109d04:	2c72      	cmp	r4, #114
  109d06:	d005      	beq	109d14 <file_fopen+0x28>
  109d08:	2c77      	cmp	r4, #119
  109d0a:	d023      	beq	109d54 <file_fopen+0x68>
  109d0c:	2c61      	cmp	r4, #97
  109d0e:	d000      	beq	109d12 <file_fopen+0x26>
  109d10:	e0b9      	b	109e86 <file_fopen+0x19a>
  109d12:	e02f      	b	109d74 <file_fopen+0x88>
  109d14:	ac0b      	add	r4, sp, #44
  109d16:	1c30      	mov	r0, r6		(add r0, r6, #0)
  109d18:	1c39      	mov	r1, r7		(add r1, r7, #0)
  109d1a:	1c22      	mov	r2, r4		(add r2, r4, #0)
  109d1c:	2300      	mov	r3, #0
  109d1e:	f90df7ff 	bl	108f3c <fs_findFile>
  109d22:	0600      	lsl	r0, r0, #24
  109d24:	1600      	asr	r0, r0, #24
  109d26:	2801      	cmp	r0, #1
  109d28:	d001      	beq	109d2e <file_fopen+0x42>
  109d2a:	2001      	mov	r0, #1
  109d2c:	e0ae      	b	109e8c <file_fopen+0x1a0>
  109d2e:	1c30      	mov	r0, r6		(add r0, r6, #0)
  109d30:	1c29      	mov	r1, r5		(add r1, r5, #0)
  109d32:	1c22      	mov	r2, r4		(add r2, r4, #0)
  109d34:	f8b0f000 	bl	109e98 <dir_getFileStructure>
  109d38:	1c28      	mov	r0, r5		(add r0, r5, #0)
  109d3a:	1c31      	mov	r1, r6		(add r1, r6, #0)
  109d3c:	1c22      	mov	r2, r4		(add r2, r4, #0)
  109d3e:	fd83f7ff 	bl	109848 <file_initFile>
  109d42:	1c28      	mov	r0, r5		(add r0, r5, #0)
  109d44:	2100      	mov	r1, #0
  109d46:	2201      	mov	r2, #1
  109d48:	fd94f7ff 	bl	109874 <file_setAttr>
  109d4c:	1c28      	mov	r0, r5		(add r0, r5, #0)
  109d4e:	2101      	mov	r1, #1
  109d50:	2200      	mov	r2, #0
  109d52:	e094      	b	109e7e <file_fopen+0x192>
  109d54:	1c30      	mov	r0, r6		(add r0, r6, #0)
  109d56:	1c39      	mov	r1, r7		(add r1, r7, #0)
  109d58:	aa0b      	add	r2, sp, #44
  109d5a:	ab0d      	add	r3, sp, #52
  109d5c:	f8eef7ff 	bl	108f3c <fs_findFile>
  109d60:	0600      	lsl	r0, r0, #24
  109d62:	2800      	cmp	r0, #0
  109d64:	d001      	beq	109d6a <file_fopen+0x7e>
  109d66:	2002      	mov	r0, #2
  109d68:	e090      	b	109e8c <file_fopen+0x1a0>
  109d6a:	9b0d      	ldr	r3, [sp, #52]
  109d6c:	2b00      	cmp	r3, #0
  109d6e:	d100      	bne	109d72 <file_fopen+0x86>
  109d70:	e089      	b	109e86 <file_fopen+0x19a>
  109d72:	e03a      	b	109dea <file_fopen+0xfe>
  109d74:	1c30      	mov	r0, r6		(add r0, r6, #0)
  109d76:	1c39      	mov	r1, r7		(add r1, r7, #0)
  109d78:	aa0b      	add	r2, sp, #44
  109d7a:	2300      	mov	r3, #0
  109d7c:	f8def7ff 	bl	108f3c <fs_findFile>
  109d80:	0600      	lsl	r0, r0, #24
  109d82:	1600      	asr	r0, r0, #24
  109d84:	2801      	cmp	r0, #1
  109d86:	d130      	bne	109dea <file_fopen+0xfe>
  109d88:	1c30      	mov	r0, r6		(add r0, r6, #0)
  109d8a:	1c29      	mov	r1, r5		(add r1, r5, #0)
  109d8c:	aa0b      	add	r2, sp, #44
  109d8e:	f883f000 	bl	109e98 <dir_getFileStructure>
  109d92:	1c28      	mov	r0, r5		(add r0, r5, #0)
  109d94:	1c31      	mov	r1, r6		(add r1, r6, #0)
  109d96:	aa0b      	add	r2, sp, #44
  109d98:	fd56f7ff 	bl	109848 <file_initFile>
  109d9c:	6bab      	ldr	r3, [r5, #56]
  109d9e:	2b00      	cmp	r3, #0
  109da0:	d120      	bne	109de4 <file_fopen+0xf8>
  109da2:	6aac      	ldr	r4, [r5, #40]
  109da4:	1c20      	mov	r0, r4		(add r0, r4, #0)
  109da6:	ffb7f7fe 	bl	108d18 <fs_giveFreeClusterHint>
  109daa:	1c01      	mov	r1, r0		(add r1, r0, #0)
  109dac:	1c20      	mov	r0, r4		(add r0, r4, #0)
  109dae:	ff9ff7fe 	bl	108cf0 <fs_getNextFreeCluster>
  109db2:	1c29      	mov	r1, r5		(add r1, r5, #0)
  109db4:	1c02      	mov	r2, r0		(add r2, r0, #0)
  109db6:	900d      	str	r0, [sp, #52]
  109db8:	3120      	add	r1, #32
  109dba:	6aa8      	ldr	r0, [r5, #40]
  109dbc:	f8bcf000 	bl	109f38 <dir_setFirstCluster>
  109dc0:	990d      	ldr	r1, [sp, #52]
  109dc2:	1c28      	mov	r0, r5		(add r0, r5, #0)
  109dc4:	ffd4f7fe 	bl	108d70 <fs_setFirstClusterInDirEntry>
  109dc8:	1c30      	mov	r0, r6		(add r0, r6, #0)
  109dca:	9c0d      	ldr	r4, [sp, #52]
  109dcc:	fa8ef7ff 	bl	1092ec <fat_giveEocMarker>
  109dd0:	1c21      	mov	r1, r4		(add r1, r4, #0)
  109dd2:	1c02      	mov	r2, r0		(add r2, r0, #0)
  109dd4:	1c30      	mov	r0, r6		(add r0, r6, #0)
  109dd6:	f9e3f7ff 	bl	1091a0 <fat_setNextClusterAddress>
  109dda:	1c28      	mov	r0, r5		(add r0, r5, #0)
  109ddc:	1c31      	mov	r1, r6		(add r1, r6, #0)
  109dde:	aa0b      	add	r2, sp, #44
  109de0:	fd32f7ff 	bl	109848 <file_initFile>
  109de4:	6ceb      	ldr	r3, [r5, #76]
  109de6:	64ab      	str	r3, [r5, #72]
  109de8:	e041      	b	109e6e <file_fopen+0x182>
  109dea:	1c30      	mov	r0, r6		(add r0, r6, #0)
  109dec:	1c39      	mov	r1, r7		(add r1, r7, #0)
  109dee:	aa0b      	add	r2, sp, #44
  109df0:	2300      	mov	r3, #0
  109df2:	f91df7ff 	bl	109030 <fs_findFreeFile>
  109df6:	0400      	lsl	r0, r0, #16
  109df8:	2800      	cmp	r0, #0
  109dfa:	d046      	beq	109e8a <file_fopen+0x19e>
  109dfc:	466c      	mov	r4, sp
  109dfe:	3401      	add	r4, #1
  109e00:	2221      	mov	r2, #33
  109e02:	1c21      	mov	r1, r4		(add r1, r4, #0)
  109e04:	1c30      	mov	r0, r6		(add r0, r6, #0)
  109e06:	446a      	add	r2, sp
  109e08:	f876f000 	bl	109ef8 <dir_createDefaultEntry>
  109e0c:	1c21      	mov	r1, r4		(add r1, r4, #0)
  109e0e:	1c30      	mov	r0, r6		(add r0, r6, #0)
  109e10:	aa0b      	add	r2, sp, #44
  109e12:	f859f000 	bl	109ec8 <dir_createDirectoryEntry>
  109e16:	1c20      	mov	r0, r4		(add r0, r4, #0)
  109e18:	1c29      	mov	r1, r5		(add r1, r5, #0)
  109e1a:	2220      	mov	r2, #32
  109e1c:	f8faf001 	bl	10b014 <memCpy>
  109e20:	aa0b      	add	r2, sp, #44
  109e22:	1c31      	mov	r1, r6		(add r1, r6, #0)
  109e24:	1c28      	mov	r0, r5		(add r0, r5, #0)
  109e26:	fd0ff7ff 	bl	109848 <file_initFile>
  109e2a:	6aac      	ldr	r4, [r5, #40]
  109e2c:	1c20      	mov	r0, r4		(add r0, r4, #0)
  109e2e:	ff73f7fe 	bl	108d18 <fs_giveFreeClusterHint>
  109e32:	1c01      	mov	r1, r0		(add r1, r0, #0)
  109e34:	1c20      	mov	r0, r4		(add r0, r4, #0)
  109e36:	ff5bf7fe 	bl	108cf0 <fs_getNextFreeCluster>
  109e3a:	1c29      	mov	r1, r5		(add r1, r5, #0)
  109e3c:	1c02      	mov	r2, r0		(add r2, r0, #0)
  109e3e:	900d      	str	r0, [sp, #52]
  109e40:	3120      	add	r1, #32
  109e42:	6aa8      	ldr	r0, [r5, #40]
  109e44:	f878f000 	bl	109f38 <dir_setFirstCluster>
  109e48:	990d      	ldr	r1, [sp, #52]
  109e4a:	1c28      	mov	r0, r5		(add r0, r5, #0)
  109e4c:	ff90f7fe 	bl	108d70 <fs_setFirstClusterInDirEntry>
  109e50:	1c29      	mov	r1, r5		(add r1, r5, #0)
  109e52:	312c      	add	r1, #44
  109e54:	9a0d      	ldr	r2, [sp, #52]
  109e56:	1c30      	mov	r0, r6		(add r0, r6, #0)
  109e58:	ff82f7fe 	bl	108d60 <fs_initClusterChain>
  109e5c:	1c30      	mov	r0, r6		(add r0, r6, #0)
  109e5e:	9c0d      	ldr	r4, [sp, #52]
  109e60:	fa44f7ff 	bl	1092ec <fat_giveEocMarker>
  109e64:	1c21      	mov	r1, r4		(add r1, r4, #0)
  109e66:	1c02      	mov	r2, r0		(add r2, r0, #0)
  109e68:	1c30      	mov	r0, r6		(add r0, r6, #0)
  109e6a:	f999f7ff 	bl	1091a0 <fat_setNextClusterAddress>
  109e6e:	1c28      	mov	r0, r5		(add r0, r5, #0)
  109e70:	2100      	mov	r1, #0
  109e72:	2201      	mov	r2, #1
  109e74:	fcfef7ff 	bl	109874 <file_setAttr>
  109e78:	1c28      	mov	r0, r5		(add r0, r5, #0)
  109e7a:	2101      	mov	r1, #1
  109e7c:	2201      	mov	r2, #1
  109e7e:	fcf9f7ff 	bl	109874 <file_setAttr>
  109e82:	2000      	mov	r0, #0
  109e84:	e003      	b	109e8e <file_fopen+0x1a2>
  109e86:	2004      	mov	r0, #4
  109e88:	e000      	b	109e8c <file_fopen+0x1a0>
  109e8a:	2003      	mov	r0, #3
  109e8c:	4240      	neg	r0, r0
  109e8e:	b00e      	add	sp, #56
  109e90:	bcf0      	pop	{r4, r5, r6, r7}
  109e92:	bc02      	pop	{r1}
  109e94:	4708      	bx	r1
  109e96:	46c0      	nop			(mov r8, r8)

00109e98 <dir_getFileStructure>:
  109e98:	b5f0      	push	{r4, r5, r6, r7, lr}
  109e9a:	1c06      	mov	r6, r0		(add r6, r0, #0)
  109e9c:	1c0f      	mov	r7, r1		(add r7, r1, #0)
  109e9e:	1c14      	mov	r4, r2		(add r4, r2, #0)
  109ea0:	6811      	ldr	r1, [r2, #0]
  109ea2:	6800      	ldr	r0, [r0, #0]
  109ea4:	2201      	mov	r2, #1
  109ea6:	fd75f7fe 	bl	108994 <part_getSect>
  109eaa:	7921      	ldrb	r1, [r4, #4]
  109eac:	0149      	lsl	r1, r1, #5
  109eae:	1c05      	mov	r5, r0		(add r5, r0, #0)
  109eb0:	1809      	add	r1, r1, r0
  109eb2:	2220      	mov	r2, #32
  109eb4:	1c38      	mov	r0, r7		(add r0, r7, #0)
  109eb6:	fba3f7f8 	bl	102600 <memcpy>
  109eba:	6830      	ldr	r0, [r6, #0]
  109ebc:	1c29      	mov	r1, r5		(add r1, r5, #0)
  109ebe:	fd37f7fe 	bl	108930 <part_relSect>
  109ec2:	bcf0      	pop	{r4, r5, r6, r7}
  109ec4:	bc01      	pop	{r0}
  109ec6:	4700      	bx	r0

00109ec8 <dir_createDirectoryEntry>:
  109ec8:	b5f0      	push	{r4, r5, r6, r7, lr}
  109eca:	1c06      	mov	r6, r0		(add r6, r0, #0)
  109ecc:	1c0f      	mov	r7, r1		(add r7, r1, #0)
  109ece:	1c14      	mov	r4, r2		(add r4, r2, #0)
  109ed0:	6811      	ldr	r1, [r2, #0]
  109ed2:	6800      	ldr	r0, [r0, #0]
  109ed4:	2202      	mov	r2, #2
  109ed6:	fd5df7fe 	bl	108994 <part_getSect>
  109eda:	7921      	ldrb	r1, [r4, #4]
  109edc:	0149      	lsl	r1, r1, #5
  109ede:	1c05      	mov	r5, r0		(add r5, r0, #0)
  109ee0:	1841      	add	r1, r0, r1
  109ee2:	2220      	mov	r2, #32
  109ee4:	1c38      	mov	r0, r7		(add r0, r7, #0)
  109ee6:	f895f001 	bl	10b014 <memCpy>
  109eea:	6830      	ldr	r0, [r6, #0]
  109eec:	1c29      	mov	r1, r5		(add r1, r5, #0)
  109eee:	fd1ff7fe 	bl	108930 <part_relSect>
  109ef2:	bcf0      	pop	{r4, r5, r6, r7}
  109ef4:	bc01      	pop	{r0}
  109ef6:	4700      	bx	r0

00109ef8 <dir_createDefaultEntry>:
  109ef8:	b510      	push	{r4, lr}
  109efa:	1c10      	mov	r0, r2		(add r0, r2, #0)
  109efc:	220b      	mov	r2, #11
  109efe:	1c0c      	mov	r4, r1		(add r4, r1, #0)
  109f00:	f888f001 	bl	10b014 <memCpy>
  109f04:	2300      	mov	r3, #0
  109f06:	72e3      	strb	r3, [r4, #11]
  109f08:	7323      	strb	r3, [r4, #12]
  109f0a:	7363      	strb	r3, [r4, #13]
  109f0c:	2300      	mov	r3, #0
  109f0e:	73a3      	strb	r3, [r4, #14]
  109f10:	73e3      	strb	r3, [r4, #15]
  109f12:	7423      	strb	r3, [r4, #16]
  109f14:	7463      	strb	r3, [r4, #17]
  109f16:	74a3      	strb	r3, [r4, #18]
  109f18:	74e3      	strb	r3, [r4, #19]
  109f1a:	7523      	strb	r3, [r4, #20]
  109f1c:	7563      	strb	r3, [r4, #21]
  109f1e:	75a3      	strb	r3, [r4, #22]
  109f20:	75e3      	strb	r3, [r4, #23]
  109f22:	7623      	strb	r3, [r4, #24]
  109f24:	7663      	strb	r3, [r4, #25]
  109f26:	76a3      	strb	r3, [r4, #26]
  109f28:	76e3      	strb	r3, [r4, #27]
  109f2a:	7723      	strb	r3, [r4, #28]
  109f2c:	7763      	strb	r3, [r4, #29]
  109f2e:	77a3      	strb	r3, [r4, #30]
  109f30:	77e3      	strb	r3, [r4, #31]
  109f32:	bc10      	pop	{r4}
  109f34:	bc01      	pop	{r0}
  109f36:	4700      	bx	r0

00109f38 <dir_setFirstCluster>:
  109f38:	b570      	push	{r4, r5, r6, lr}
  109f3a:	1c0d      	mov	r5, r1		(add r5, r1, #0)
  109f3c:	1c06      	mov	r6, r0		(add r6, r0, #0)
  109f3e:	1c14      	mov	r4, r2		(add r4, r2, #0)
  109f40:	6809      	ldr	r1, [r1, #0]
  109f42:	2202      	mov	r2, #2
  109f44:	6800      	ldr	r0, [r0, #0]
  109f46:	fd25f7fe 	bl	108994 <part_getSect>
  109f4a:	792a      	ldrb	r2, [r5, #4]
  109f4c:	0152      	lsl	r2, r2, #5
  109f4e:	1812      	add	r2, r2, r0
  109f50:	0c23      	lsr	r3, r4, #16
  109f52:	7513      	strb	r3, [r2, #20]
  109f54:	0a1b      	lsr	r3, r3, #8
  109f56:	7553      	strb	r3, [r2, #21]
  109f58:	792b      	ldrb	r3, [r5, #4]
  109f5a:	015b      	lsl	r3, r3, #5
  109f5c:	181b      	add	r3, r3, r0
  109f5e:	769c      	strb	r4, [r3, #26]
  109f60:	0a24      	lsr	r4, r4, #8
  109f62:	76dc      	strb	r4, [r3, #27]
  109f64:	1c01      	mov	r1, r0		(add r1, r0, #0)
  109f66:	6830      	ldr	r0, [r6, #0]
  109f68:	fce2f7fe 	bl	108930 <part_relSect>
  109f6c:	bc70      	pop	{r4, r5, r6}
  109f6e:	bc01      	pop	{r0}
  109f70:	4700      	bx	r0
	...

00109f74 <dir_setFileSize>:
  109f74:	b570      	push	{r4, r5, r6, lr}
  109f76:	1c14      	mov	r4, r2		(add r4, r2, #0)
  109f78:	1c06      	mov	r6, r0		(add r6, r0, #0)
  109f7a:	1c0d      	mov	r5, r1		(add r5, r1, #0)
  109f7c:	2202      	mov	r2, #2
  109f7e:	6809      	ldr	r1, [r1, #0]
  109f80:	6800      	ldr	r0, [r0, #0]
  109f82:	fd07f7fe 	bl	108994 <part_getSect>
  109f86:	792b      	ldrb	r3, [r5, #4]
  109f88:	015b      	lsl	r3, r3, #5
  109f8a:	181b      	add	r3, r3, r0
  109f8c:	0a22      	lsr	r2, r4, #8
  109f8e:	771c      	strb	r4, [r3, #28]
  109f90:	775a      	strb	r2, [r3, #29]
  109f92:	0c22      	lsr	r2, r4, #16
  109f94:	0e24      	lsr	r4, r4, #24
  109f96:	779a      	strb	r2, [r3, #30]
  109f98:	77dc      	strb	r4, [r3, #31]
  109f9a:	1c01      	mov	r1, r0		(add r1, r0, #0)
  109f9c:	6830      	ldr	r0, [r6, #0]
  109f9e:	fcc7f7fe 	bl	108930 <part_relSect>
  109fa2:	bc70      	pop	{r4, r5, r6}
  109fa4:	bc01      	pop	{r0}
  109fa6:	4700      	bx	r0

00109fa8 <dir_updateDirectoryEntry>:
  109fa8:	b5f0      	push	{r4, r5, r6, r7, lr}
  109faa:	1c06      	mov	r6, r0		(add r6, r0, #0)
  109fac:	1c0f      	mov	r7, r1		(add r7, r1, #0)
  109fae:	1c14      	mov	r4, r2		(add r4, r2, #0)
  109fb0:	6811      	ldr	r1, [r2, #0]
  109fb2:	6800      	ldr	r0, [r0, #0]
  109fb4:	2202      	mov	r2, #2
  109fb6:	fcedf7fe 	bl	108994 <part_getSect>
  109fba:	7921      	ldrb	r1, [r4, #4]
  109fbc:	0149      	lsl	r1, r1, #5
  109fbe:	1c05      	mov	r5, r0		(add r5, r0, #0)
  109fc0:	1841      	add	r1, r0, r1
  109fc2:	2220      	mov	r2, #32
  109fc4:	1c38      	mov	r0, r7		(add r0, r7, #0)
  109fc6:	f825f001 	bl	10b014 <memCpy>
  109fca:	6830      	ldr	r0, [r6, #0]
  109fcc:	1c29      	mov	r1, r5		(add r1, r5, #0)
  109fce:	fcaff7fe 	bl	108930 <part_relSect>
  109fd2:	2000      	mov	r0, #0
  109fd4:	bcf0      	pop	{r4, r5, r6, r7}
  109fd6:	bc02      	pop	{r1}
  109fd8:	4708      	bx	r1
	...

00109fdc <dir_findFileinBuf>:
  109fdc:	b5f0      	push	{r4, r5, r6, r7, lr}
  109fde:	b08a      	sub	sp, #40
  109fe0:	9100      	str	r1, [sp, #0]
  109fe2:	1c16      	mov	r6, r2		(add r6, r2, #0)
  109fe4:	2700      	mov	r7, #0
  109fe6:	1c04      	mov	r4, r0		(add r4, r0, #0)
  109fe8:	ad02      	add	r5, sp, #8
  109fea:	063b      	lsl	r3, r7, #24
  109fec:	0e1b      	lsr	r3, r3, #24
  109fee:	2220      	mov	r2, #32
  109ff0:	1c28      	mov	r0, r5		(add r0, r5, #0)
  109ff2:	1c21      	mov	r1, r4		(add r1, r4, #0)
  109ff4:	9301      	str	r3, [sp, #4]
  109ff6:	fb03f7f8 	bl	102600 <memcpy>
  109ffa:	7aeb      	ldrb	r3, [r5, #11]
  109ffc:	220f      	mov	r2, #15
  109ffe:	4013      	and	r3, r2
  10a000:	2b0f      	cmp	r3, #15
  10a002:	d015      	beq	10a030 <dir_findFileinBuf+0x54>
  10a004:	1c28      	mov	r0, r5		(add r0, r5, #0)
  10a006:	9900      	ldr	r1, [sp, #0]
  10a008:	220b      	mov	r2, #11
  10a00a:	ffeff000 	bl	10afec <strMatch>
  10a00e:	2800      	cmp	r0, #0
  10a010:	d10e      	bne	10a030 <dir_findFileinBuf+0x54>
  10a012:	2e00      	cmp	r6, #0
  10a014:	d004      	beq	10a020 <dir_findFileinBuf+0x44>
  10a016:	466b      	mov	r3, sp
  10a018:	791b      	ldrb	r3, [r3, #4]
  10a01a:	7133      	strb	r3, [r6, #4]
  10a01c:	7aeb      	ldrb	r3, [r5, #11]
  10a01e:	7173      	strb	r3, [r6, #5]
  10a020:	8aab      	ldrh	r3, [r5, #20]
  10a022:	8b6a      	ldrh	r2, [r5, #26]
  10a024:	041b      	lsl	r3, r3, #16
  10a026:	1898      	add	r0, r3, r2
  10a028:	2800      	cmp	r0, #0
  10a02a:	d106      	bne	10a03a <dir_findFileinBuf+0x5e>
  10a02c:	2001      	mov	r0, #1
  10a02e:	e004      	b	10a03a <dir_findFileinBuf+0x5e>
  10a030:	3701      	add	r7, #1
  10a032:	3420      	add	r4, #32
  10a034:	2f10      	cmp	r7, #16
  10a036:	d1d7      	bne	109fe8 <dir_findFileinBuf+0xc>
  10a038:	2000      	mov	r0, #0
  10a03a:	b00a      	add	sp, #40
  10a03c:	bcf0      	pop	{r4, r5, r6, r7}
  10a03e:	bc02      	pop	{r1}
  10a040:	4708      	bx	r1
	...

0010a044 <dir_findFreeEntryinBuf>:
  10a044:	b5f0      	push	{r4, r5, r6, r7, lr}
  10a046:	b089      	sub	sp, #36
  10a048:	1c0f      	mov	r7, r1		(add r7, r1, #0)
  10a04a:	2600      	mov	r6, #0
  10a04c:	1c05      	mov	r5, r0		(add r5, r0, #0)
  10a04e:	ac01      	add	r4, sp, #4
  10a050:	0633      	lsl	r3, r6, #24
  10a052:	0e1b      	lsr	r3, r3, #24
  10a054:	1c29      	mov	r1, r5		(add r1, r5, #0)
  10a056:	2220      	mov	r2, #32
  10a058:	1c20      	mov	r0, r4		(add r0, r4, #0)
  10a05a:	9300      	str	r3, [sp, #0]
  10a05c:	fad0f7f8 	bl	102600 <memcpy>
  10a060:	7ae3      	ldrb	r3, [r4, #11]
  10a062:	220f      	mov	r2, #15
  10a064:	4013      	and	r3, r2
  10a066:	7821      	ldrb	r1, [r4, #0]
  10a068:	2b0f      	cmp	r3, #15
  10a06a:	d00a      	beq	10a082 <dir_findFreeEntryinBuf+0x3e>
  10a06c:	2900      	cmp	r1, #0
  10a06e:	d001      	beq	10a074 <dir_findFreeEntryinBuf+0x30>
  10a070:	29e5      	cmp	r1, #229
  10a072:	d106      	bne	10a082 <dir_findFreeEntryinBuf+0x3e>
  10a074:	2f00      	cmp	r7, #0
  10a076:	d002      	beq	10a07e <dir_findFreeEntryinBuf+0x3a>
  10a078:	466b      	mov	r3, sp
  10a07a:	781b      	ldrb	r3, [r3, #0]
  10a07c:	713b      	strb	r3, [r7, #4]
  10a07e:	2001      	mov	r0, #1
  10a080:	e004      	b	10a08c <dir_findFreeEntryinBuf+0x48>
  10a082:	3601      	add	r6, #1
  10a084:	3520      	add	r5, #32
  10a086:	2e10      	cmp	r6, #16
  10a088:	d1e1      	bne	10a04e <dir_findFreeEntryinBuf+0xa>
  10a08a:	2000      	mov	r0, #0
  10a08c:	b009      	add	sp, #36
  10a08e:	bcf0      	pop	{r4, r5, r6, r7}
  10a090:	bc02      	pop	{r1}
  10a092:	4708      	bx	r1

0010a094 <dir_findinBuf>:
  10a094:	b500      	push	{lr}
  10a096:	061b      	lsl	r3, r3, #24
  10a098:	0e1b      	lsr	r3, r3, #24
  10a09a:	2b00      	cmp	r3, #0
  10a09c:	d003      	beq	10a0a6 <dir_findinBuf+0x12>
  10a09e:	2b01      	cmp	r3, #1
  10a0a0:	d004      	beq	10a0ac <dir_findinBuf+0x18>
  10a0a2:	2000      	mov	r0, #0
  10a0a4:	e005      	b	10a0b2 <dir_findinBuf+0x1e>
  10a0a6:	ff99f7ff 	bl	109fdc <dir_findFileinBuf>
  10a0aa:	e002      	b	10a0b2 <dir_findinBuf+0x1e>
  10a0ac:	1c11      	mov	r1, r2		(add r1, r2, #0)
  10a0ae:	ffc9f7ff 	bl	10a044 <dir_findFreeEntryinBuf>
  10a0b2:	bc02      	pop	{r1}
  10a0b4:	4708      	bx	r1
	...

0010a0b8 <dir_findinCluster>:
  10a0b8:	b5f0      	push	{r4, r5, r6, r7, lr}
  10a0ba:	b085      	sub	sp, #20
  10a0bc:	9301      	str	r3, [sp, #4]
  10a0be:	9b0a      	ldr	r3, [sp, #40]
  10a0c0:	061b      	lsl	r3, r3, #24
  10a0c2:	9202      	str	r2, [sp, #8]
  10a0c4:	0e1b      	lsr	r3, r3, #24
  10a0c6:	2200      	mov	r2, #0
  10a0c8:	1c06      	mov	r6, r0		(add r6, r0, #0)
  10a0ca:	9103      	str	r1, [sp, #12]
  10a0cc:	9300      	str	r3, [sp, #0]
  10a0ce:	9204      	str	r2, [sp, #16]
  10a0d0:	e028      	b	10a124 <dir_findinCluster+0x6c>
  10a0d2:	9903      	ldr	r1, [sp, #12]
  10a0d4:	1c30      	mov	r0, r6		(add r0, r6, #0)
  10a0d6:	6834      	ldr	r4, [r6, #0]
  10a0d8:	fdbef7fe 	bl	108c58 <fs_clusterToSector>
  10a0dc:	2201      	mov	r2, #1
  10a0de:	19c1      	add	r1, r0, r7
  10a0e0:	1c20      	mov	r0, r4		(add r0, r4, #0)
  10a0e2:	fc57f7fe 	bl	108994 <part_getSect>
  10a0e6:	9b00      	ldr	r3, [sp, #0]
  10a0e8:	9902      	ldr	r1, [sp, #8]
  10a0ea:	9a01      	ldr	r2, [sp, #4]
  10a0ec:	1c05      	mov	r5, r0		(add r5, r0, #0)
  10a0ee:	ffd1f7ff 	bl	10a094 <dir_findinBuf>
  10a0f2:	9b04      	ldr	r3, [sp, #16]
  10a0f4:	3301      	add	r3, #1
  10a0f6:	1c04      	mov	r4, r0		(add r4, r0, #0)
  10a0f8:	9304      	str	r3, [sp, #16]
  10a0fa:	2800      	cmp	r0, #0
  10a0fc:	d00e      	beq	10a11c <dir_findinCluster+0x64>
  10a0fe:	9a01      	ldr	r2, [sp, #4]
  10a100:	2a00      	cmp	r2, #0
  10a102:	d006      	beq	10a112 <dir_findinCluster+0x5a>
  10a104:	1c30      	mov	r0, r6		(add r0, r6, #0)
  10a106:	9903      	ldr	r1, [sp, #12]
  10a108:	fda6f7fe 	bl	108c58 <fs_clusterToSector>
  10a10c:	9b01      	ldr	r3, [sp, #4]
  10a10e:	19c0      	add	r0, r0, r7
  10a110:	6018      	str	r0, [r3, #0]
  10a112:	6830      	ldr	r0, [r6, #0]
  10a114:	1c29      	mov	r1, r5		(add r1, r5, #0)
  10a116:	fc0bf7fe 	bl	108930 <part_relSect>
  10a11a:	e00a      	b	10a132 <dir_findinCluster+0x7a>
  10a11c:	6830      	ldr	r0, [r6, #0]
  10a11e:	1c29      	mov	r1, r5		(add r1, r5, #0)
  10a120:	fc06f7fe 	bl	108930 <part_relSect>
  10a124:	9a04      	ldr	r2, [sp, #16]
  10a126:	0613      	lsl	r3, r2, #24
  10a128:	0e1f      	lsr	r7, r3, #24
  10a12a:	79b3      	ldrb	r3, [r6, #6]
  10a12c:	42bb      	cmp	r3, r7
  10a12e:	d8d0      	bhi	10a0d2 <dir_findinCluster+0x1a>
  10a130:	2400      	mov	r4, #0
  10a132:	1c20      	mov	r0, r4		(add r0, r4, #0)
  10a134:	b005      	add	sp, #20
  10a136:	bcf0      	pop	{r4, r5, r6, r7}
  10a138:	bc02      	pop	{r1}
  10a13a:	4708      	bx	r1

0010a13c <dir_findinRootArea>:
  10a13c:	b5f0      	push	{r4, r5, r6, r7, lr}
  10a13e:	061b      	lsl	r3, r3, #24
  10a140:	b083      	sub	sp, #12
  10a142:	0e1b      	lsr	r3, r3, #24
  10a144:	9300      	str	r3, [sp, #0]
  10a146:	9102      	str	r1, [sp, #8]
  10a148:	9201      	str	r2, [sp, #4]
  10a14a:	1c03      	mov	r3, r0		(add r3, r0, #0)
  10a14c:	333c      	add	r3, #60
  10a14e:	781b      	ldrb	r3, [r3, #0]
  10a150:	3b01      	sub	r3, #1
  10a152:	061b      	lsl	r3, r3, #24
  10a154:	0e1b      	lsr	r3, r3, #24
  10a156:	1c04      	mov	r4, r0		(add r4, r0, #0)
  10a158:	2b01      	cmp	r3, #1
  10a15a:	d827      	bhi	10a1ac <dir_findinRootArea+0x70>
  10a15c:	6ac5      	ldr	r5, [r0, #44]
  10a15e:	2700      	mov	r7, #0
  10a160:	e01a      	b	10a198 <dir_findinRootArea+0x5c>
  10a162:	1c29      	mov	r1, r5		(add r1, r5, #0)
  10a164:	2201      	mov	r2, #1
  10a166:	fc15f7fe 	bl	108994 <part_getSect>
  10a16a:	9902      	ldr	r1, [sp, #8]
  10a16c:	9a01      	ldr	r2, [sp, #4]
  10a16e:	9b00      	ldr	r3, [sp, #0]
  10a170:	1c07      	mov	r7, r0		(add r7, r0, #0)
  10a172:	ff8ff7ff 	bl	10a094 <dir_findinBuf>
  10a176:	1c06      	mov	r6, r0		(add r6, r0, #0)
  10a178:	2800      	cmp	r0, #0
  10a17a:	d008      	beq	10a18e <dir_findinRootArea+0x52>
  10a17c:	9b01      	ldr	r3, [sp, #4]
  10a17e:	2b00      	cmp	r3, #0
  10a180:	d000      	beq	10a184 <dir_findinRootArea+0x48>
  10a182:	601d      	str	r5, [r3, #0]
  10a184:	6820      	ldr	r0, [r4, #0]
  10a186:	1c39      	mov	r1, r7		(add r1, r7, #0)
  10a188:	fbd2f7fe 	bl	108930 <part_relSect>
  10a18c:	e00f      	b	10a1ae <dir_findinRootArea+0x72>
  10a18e:	6820      	ldr	r0, [r4, #0]
  10a190:	1c39      	mov	r1, r7		(add r1, r7, #0)
  10a192:	fbcdf7fe 	bl	108930 <part_relSect>
  10a196:	3501      	add	r5, #1
  10a198:	89a3      	ldrh	r3, [r4, #12]
  10a19a:	6ae2      	ldr	r2, [r4, #44]
  10a19c:	091b      	lsr	r3, r3, #4
  10a19e:	18d2      	add	r2, r2, r3
  10a1a0:	6820      	ldr	r0, [r4, #0]
  10a1a2:	4295      	cmp	r5, r2
  10a1a4:	d3dd      	bcc	10a162 <dir_findinRootArea+0x26>
  10a1a6:	1c39      	mov	r1, r7		(add r1, r7, #0)
  10a1a8:	fbc2f7fe 	bl	108930 <part_relSect>
  10a1ac:	2600      	mov	r6, #0
  10a1ae:	1c30      	mov	r0, r6		(add r0, r6, #0)
  10a1b0:	b003      	add	sp, #12
  10a1b2:	bcf0      	pop	{r4, r5, r6, r7}
  10a1b4:	bc02      	pop	{r1}
  10a1b6:	4708      	bx	r1

0010a1b8 <dir_findinDir>:
  10a1b8:	b5f0      	push	{r4, r5, r6, r7, lr}
  10a1ba:	b088      	sub	sp, #32
  10a1bc:	1c1f      	mov	r7, r3		(add r7, r3, #0)
  10a1be:	9b0d      	ldr	r3, [sp, #52]
  10a1c0:	061b      	lsl	r3, r3, #24
  10a1c2:	9101      	str	r1, [sp, #4]
  10a1c4:	0e1e      	lsr	r6, r3, #24
  10a1c6:	2100      	mov	r1, #0
  10a1c8:	ab02      	add	r3, sp, #8
  10a1ca:	7019      	strb	r1, [r3, #0]
  10a1cc:	2300      	mov	r3, #0
  10a1ce:	1c04      	mov	r4, r0		(add r4, r0, #0)
  10a1d0:	9205      	str	r2, [sp, #20]
  10a1d2:	9204      	str	r2, [sp, #16]
  10a1d4:	9306      	str	r3, [sp, #24]
  10a1d6:	9303      	str	r3, [sp, #12]
  10a1d8:	2a01      	cmp	r2, #1
  10a1da:	d901      	bls	10a1e0 <dir_findinDir+0x28>
  10a1dc:	2200      	mov	r2, #0
  10a1de:	e00f      	b	10a200 <dir_findinDir+0x48>
  10a1e0:	9901      	ldr	r1, [sp, #4]
  10a1e2:	1c3a      	mov	r2, r7		(add r2, r7, #0)
  10a1e4:	1c33      	mov	r3, r6		(add r3, r6, #0)
  10a1e6:	ffa9f7ff 	bl	10a13c <dir_findinRootArea>
  10a1ea:	e012      	b	10a212 <dir_findinDir+0x5a>
  10a1ec:	9904      	ldr	r1, [sp, #16]
  10a1ee:	1c20      	mov	r0, r4		(add r0, r4, #0)
  10a1f0:	9a01      	ldr	r2, [sp, #4]
  10a1f2:	1c3b      	mov	r3, r7		(add r3, r7, #0)
  10a1f4:	9600      	str	r6, [sp, #0]
  10a1f6:	ff5ff7ff 	bl	10a0b8 <dir_findinCluster>
  10a1fa:	2800      	cmp	r0, #0
  10a1fc:	d109      	bne	10a212 <dir_findinDir+0x5a>
  10a1fe:	1c2a      	mov	r2, r5		(add r2, r5, #0)
  10a200:	1c20      	mov	r0, r4		(add r0, r4, #0)
  10a202:	a902      	add	r1, sp, #8
  10a204:	1c55      	add	r5, r2, #1
  10a206:	f99df7ff 	bl	109544 <fat_LogicToDiscCluster>
  10a20a:	0400      	lsl	r0, r0, #16
  10a20c:	2800      	cmp	r0, #0
  10a20e:	d0ed      	beq	10a1ec <dir_findinDir+0x34>
  10a210:	2000      	mov	r0, #0
  10a212:	b008      	add	sp, #32
  10a214:	bcf0      	pop	{r4, r5, r6, r7}
  10a216:	bc02      	pop	{r1}
  10a218:	4708      	bx	r1
	...

0010a21c <dir_getFatFileName>:
  10a21c:	b5f0      	push	{r4, r5, r6, r7, lr}
  10a21e:	b083      	sub	sp, #12
  10a220:	1c04      	mov	r4, r0		(add r4, r0, #0)
  10a222:	4668      	mov	r0, sp
  10a224:	1c0f      	mov	r7, r1		(add r7, r1, #0)
  10a226:	3001      	add	r0, #1
  10a228:	210b      	mov	r1, #11
  10a22a:	ff03f000 	bl	10b034 <memClr>
  10a22e:	1c38      	mov	r0, r7		(add r0, r7, #0)
  10a230:	210b      	mov	r1, #11
  10a232:	fefff000 	bl	10b034 <memClr>
  10a236:	7823      	ldrb	r3, [r4, #0]
  10a238:	2b2f      	cmp	r3, #47
  10a23a:	d001      	beq	10a240 <dir_getFatFileName+0x24>
  10a23c:	2500      	mov	r5, #0
  10a23e:	e009      	b	10a254 <dir_getFatFileName+0x38>
  10a240:	3401      	add	r4, #1
  10a242:	e7fb      	b	10a23c <dir_getFatFileName+0x20>
  10a244:	1c30      	mov	r0, r6		(add r0, r6, #0)
  10a246:	1c39      	mov	r1, r7		(add r1, r7, #0)
  10a248:	220b      	mov	r2, #11
  10a24a:	fee3f000 	bl	10b014 <memCpy>
  10a24e:	1c6b      	add	r3, r5, #1
  10a250:	061b      	lsl	r3, r3, #24
  10a252:	0e1d      	lsr	r5, r3, #24
  10a254:	466e      	mov	r6, sp
  10a256:	3601      	add	r6, #1
  10a258:	1c20      	mov	r0, r4		(add r0, r4, #0)
  10a25a:	1c31      	mov	r1, r6		(add r1, r6, #0)
  10a25c:	fb48f7ff 	bl	1098f0 <file_normalToFatName>
  10a260:	1c04      	mov	r4, r0		(add r4, r0, #0)
  10a262:	2800      	cmp	r0, #0
  10a264:	d1ee      	bne	10a244 <dir_getFatFileName+0x28>
  10a266:	4268      	neg	r0, r5
  10a268:	0fc0      	lsr	r0, r0, #31
  10a26a:	b003      	add	sp, #12
  10a26c:	bcf0      	pop	{r4, r5, r6, r7}
  10a26e:	bc02      	pop	{r1}
  10a270:	4708      	bx	r1
	...

0010a274 <dir_addCluster>:
  10a274:	b530      	push	{r4, r5, lr}
  10a276:	b086      	sub	sp, #24
  10a278:	1c0a      	mov	r2, r1		(add r2, r1, #0)
  10a27a:	1c04      	mov	r4, r0		(add r4, r0, #0)
  10a27c:	4669      	mov	r1, sp
  10a27e:	fd6ff7fe 	bl	108d60 <fs_initClusterChain>
  10a282:	1c20      	mov	r0, r4		(add r0, r4, #0)
  10a284:	4669      	mov	r1, sp
  10a286:	2201      	mov	r2, #1
  10a288:	fa0af7ff 	bl	1096a0 <fat_allocClusterChain>
  10a28c:	0400      	lsl	r0, r0, #16
  10a28e:	2800      	cmp	r0, #0
  10a290:	d002      	beq	10a298 <dir_addCluster+0x24>
  10a292:	2001      	mov	r0, #1
  10a294:	4240      	neg	r0, r0
  10a296:	e008      	b	10a2aa <dir_addCluster+0x36>
  10a298:	4669      	mov	r1, sp
  10a29a:	1c20      	mov	r0, r4		(add r0, r4, #0)
  10a29c:	fd3ef7fe 	bl	108d1c <fs_getLastCluster>
  10a2a0:	1c01      	mov	r1, r0		(add r1, r0, #0)
  10a2a2:	1c20      	mov	r0, r4		(add r0, r4, #0)
  10a2a4:	fd80f7fe 	bl	108da8 <fs_clearCluster>
  10a2a8:	2000      	mov	r0, #0
  10a2aa:	b006      	add	sp, #24
  10a2ac:	bc30      	pop	{r4, r5}
  10a2ae:	bc02      	pop	{r1}
  10a2b0:	4708      	bx	r1
  10a2b2:	46c0      	nop			(mov r8, r8)

0010a2b4 <ioman_getBuffer>:
  10a2b4:	3050      	add	r0, #80
  10a2b6:	4770      	bx	lr

0010a2b8 <ioman_reset>:
  10a2b8:	b570      	push	{r4, r5, r6, lr}
  10a2ba:	1c04      	mov	r4, r0		(add r4, r0, #0)
  10a2bc:	8921      	ldrh	r1, [r4, #8]
  10a2be:	3040      	add	r0, #64
  10a2c0:	0089      	lsl	r1, r1, #2
  10a2c2:	feb7f000 	bl	10b034 <memClr>
  10a2c6:	1c20      	mov	r0, r4		(add r0, r4, #0)
  10a2c8:	3048      	add	r0, #72
  10a2ca:	8921      	ldrh	r1, [r4, #8]
  10a2cc:	feb2f000 	bl	10b034 <memClr>
  10a2d0:	1c20      	mov	r0, r4		(add r0, r4, #0)
  10a2d2:	304a      	add	r0, #74
  10a2d4:	8921      	ldrh	r1, [r4, #8]
  10a2d6:	feadf000 	bl	10b034 <memClr>
  10a2da:	1c20      	mov	r0, r4		(add r0, r4, #0)
  10a2dc:	304e      	add	r0, #78
  10a2de:	8921      	ldrh	r1, [r4, #8]
  10a2e0:	fea8f000 	bl	10b034 <memClr>
  10a2e4:	2600      	mov	r6, #0
  10a2e6:	2300      	mov	r3, #0
  10a2e8:	7323      	strb	r3, [r4, #12]
  10a2ea:	e011      	b	10a310 <ioman_reset+0x58>
  10a2ec:	006b      	lsl	r3, r5, #1
  10a2ee:	195b      	add	r3, r3, r5
  10a2f0:	189b      	add	r3, r3, r2
  10a2f2:	00db      	lsl	r3, r3, #3
  10a2f4:	191b      	add	r3, r3, r4
  10a2f6:	1c19      	mov	r1, r3		(add r1, r3, #0)
  10a2f8:	2200      	mov	r2, #0
  10a2fa:	3114      	add	r1, #20
  10a2fc:	611a      	str	r2, [r3, #16]
  10a2fe:	751a      	strb	r2, [r3, #20]
  10a300:	704a      	strb	r2, [r1, #1]
  10a302:	0403      	lsl	r3, r0, #16
  10a304:	0c1a      	lsr	r2, r3, #16
  10a306:	8963      	ldrh	r3, [r4, #10]
  10a308:	3001      	add	r0, #1
  10a30a:	4293      	cmp	r3, r2
  10a30c:	d8ee      	bhi	10a2ec <ioman_reset+0x34>
  10a30e:	3601      	add	r6, #1
  10a310:	0433      	lsl	r3, r6, #16
  10a312:	0c1d      	lsr	r5, r3, #16
  10a314:	8923      	ldrh	r3, [r4, #8]
  10a316:	42ab      	cmp	r3, r5
  10a318:	d901      	bls	10a31e <ioman_reset+0x66>
  10a31a:	2000      	mov	r0, #0
  10a31c:	e7f1      	b	10a302 <ioman_reset+0x4a>
  10a31e:	bc70      	pop	{r4, r5, r6}
  10a320:	bc01      	pop	{r0}
  10a322:	4700      	bx	r0

0010a324 <ioman_setAttr>:
  10a324:	b510      	push	{r4, lr}
  10a326:	0612      	lsl	r2, r2, #24
  10a328:	061b      	lsl	r3, r3, #24
  10a32a:	0409      	lsl	r1, r1, #16
  10a32c:	0e14      	lsr	r4, r2, #24
  10a32e:	0e1a      	lsr	r2, r3, #24
  10a330:	8903      	ldrh	r3, [r0, #8]
  10a332:	0c09      	lsr	r1, r1, #16
  10a334:	428b      	cmp	r3, r1
  10a336:	d802      	bhi	10a33e <ioman_setAttr+0x1a>
  10a338:	2301      	mov	r3, #1
  10a33a:	7303      	strb	r3, [r0, #12]
  10a33c:	e011      	b	10a362 <ioman_setAttr+0x3e>
  10a33e:	1808      	add	r0, r1, r0
  10a340:	2a00      	cmp	r2, #0
  10a342:	d007      	beq	10a354 <ioman_setAttr+0x30>
  10a344:	1c03      	mov	r3, r0		(add r3, r0, #0)
  10a346:	3348      	add	r3, #72
  10a348:	7819      	ldrb	r1, [r3, #0]
  10a34a:	2201      	mov	r2, #1
  10a34c:	40a2      	lsl	r2, r4
  10a34e:	430a      	orr	r2, r1
  10a350:	701a      	strb	r2, [r3, #0]
  10a352:	e006      	b	10a362 <ioman_setAttr+0x3e>
  10a354:	1c01      	mov	r1, r0		(add r1, r0, #0)
  10a356:	3148      	add	r1, #72
  10a358:	780b      	ldrb	r3, [r1, #0]
  10a35a:	2201      	mov	r2, #1
  10a35c:	40a2      	lsl	r2, r4
  10a35e:	4393      	bic	r3, r2
  10a360:	700b      	strb	r3, [r1, #0]
  10a362:	bc10      	pop	{r4}
  10a364:	bc01      	pop	{r0}
  10a366:	4700      	bx	r0

0010a368 <ioman_getAttr>:
  10a368:	b510      	push	{r4, lr}
  10a36a:	0409      	lsl	r1, r1, #16
  10a36c:	8903      	ldrh	r3, [r0, #8]
  10a36e:	0612      	lsl	r2, r2, #24
  10a370:	0c09      	lsr	r1, r1, #16
  10a372:	0e14      	lsr	r4, r2, #24
  10a374:	428b      	cmp	r3, r1
  10a376:	d803      	bhi	10a380 <ioman_getAttr+0x18>
  10a378:	2302      	mov	r3, #2
  10a37a:	7303      	strb	r3, [r0, #12]
  10a37c:	20ff      	mov	r0, #255
  10a37e:	e007      	b	10a390 <ioman_getAttr+0x28>
  10a380:	180b      	add	r3, r1, r0
  10a382:	3348      	add	r3, #72
  10a384:	2201      	mov	r2, #1
  10a386:	781b      	ldrb	r3, [r3, #0]
  10a388:	40a2      	lsl	r2, r4
  10a38a:	401a      	and	r2, r3
  10a38c:	0612      	lsl	r2, r2, #24
  10a38e:	0e10      	lsr	r0, r2, #24
  10a390:	bc10      	pop	{r4}
  10a392:	bc02      	pop	{r1}
  10a394:	4708      	bx	r1
	...

0010a398 <ioman_getUseCnt>:
  10a398:	0409      	lsl	r1, r1, #16
  10a39a:	8903      	ldrh	r3, [r0, #8]
  10a39c:	0c09      	lsr	r1, r1, #16
  10a39e:	428b      	cmp	r3, r1
  10a3a0:	d803      	bhi	10a3aa <ioman_getUseCnt+0x12>
  10a3a2:	2305      	mov	r3, #5
  10a3a4:	7303      	strb	r3, [r0, #12]
  10a3a6:	2000      	mov	r0, #0
  10a3a8:	e002      	b	10a3b0 <ioman_getUseCnt+0x18>
  10a3aa:	180b      	add	r3, r1, r0
  10a3ac:	3348      	add	r3, #72
  10a3ae:	7898      	ldrb	r0, [r3, #2]
  10a3b0:	4770      	bx	lr
	...

0010a3b4 <ioman_incUseCnt>:
  10a3b4:	0409      	lsl	r1, r1, #16
  10a3b6:	8903      	ldrh	r3, [r0, #8]
  10a3b8:	0c09      	lsr	r1, r1, #16
  10a3ba:	428b      	cmp	r3, r1
  10a3bc:	d802      	bhi	10a3c4 <ioman_incUseCnt+0x10>
  10a3be:	2305      	mov	r3, #5
  10a3c0:	7303      	strb	r3, [r0, #12]
  10a3c2:	e007      	b	10a3d4 <ioman_incUseCnt+0x20>
  10a3c4:	180b      	add	r3, r1, r0
  10a3c6:	1c18      	mov	r0, r3		(add r0, r3, #0)
  10a3c8:	3048      	add	r0, #72
  10a3ca:	7883      	ldrb	r3, [r0, #2]
  10a3cc:	2bff      	cmp	r3, #255
  10a3ce:	d001      	beq	10a3d4 <ioman_incUseCnt+0x20>
  10a3d0:	3301      	add	r3, #1
  10a3d2:	7083      	strb	r3, [r0, #2]
  10a3d4:	4770      	bx	lr
	...

0010a3d8 <ioman_decUseCnt>:
  10a3d8:	0409      	lsl	r1, r1, #16
  10a3da:	8903      	ldrh	r3, [r0, #8]
  10a3dc:	0c09      	lsr	r1, r1, #16
  10a3de:	428b      	cmp	r3, r1
  10a3e0:	d802      	bhi	10a3e8 <ioman_decUseCnt+0x10>
  10a3e2:	2305      	mov	r3, #5
  10a3e4:	7303      	strb	r3, [r0, #12]
  10a3e6:	e007      	b	10a3f8 <ioman_decUseCnt+0x20>
  10a3e8:	180b      	add	r3, r1, r0
  10a3ea:	1c18      	mov	r0, r3		(add r0, r3, #0)
  10a3ec:	3048      	add	r0, #72
  10a3ee:	7883      	ldrb	r3, [r0, #2]
  10a3f0:	2b00      	cmp	r3, #0
  10a3f2:	d001      	beq	10a3f8 <ioman_decUseCnt+0x20>
  10a3f4:	3b01      	sub	r3, #1
  10a3f6:	7083      	strb	r3, [r0, #2]
  10a3f8:	4770      	bx	lr
	...

0010a3fc <ioman_resetUseCnt>:
  10a3fc:	0409      	lsl	r1, r1, #16
  10a3fe:	8903      	ldrh	r3, [r0, #8]
  10a400:	0c09      	lsr	r1, r1, #16
  10a402:	428b      	cmp	r3, r1
  10a404:	d802      	bhi	10a40c <ioman_resetUseCnt+0x10>
  10a406:	2305      	mov	r3, #5
  10a408:	7303      	strb	r3, [r0, #12]
  10a40a:	e003      	b	10a414 <ioman_resetUseCnt+0x18>
  10a40c:	180b      	add	r3, r1, r0
  10a40e:	3348      	add	r3, #72
  10a410:	2200      	mov	r2, #0
  10a412:	709a      	strb	r2, [r3, #2]
  10a414:	4770      	bx	lr
	...

0010a418 <ioman_getRefCnt>:
  10a418:	0409      	lsl	r1, r1, #16
  10a41a:	8903      	ldrh	r3, [r0, #8]
  10a41c:	0c09      	lsr	r1, r1, #16
  10a41e:	428b      	cmp	r3, r1
  10a420:	d803      	bhi	10a42a <ioman_getRefCnt+0x12>
  10a422:	2305      	mov	r3, #5
  10a424:	7303      	strb	r3, [r0, #12]
  10a426:	2000      	mov	r0, #0
  10a428:	e002      	b	10a430 <ioman_getRefCnt+0x18>
  10a42a:	180b      	add	r3, r1, r0
  10a42c:	334c      	add	r3, #76
  10a42e:	7818      	ldrb	r0, [r3, #0]
  10a430:	4770      	bx	lr
	...

0010a434 <ioman_incRefCnt>:
  10a434:	0409      	lsl	r1, r1, #16
  10a436:	8903      	ldrh	r3, [r0, #8]
  10a438:	0c09      	lsr	r1, r1, #16
  10a43a:	428b      	cmp	r3, r1
  10a43c:	d802      	bhi	10a444 <ioman_incRefCnt+0x10>
  10a43e:	2305      	mov	r3, #5
  10a440:	7303      	strb	r3, [r0, #12]
  10a442:	e007      	b	10a454 <ioman_incRefCnt+0x20>
  10a444:	180b      	add	r3, r1, r0
  10a446:	1c18      	mov	r0, r3		(add r0, r3, #0)
  10a448:	304c      	add	r0, #76
  10a44a:	7803      	ldrb	r3, [r0, #0]
  10a44c:	2bff      	cmp	r3, #255
  10a44e:	d001      	beq	10a454 <ioman_incRefCnt+0x20>
  10a450:	3301      	add	r3, #1
  10a452:	7003      	strb	r3, [r0, #0]
  10a454:	4770      	bx	lr
	...

0010a458 <ioman_decRefCnt>:
  10a458:	0409      	lsl	r1, r1, #16
  10a45a:	8903      	ldrh	r3, [r0, #8]
  10a45c:	0c09      	lsr	r1, r1, #16
  10a45e:	428b      	cmp	r3, r1
  10a460:	d802      	bhi	10a468 <ioman_decRefCnt+0x10>
  10a462:	2305      	mov	r3, #5
  10a464:	7303      	strb	r3, [r0, #12]
  10a466:	e007      	b	10a478 <ioman_decRefCnt+0x20>
  10a468:	180b      	add	r3, r1, r0
  10a46a:	1c18      	mov	r0, r3		(add r0, r3, #0)
  10a46c:	304c      	add	r0, #76
  10a46e:	7803      	ldrb	r3, [r0, #0]
  10a470:	2b00      	cmp	r3, #0
  10a472:	d001      	beq	10a478 <ioman_decRefCnt+0x20>
  10a474:	3b01      	sub	r3, #1
  10a476:	7003      	strb	r3, [r0, #0]
  10a478:	4770      	bx	lr
	...

0010a47c <ioman_resetRefCnt>:
  10a47c:	0409      	lsl	r1, r1, #16
  10a47e:	8903      	ldrh	r3, [r0, #8]
  10a480:	0c09      	lsr	r1, r1, #16
  10a482:	428b      	cmp	r3, r1
  10a484:	d802      	bhi	10a48c <ioman_resetRefCnt+0x10>
  10a486:	2305      	mov	r3, #5
  10a488:	7303      	strb	r3, [r0, #12]
  10a48a:	e003      	b	10a494 <ioman_resetRefCnt+0x18>
  10a48c:	180b      	add	r3, r1, r0
  10a48e:	334c      	add	r3, #76
  10a490:	2200      	mov	r2, #0
  10a492:	701a      	strb	r2, [r3, #0]
  10a494:	4770      	bx	lr
	...

0010a498 <ioman_pop>:
  10a498:	b5f0      	push	{r4, r5, r6, r7, lr}
  10a49a:	1c04      	mov	r4, r0		(add r4, r0, #0)
  10a49c:	0409      	lsl	r1, r1, #16
  10a49e:	8923      	ldrh	r3, [r4, #8]
  10a4a0:	0c08      	lsr	r0, r1, #16
  10a4a2:	4283      	cmp	r3, r0
  10a4a4:	d802      	bhi	10a4ac <ioman_pop+0x14>
  10a4a6:	2307      	mov	r3, #7
  10a4a8:	7323      	strb	r3, [r4, #12]
  10a4aa:	e008      	b	10a4be <ioman_pop+0x26>
  10a4ac:	1907      	add	r7, r0, r4
  10a4ae:	1c3d      	mov	r5, r7		(add r5, r7, #0)
  10a4b0:	354c      	add	r5, #76
  10a4b2:	78ae      	ldrb	r6, [r5, #2]
  10a4b4:	1e73      	sub	r3, r6, #1
  10a4b6:	061b      	lsl	r3, r3, #24
  10a4b8:	0e1b      	lsr	r3, r3, #24
  10a4ba:	2b02      	cmp	r3, #2
  10a4bc:	d902      	bls	10a4c4 <ioman_pop+0x2c>
  10a4be:	2001      	mov	r0, #1
  10a4c0:	4240      	neg	r0, r0
  10a4c2:	e01a      	b	10a4fa <ioman_pop+0x62>
  10a4c4:	0042      	lsl	r2, r0, #1
  10a4c6:	1812      	add	r2, r2, r0
  10a4c8:	1993      	add	r3, r2, r6
  10a4ca:	00db      	lsl	r3, r3, #3
  10a4cc:	191b      	add	r3, r3, r4
  10a4ce:	691b      	ldr	r3, [r3, #16]
  10a4d0:	0081      	lsl	r1, r0, #2
  10a4d2:	1909      	add	r1, r1, r4
  10a4d4:	640b      	str	r3, [r1, #64]
  10a4d6:	78ab      	ldrb	r3, [r5, #2]
  10a4d8:	18d3      	add	r3, r2, r3
  10a4da:	00db      	lsl	r3, r3, #3
  10a4dc:	191b      	add	r3, r3, r4
  10a4de:	7d1b      	ldrb	r3, [r3, #20]
  10a4e0:	1c39      	mov	r1, r7		(add r1, r7, #0)
  10a4e2:	3148      	add	r1, #72
  10a4e4:	700b      	strb	r3, [r1, #0]
  10a4e6:	78ab      	ldrb	r3, [r5, #2]
  10a4e8:	18d2      	add	r2, r2, r3
  10a4ea:	00d2      	lsl	r2, r2, #3
  10a4ec:	1912      	add	r2, r2, r4
  10a4ee:	7d53      	ldrb	r3, [r2, #21]
  10a4f0:	708b      	strb	r3, [r1, #2]
  10a4f2:	78ab      	ldrb	r3, [r5, #2]
  10a4f4:	3b01      	sub	r3, #1
  10a4f6:	70ab      	strb	r3, [r5, #2]
  10a4f8:	2000      	mov	r0, #0
  10a4fa:	bcf0      	pop	{r4, r5, r6, r7}
  10a4fc:	bc02      	pop	{r1}
  10a4fe:	4708      	bx	r1

0010a500 <ioman_push>:
  10a500:	b570      	push	{r4, r5, r6, lr}
  10a502:	1c04      	mov	r4, r0		(add r4, r0, #0)
  10a504:	0409      	lsl	r1, r1, #16
  10a506:	8923      	ldrh	r3, [r4, #8]
  10a508:	0c08      	lsr	r0, r1, #16
  10a50a:	4283      	cmp	r3, r0
  10a50c:	d801      	bhi	10a512 <ioman_push+0x12>
  10a50e:	2305      	mov	r3, #5
  10a510:	e006      	b	10a520 <ioman_push+0x20>
  10a512:	1906      	add	r6, r0, r4
  10a514:	1c35      	mov	r5, r6		(add r5, r6, #0)
  10a516:	354c      	add	r5, #76
  10a518:	78aa      	ldrb	r2, [r5, #2]
  10a51a:	2a02      	cmp	r2, #2
  10a51c:	d904      	bls	10a528 <ioman_push+0x28>
  10a51e:	2306      	mov	r3, #6
  10a520:	2001      	mov	r0, #1
  10a522:	4240      	neg	r0, r0
  10a524:	7323      	strb	r3, [r4, #12]
  10a526:	e01b      	b	10a560 <ioman_push+0x60>
  10a528:	3201      	add	r2, #1
  10a52a:	0041      	lsl	r1, r0, #1
  10a52c:	0612      	lsl	r2, r2, #24
  10a52e:	1809      	add	r1, r1, r0
  10a530:	0e12      	lsr	r2, r2, #24
  10a532:	0083      	lsl	r3, r0, #2
  10a534:	70aa      	strb	r2, [r5, #2]
  10a536:	191b      	add	r3, r3, r4
  10a538:	188a      	add	r2, r1, r2
  10a53a:	6c1b      	ldr	r3, [r3, #64]
  10a53c:	00d2      	lsl	r2, r2, #3
  10a53e:	1912      	add	r2, r2, r4
  10a540:	6113      	str	r3, [r2, #16]
  10a542:	78ab      	ldrb	r3, [r5, #2]
  10a544:	1c30      	mov	r0, r6		(add r0, r6, #0)
  10a546:	3048      	add	r0, #72
  10a548:	18cb      	add	r3, r1, r3
  10a54a:	7802      	ldrb	r2, [r0, #0]
  10a54c:	00db      	lsl	r3, r3, #3
  10a54e:	191b      	add	r3, r3, r4
  10a550:	751a      	strb	r2, [r3, #20]
  10a552:	78ab      	ldrb	r3, [r5, #2]
  10a554:	18c9      	add	r1, r1, r3
  10a556:	00c9      	lsl	r1, r1, #3
  10a558:	7883      	ldrb	r3, [r0, #2]
  10a55a:	1909      	add	r1, r1, r4
  10a55c:	754b      	strb	r3, [r1, #21]
  10a55e:	2000      	mov	r0, #0
  10a560:	bc70      	pop	{r4, r5, r6}
  10a562:	bc02      	pop	{r1}
  10a564:	4708      	bx	r1
	...

0010a568 <ioman_getPtr>:
  10a568:	0409      	lsl	r1, r1, #16
  10a56a:	8903      	ldrh	r3, [r0, #8]
  10a56c:	0c09      	lsr	r1, r1, #16
  10a56e:	428b      	cmp	r3, r1
  10a570:	d803      	bhi	10a57a <ioman_getPtr+0x12>
  10a572:	2305      	mov	r3, #5
  10a574:	7303      	strb	r3, [r0, #12]
  10a576:	2000      	mov	r0, #0
  10a578:	e002      	b	10a580 <ioman_getPtr+0x18>
  10a57a:	6843      	ldr	r3, [r0, #4]
  10a57c:	024a      	lsl	r2, r1, #9
  10a57e:	1898      	add	r0, r3, r2
  10a580:	4770      	bx	lr
	...

0010a584 <ioman_getBp>:
  10a584:	6842      	ldr	r2, [r0, #4]
  10a586:	4291      	cmp	r1, r2
  10a588:	d304      	bcc	10a594 <ioman_getBp+0x10>
  10a58a:	8903      	ldrh	r3, [r0, #8]
  10a58c:	025b      	lsl	r3, r3, #9
  10a58e:	18d3      	add	r3, r2, r3
  10a590:	4299      	cmp	r1, r3
  10a592:	d304      	bcc	10a59e <ioman_getBp+0x1a>
  10a594:	2308      	mov	r3, #8
  10a596:	7303      	strb	r3, [r0, #12]
  10a598:	2001      	mov	r0, #1
  10a59a:	4240      	neg	r0, r0
  10a59c:	e005      	b	10a5aa <ioman_getBp+0x26>
  10a59e:	1a88      	sub	r0, r1, r2
  10a5a0:	d501      	bpl	10a5a6 <ioman_getBp+0x22>
  10a5a2:	4b02      	ldr	r3, [pc, #8]	(10a5ac <.text+0xa5ac>)
  10a5a4:	18c0      	add	r0, r0, r3
  10a5a6:	01c0      	lsl	r0, r0, #7
  10a5a8:	1400      	asr	r0, r0, #16
  10a5aa:	4770      	bx	lr
  10a5ac:	01ff      	lsl	r7, r7, #7
	...

0010a5b0 <ioman_readSector>:
  10a5b0:	b510      	push	{r4, lr}
  10a5b2:	1c04      	mov	r4, r0		(add r4, r0, #0)
  10a5b4:	2a00      	cmp	r2, #0
  10a5b6:	d007      	beq	10a5c8 <ioman_readSector+0x18>
  10a5b8:	6800      	ldr	r0, [r0, #0]
  10a5ba:	fd03f000 	bl	10afc4 <if_readBuf>
  10a5be:	0600      	lsl	r0, r0, #24
  10a5c0:	2800      	cmp	r0, #0
  10a5c2:	d003      	beq	10a5cc <ioman_readSector+0x1c>
  10a5c4:	2303      	mov	r3, #3
  10a5c6:	7323      	strb	r3, [r4, #12]
  10a5c8:	2001      	mov	r0, #1
  10a5ca:	4240      	neg	r0, r0
  10a5cc:	bc10      	pop	{r4}
  10a5ce:	bc02      	pop	{r1}
  10a5d0:	4708      	bx	r1
	...

0010a5d4 <ioman_writeSector>:
  10a5d4:	b510      	push	{r4, lr}
  10a5d6:	1c04      	mov	r4, r0		(add r4, r0, #0)
  10a5d8:	2a00      	cmp	r2, #0
  10a5da:	d007      	beq	10a5ec <ioman_writeSector+0x18>
  10a5dc:	6800      	ldr	r0, [r0, #0]
  10a5de:	fcfbf000 	bl	10afd8 <if_writeBuf>
  10a5e2:	0600      	lsl	r0, r0, #24
  10a5e4:	2800      	cmp	r0, #0
  10a5e6:	d003      	beq	10a5f0 <ioman_writeSector+0x1c>
  10a5e8:	2304      	mov	r3, #4
  10a5ea:	7323      	strb	r3, [r4, #12]
  10a5ec:	2001      	mov	r0, #1
  10a5ee:	4240      	neg	r0, r0
  10a5f0:	bc10      	pop	{r4}
  10a5f2:	bc02      	pop	{r1}
  10a5f4:	4708      	bx	r1
	...

0010a5f8 <ioman_resetCacheItem>:
  10a5f8:	0409      	lsl	r1, r1, #16
  10a5fa:	8903      	ldrh	r3, [r0, #8]
  10a5fc:	0c0a      	lsr	r2, r1, #16
  10a5fe:	4293      	cmp	r3, r2
  10a600:	d802      	bhi	10a608 <ioman_resetCacheItem+0x10>
  10a602:	2305      	mov	r3, #5
  10a604:	7303      	strb	r3, [r0, #12]
  10a606:	e00a      	b	10a61e <ioman_resetCacheItem+0x26>
  10a608:	0093      	lsl	r3, r2, #2
  10a60a:	2100      	mov	r1, #0
  10a60c:	181b      	add	r3, r3, r0
  10a60e:	6419      	str	r1, [r3, #64]
  10a610:	1813      	add	r3, r2, r0
  10a612:	1c1a      	mov	r2, r3		(add r2, r3, #0)
  10a614:	3248      	add	r2, #72
  10a616:	334c      	add	r3, #76
  10a618:	7011      	strb	r1, [r2, #0]
  10a61a:	7091      	strb	r1, [r2, #2]
  10a61c:	7019      	strb	r1, [r3, #0]
  10a61e:	4770      	bx	lr

0010a620 <ioman_findSectorInCache>:
  10a620:	b5f0      	push	{r4, r5, r6, r7, lr}
  10a622:	1c05      	mov	r5, r0		(add r5, r0, #0)
  10a624:	1c0f      	mov	r7, r1		(add r7, r1, #0)
  10a626:	2600      	mov	r6, #0
  10a628:	e00e      	b	10a648 <ioman_findSectorInCache+0x28>
  10a62a:	1c28      	mov	r0, r5		(add r0, r5, #0)
  10a62c:	1c21      	mov	r1, r4		(add r1, r4, #0)
  10a62e:	2200      	mov	r2, #0
  10a630:	fe9af7ff 	bl	10a368 <ioman_getAttr>
  10a634:	2800      	cmp	r0, #0
  10a636:	d006      	beq	10a646 <ioman_findSectorInCache+0x26>
  10a638:	00a3      	lsl	r3, r4, #2
  10a63a:	195b      	add	r3, r3, r5
  10a63c:	6c1b      	ldr	r3, [r3, #64]
  10a63e:	42bb      	cmp	r3, r7
  10a640:	d101      	bne	10a646 <ioman_findSectorInCache+0x26>
  10a642:	1c20      	mov	r0, r4		(add r0, r4, #0)
  10a644:	e007      	b	10a656 <ioman_findSectorInCache+0x36>
  10a646:	3601      	add	r6, #1
  10a648:	0433      	lsl	r3, r6, #16
  10a64a:	0c1c      	lsr	r4, r3, #16
  10a64c:	892b      	ldrh	r3, [r5, #8]
  10a64e:	42a3      	cmp	r3, r4
  10a650:	d8eb      	bhi	10a62a <ioman_findSectorInCache+0xa>
  10a652:	2001      	mov	r0, #1
  10a654:	4240      	neg	r0, r0
  10a656:	bcf0      	pop	{r4, r5, r6, r7}
  10a658:	bc02      	pop	{r1}
  10a65a:	4708      	bx	r1

0010a65c <ioman_findFreeSpot>:
  10a65c:	b570      	push	{r4, r5, r6, lr}
  10a65e:	1c06      	mov	r6, r0		(add r6, r0, #0)
  10a660:	2500      	mov	r5, #0
  10a662:	e009      	b	10a678 <ioman_findFreeSpot+0x1c>
  10a664:	1c30      	mov	r0, r6		(add r0, r6, #0)
  10a666:	1c21      	mov	r1, r4		(add r1, r4, #0)
  10a668:	2200      	mov	r2, #0
  10a66a:	fe7df7ff 	bl	10a368 <ioman_getAttr>
  10a66e:	3501      	add	r5, #1
  10a670:	2800      	cmp	r0, #0
  10a672:	d101      	bne	10a678 <ioman_findFreeSpot+0x1c>
  10a674:	1c20      	mov	r0, r4		(add r0, r4, #0)
  10a676:	e006      	b	10a686 <ioman_findFreeSpot+0x2a>
  10a678:	042b      	lsl	r3, r5, #16
  10a67a:	0c1c      	lsr	r4, r3, #16
  10a67c:	8933      	ldrh	r3, [r6, #8]
  10a67e:	42a3      	cmp	r3, r4
  10a680:	d8f0      	bhi	10a664 <ioman_findFreeSpot+0x8>
  10a682:	2001      	mov	r0, #1
  10a684:	4240      	neg	r0, r0
  10a686:	bc70      	pop	{r4, r5, r6}
  10a688:	bc02      	pop	{r1}
  10a68a:	4708      	bx	r1

0010a68c <ioman_putSectorInCache>:
  10a68c:	b570      	push	{r4, r5, r6, lr}
  10a68e:	0412      	lsl	r2, r2, #16
  10a690:	0c15      	lsr	r5, r2, #16
  10a692:	1c0e      	mov	r6, r1		(add r6, r1, #0)
  10a694:	1c29      	mov	r1, r5		(add r1, r5, #0)
  10a696:	1c04      	mov	r4, r0		(add r4, r0, #0)
  10a698:	ff66f7ff 	bl	10a568 <ioman_getPtr>
  10a69c:	1c02      	mov	r2, r0		(add r2, r0, #0)
  10a69e:	2800      	cmp	r0, #0
  10a6a0:	d101      	bne	10a6a6 <ioman_putSectorInCache+0x1a>
  10a6a2:	2308      	mov	r3, #8
  10a6a4:	e007      	b	10a6b6 <ioman_putSectorInCache+0x2a>
  10a6a6:	1c20      	mov	r0, r4		(add r0, r4, #0)
  10a6a8:	1c31      	mov	r1, r6		(add r1, r6, #0)
  10a6aa:	ff81f7ff 	bl	10a5b0 <ioman_readSector>
  10a6ae:	0600      	lsl	r0, r0, #24
  10a6b0:	2800      	cmp	r0, #0
  10a6b2:	d004      	beq	10a6be <ioman_putSectorInCache+0x32>
  10a6b4:	2303      	mov	r3, #3
  10a6b6:	2001      	mov	r0, #1
  10a6b8:	4240      	neg	r0, r0
  10a6ba:	7323      	strb	r3, [r4, #12]
  10a6bc:	e009      	b	10a6d2 <ioman_putSectorInCache+0x46>
  10a6be:	1c20      	mov	r0, r4		(add r0, r4, #0)
  10a6c0:	2301      	mov	r3, #1
  10a6c2:	1c29      	mov	r1, r5		(add r1, r5, #0)
  10a6c4:	2200      	mov	r2, #0
  10a6c6:	fe2df7ff 	bl	10a324 <ioman_setAttr>
  10a6ca:	00ab      	lsl	r3, r5, #2
  10a6cc:	191b      	add	r3, r3, r4
  10a6ce:	641e      	str	r6, [r3, #64]
  10a6d0:	2000      	mov	r0, #0
  10a6d2:	bc70      	pop	{r4, r5, r6}
  10a6d4:	bc02      	pop	{r1}
  10a6d6:	4708      	bx	r1

0010a6d8 <ioman_flushSector>:
  10a6d8:	b570      	push	{r4, r5, r6, lr}
  10a6da:	0409      	lsl	r1, r1, #16
  10a6dc:	0c0d      	lsr	r5, r1, #16
  10a6de:	1c29      	mov	r1, r5		(add r1, r5, #0)
  10a6e0:	1c04      	mov	r4, r0		(add r4, r0, #0)
  10a6e2:	ff41f7ff 	bl	10a568 <ioman_getPtr>
  10a6e6:	1c06      	mov	r6, r0		(add r6, r0, #0)
  10a6e8:	2800      	cmp	r0, #0
  10a6ea:	d101      	bne	10a6f0 <ioman_flushSector+0x18>
  10a6ec:	2308      	mov	r3, #8
  10a6ee:	e007      	b	10a700 <ioman_flushSector+0x28>
  10a6f0:	1c20      	mov	r0, r4		(add r0, r4, #0)
  10a6f2:	1c29      	mov	r1, r5		(add r1, r5, #0)
  10a6f4:	2202      	mov	r2, #2
  10a6f6:	fe37f7ff 	bl	10a368 <ioman_getAttr>
  10a6fa:	2800      	cmp	r0, #0
  10a6fc:	d104      	bne	10a708 <ioman_flushSector+0x30>
  10a6fe:	2309      	mov	r3, #9
  10a700:	2001      	mov	r0, #1
  10a702:	4240      	neg	r0, r0
  10a704:	7323      	strb	r3, [r4, #12]
  10a706:	e015      	b	10a734 <ioman_flushSector+0x5c>
  10a708:	00ab      	lsl	r3, r5, #2
  10a70a:	191b      	add	r3, r3, r4
  10a70c:	6c19      	ldr	r1, [r3, #64]
  10a70e:	1c20      	mov	r0, r4		(add r0, r4, #0)
  10a710:	1c32      	mov	r2, r6		(add r2, r6, #0)
  10a712:	ff5ff7ff 	bl	10a5d4 <ioman_writeSector>
  10a716:	0600      	lsl	r0, r0, #24
  10a718:	2800      	cmp	r0, #0
  10a71a:	d001      	beq	10a720 <ioman_flushSector+0x48>
  10a71c:	2304      	mov	r3, #4
  10a71e:	e7ef      	b	10a700 <ioman_flushSector+0x28>
  10a720:	1c23      	mov	r3, r4		(add r3, r4, #0)
  10a722:	334a      	add	r3, #74
  10a724:	d105      	bne	10a732 <ioman_flushSector+0x5a>
  10a726:	1c20      	mov	r0, r4		(add r0, r4, #0)
  10a728:	1c29      	mov	r1, r5		(add r1, r5, #0)
  10a72a:	2202      	mov	r2, #2
  10a72c:	2300      	mov	r3, #0
  10a72e:	fdf9f7ff 	bl	10a324 <ioman_setAttr>
  10a732:	2000      	mov	r0, #0
  10a734:	bc70      	pop	{r4, r5, r6}
  10a736:	bc02      	pop	{r1}
  10a738:	4708      	bx	r1
	...

0010a73c <ioman_flushRange>:
  10a73c:	b5f0      	push	{r4, r5, r6, r7, lr}
  10a73e:	1c15      	mov	r5, r2		(add r5, r2, #0)
  10a740:	b082      	sub	sp, #8
  10a742:	1c04      	mov	r4, r0		(add r4, r0, #0)
  10a744:	1c0e      	mov	r6, r1		(add r6, r1, #0)
  10a746:	42a9      	cmp	r1, r5
  10a748:	d901      	bls	10a74e <ioman_flushRange+0x12>
  10a74a:	1c0d      	mov	r5, r1		(add r5, r1, #0)
  10a74c:	1c16      	mov	r6, r2		(add r6, r2, #0)
  10a74e:	1c22      	mov	r2, r4		(add r2, r4, #0)
  10a750:	1c27      	mov	r7, r4		(add r7, r4, #0)
  10a752:	324a      	add	r2, #74
  10a754:	2300      	mov	r3, #0
  10a756:	3740      	add	r7, #64
  10a758:	9201      	str	r2, [sp, #4]
  10a75a:	9300      	str	r3, [sp, #0]
  10a75c:	e025      	b	10a7aa <ioman_flushRange+0x6e>
  10a75e:	683b      	ldr	r3, [r7, #0]
  10a760:	42b3      	cmp	r3, r6
  10a762:	d31b      	bcc	10a79c <ioman_flushRange+0x60>
  10a764:	42ab      	cmp	r3, r5
  10a766:	d819      	bhi	10a79c <ioman_flushRange+0x60>
  10a768:	1c20      	mov	r0, r4		(add r0, r4, #0)
  10a76a:	9900      	ldr	r1, [sp, #0]
  10a76c:	2202      	mov	r2, #2
  10a76e:	fdfbf7ff 	bl	10a368 <ioman_getAttr>
  10a772:	2800      	cmp	r0, #0
  10a774:	d012      	beq	10a79c <ioman_flushRange+0x60>
  10a776:	1c20      	mov	r0, r4		(add r0, r4, #0)
  10a778:	9900      	ldr	r1, [sp, #0]
  10a77a:	ffadf7ff 	bl	10a6d8 <ioman_flushSector>
  10a77e:	0600      	lsl	r0, r0, #24
  10a780:	2800      	cmp	r0, #0
  10a782:	d002      	beq	10a78a <ioman_flushRange+0x4e>
  10a784:	2001      	mov	r0, #1
  10a786:	4240      	neg	r0, r0
  10a788:	e014      	b	10a7b4 <ioman_flushRange+0x78>
  10a78a:	9a01      	ldr	r2, [sp, #4]
  10a78c:	7813      	ldrb	r3, [r2, #0]
  10a78e:	2b00      	cmp	r3, #0
  10a790:	d104      	bne	10a79c <ioman_flushRange+0x60>
  10a792:	1c20      	mov	r0, r4		(add r0, r4, #0)
  10a794:	9900      	ldr	r1, [sp, #0]
  10a796:	2202      	mov	r2, #2
  10a798:	fdc4f7ff 	bl	10a324 <ioman_setAttr>
  10a79c:	9b00      	ldr	r3, [sp, #0]
  10a79e:	9a01      	ldr	r2, [sp, #4]
  10a7a0:	3301      	add	r3, #1
  10a7a2:	3201      	add	r2, #1
  10a7a4:	9300      	str	r3, [sp, #0]
  10a7a6:	9201      	str	r2, [sp, #4]
  10a7a8:	3704      	add	r7, #4
  10a7aa:	8923      	ldrh	r3, [r4, #8]
  10a7ac:	9a00      	ldr	r2, [sp, #0]
  10a7ae:	429a      	cmp	r2, r3
  10a7b0:	d3d5      	bcc	10a75e <ioman_flushRange+0x22>
  10a7b2:	2000      	mov	r0, #0
  10a7b4:	b002      	add	sp, #8
  10a7b6:	bcf0      	pop	{r4, r5, r6, r7}
  10a7b8:	bc02      	pop	{r1}
  10a7ba:	4708      	bx	r1

0010a7bc <ioman_flushAll>:
  10a7bc:	b570      	push	{r4, r5, r6, lr}
  10a7be:	1c05      	mov	r5, r0		(add r5, r0, #0)
  10a7c0:	2600      	mov	r6, #0
  10a7c2:	e01b      	b	10a7fc <ioman_flushAll+0x40>
  10a7c4:	1c28      	mov	r0, r5		(add r0, r5, #0)
  10a7c6:	1c21      	mov	r1, r4		(add r1, r4, #0)
  10a7c8:	2202      	mov	r2, #2
  10a7ca:	fdcdf7ff 	bl	10a368 <ioman_getAttr>
  10a7ce:	2800      	cmp	r0, #0
  10a7d0:	d013      	beq	10a7fa <ioman_flushAll+0x3e>
  10a7d2:	1c28      	mov	r0, r5		(add r0, r5, #0)
  10a7d4:	1c21      	mov	r1, r4		(add r1, r4, #0)
  10a7d6:	ff7ff7ff 	bl	10a6d8 <ioman_flushSector>
  10a7da:	0600      	lsl	r0, r0, #24
  10a7dc:	2800      	cmp	r0, #0
  10a7de:	d002      	beq	10a7e6 <ioman_flushAll+0x2a>
  10a7e0:	2001      	mov	r0, #1
  10a7e2:	4240      	neg	r0, r0
  10a7e4:	e010      	b	10a808 <ioman_flushAll+0x4c>
  10a7e6:	1963      	add	r3, r4, r5
  10a7e8:	3348      	add	r3, #72
  10a7ea:	789b      	ldrb	r3, [r3, #2]
  10a7ec:	2b00      	cmp	r3, #0
  10a7ee:	d104      	bne	10a7fa <ioman_flushAll+0x3e>
  10a7f0:	1c28      	mov	r0, r5		(add r0, r5, #0)
  10a7f2:	1c21      	mov	r1, r4		(add r1, r4, #0)
  10a7f4:	2202      	mov	r2, #2
  10a7f6:	fd95f7ff 	bl	10a324 <ioman_setAttr>
  10a7fa:	3601      	add	r6, #1
  10a7fc:	0433      	lsl	r3, r6, #16
  10a7fe:	0c1c      	lsr	r4, r3, #16
  10a800:	892b      	ldrh	r3, [r5, #8]
  10a802:	42a3      	cmp	r3, r4
  10a804:	d8de      	bhi	10a7c4 <ioman_flushAll+0x8>
  10a806:	2000      	mov	r0, #0
  10a808:	bc70      	pop	{r4, r5, r6}
  10a80a:	bc02      	pop	{r1}
  10a80c:	4708      	bx	r1
	...

0010a810 <ioman_directSectorRead>:
  10a810:	b5f0      	push	{r4, r5, r6, r7, lr}
  10a812:	1c04      	mov	r4, r0		(add r4, r0, #0)
  10a814:	1c0d      	mov	r5, r1		(add r5, r1, #0)
  10a816:	1c17      	mov	r7, r2		(add r7, r2, #0)
  10a818:	ff02f7ff 	bl	10a620 <ioman_findSectorInCache>
  10a81c:	0400      	lsl	r0, r0, #16
  10a81e:	1403      	asr	r3, r0, #16
  10a820:	3301      	add	r3, #1
  10a822:	d002      	beq	10a82a <ioman_directSectorRead+0x1a>
  10a824:	0c01      	lsr	r1, r0, #16
  10a826:	1c20      	mov	r0, r4		(add r0, r4, #0)
  10a828:	e011      	b	10a84e <ioman_directSectorRead+0x3e>
  10a82a:	1c20      	mov	r0, r4		(add r0, r4, #0)
  10a82c:	ff16f7ff 	bl	10a65c <ioman_findFreeSpot>
  10a830:	0400      	lsl	r0, r0, #16
  10a832:	1403      	asr	r3, r0, #16
  10a834:	3301      	add	r3, #1
  10a836:	d013      	beq	10a860 <ioman_directSectorRead+0x50>
  10a838:	0c06      	lsr	r6, r0, #16
  10a83a:	1c29      	mov	r1, r5		(add r1, r5, #0)
  10a83c:	1c20      	mov	r0, r4		(add r0, r4, #0)
  10a83e:	1c32      	mov	r2, r6		(add r2, r6, #0)
  10a840:	ff24f7ff 	bl	10a68c <ioman_putSectorInCache>
  10a844:	0600      	lsl	r0, r0, #24
  10a846:	2800      	cmp	r0, #0
  10a848:	d112      	bne	10a870 <ioman_directSectorRead+0x60>
  10a84a:	1c20      	mov	r0, r4		(add r0, r4, #0)
  10a84c:	1c31      	mov	r1, r6		(add r1, r6, #0)
  10a84e:	fe8bf7ff 	bl	10a568 <ioman_getPtr>
  10a852:	2280      	mov	r2, #128
  10a854:	1c39      	mov	r1, r7		(add r1, r7, #0)
  10a856:	0092      	lsl	r2, r2, #2
  10a858:	fbdcf000 	bl	10b014 <memCpy>
  10a85c:	2000      	mov	r0, #0
  10a85e:	e009      	b	10a874 <ioman_directSectorRead+0x64>
  10a860:	1c20      	mov	r0, r4		(add r0, r4, #0)
  10a862:	1c29      	mov	r1, r5		(add r1, r5, #0)
  10a864:	1c3a      	mov	r2, r7		(add r2, r7, #0)
  10a866:	fea3f7ff 	bl	10a5b0 <ioman_readSector>
  10a86a:	0600      	lsl	r0, r0, #24
  10a86c:	2800      	cmp	r0, #0
  10a86e:	d001      	beq	10a874 <ioman_directSectorRead+0x64>
  10a870:	2001      	mov	r0, #1
  10a872:	4240      	neg	r0, r0
  10a874:	bcf0      	pop	{r4, r5, r6, r7}
  10a876:	bc02      	pop	{r1}
  10a878:	4708      	bx	r1
	...

0010a87c <ioman_directSectorWrite>:
  10a87c:	b5f0      	push	{r4, r5, r6, r7, lr}
  10a87e:	b081      	sub	sp, #4
  10a880:	1c05      	mov	r5, r0		(add r5, r0, #0)
  10a882:	1c0f      	mov	r7, r1		(add r7, r1, #0)
  10a884:	1c16      	mov	r6, r2		(add r6, r2, #0)
  10a886:	fecbf7ff 	bl	10a620 <ioman_findSectorInCache>
  10a88a:	0400      	lsl	r0, r0, #16
  10a88c:	1403      	asr	r3, r0, #16
  10a88e:	3301      	add	r3, #1
  10a890:	d00e      	beq	10a8b0 <ioman_directSectorWrite+0x34>
  10a892:	0c04      	lsr	r4, r0, #16
  10a894:	1c21      	mov	r1, r4		(add r1, r4, #0)
  10a896:	1c28      	mov	r0, r5		(add r0, r5, #0)
  10a898:	fe66f7ff 	bl	10a568 <ioman_getPtr>
  10a89c:	2280      	mov	r2, #128
  10a89e:	1c01      	mov	r1, r0		(add r1, r0, #0)
  10a8a0:	0092      	lsl	r2, r2, #2
  10a8a2:	1c30      	mov	r0, r6		(add r0, r6, #0)
  10a8a4:	fbb6f000 	bl	10b014 <memCpy>
  10a8a8:	1c28      	mov	r0, r5		(add r0, r5, #0)
  10a8aa:	1c21      	mov	r1, r4		(add r1, r4, #0)
  10a8ac:	2202      	mov	r2, #2
  10a8ae:	e023      	b	10a8f8 <ioman_directSectorWrite+0x7c>
  10a8b0:	1c28      	mov	r0, r5		(add r0, r5, #0)
  10a8b2:	fed3f7ff 	bl	10a65c <ioman_findFreeSpot>
  10a8b6:	0400      	lsl	r0, r0, #16
  10a8b8:	1402      	asr	r2, r0, #16
  10a8ba:	9200      	str	r2, [sp, #0]
  10a8bc:	3201      	add	r2, #1
  10a8be:	d01f      	beq	10a900 <ioman_directSectorWrite+0x84>
  10a8c0:	0c04      	lsr	r4, r0, #16
  10a8c2:	1c21      	mov	r1, r4		(add r1, r4, #0)
  10a8c4:	1c28      	mov	r0, r5		(add r0, r5, #0)
  10a8c6:	fe4ff7ff 	bl	10a568 <ioman_getPtr>
  10a8ca:	2280      	mov	r2, #128
  10a8cc:	1c01      	mov	r1, r0		(add r1, r0, #0)
  10a8ce:	0092      	lsl	r2, r2, #2
  10a8d0:	1c30      	mov	r0, r6		(add r0, r6, #0)
  10a8d2:	fb9ff000 	bl	10b014 <memCpy>
  10a8d6:	1c28      	mov	r0, r5		(add r0, r5, #0)
  10a8d8:	1c21      	mov	r1, r4		(add r1, r4, #0)
  10a8da:	fe8df7ff 	bl	10a5f8 <ioman_resetCacheItem>
  10a8de:	9a00      	ldr	r2, [sp, #0]
  10a8e0:	0093      	lsl	r3, r2, #2
  10a8e2:	195b      	add	r3, r3, r5
  10a8e4:	641f      	str	r7, [r3, #64]
  10a8e6:	1c28      	mov	r0, r5		(add r0, r5, #0)
  10a8e8:	1c21      	mov	r1, r4		(add r1, r4, #0)
  10a8ea:	2202      	mov	r2, #2
  10a8ec:	2301      	mov	r3, #1
  10a8ee:	fd19f7ff 	bl	10a324 <ioman_setAttr>
  10a8f2:	1c28      	mov	r0, r5		(add r0, r5, #0)
  10a8f4:	1c21      	mov	r1, r4		(add r1, r4, #0)
  10a8f6:	2200      	mov	r2, #0
  10a8f8:	2301      	mov	r3, #1
  10a8fa:	fd13f7ff 	bl	10a324 <ioman_setAttr>
  10a8fe:	e00a      	b	10a916 <ioman_directSectorWrite+0x9a>
  10a900:	1c28      	mov	r0, r5		(add r0, r5, #0)
  10a902:	1c39      	mov	r1, r7		(add r1, r7, #0)
  10a904:	1c32      	mov	r2, r6		(add r2, r6, #0)
  10a906:	fe65f7ff 	bl	10a5d4 <ioman_writeSector>
  10a90a:	0600      	lsl	r0, r0, #24
  10a90c:	2800      	cmp	r0, #0
  10a90e:	d002      	beq	10a916 <ioman_directSectorWrite+0x9a>
  10a910:	2001      	mov	r0, #1
  10a912:	4240      	neg	r0, r0
  10a914:	e000      	b	10a918 <ioman_directSectorWrite+0x9c>
  10a916:	2000      	mov	r0, #0
  10a918:	b001      	add	sp, #4
  10a91a:	bcf0      	pop	{r4, r5, r6, r7}
  10a91c:	bc02      	pop	{r1}
  10a91e:	4708      	bx	r1

0010a920 <ioman_printStatus>:
  10a920:	b530      	push	{r4, r5, lr}
  10a922:	1c05      	mov	r5, r0		(add r5, r0, #0)
  10a924:	2400      	mov	r4, #0
  10a926:	e003      	b	10a930 <ioman_printStatus+0x10>
  10a928:	1c28      	mov	r0, r5		(add r0, r5, #0)
  10a92a:	2200      	mov	r2, #0
  10a92c:	fd1cf7ff 	bl	10a368 <ioman_getAttr>
  10a930:	0423      	lsl	r3, r4, #16
  10a932:	0c19      	lsr	r1, r3, #16
  10a934:	892b      	ldrh	r3, [r5, #8]
  10a936:	3401      	add	r4, #1
  10a938:	428b      	cmp	r3, r1
  10a93a:	d8f5      	bhi	10a928 <ioman_printStatus+0x8>
  10a93c:	bc30      	pop	{r4, r5}
  10a93e:	bc01      	pop	{r0}
  10a940:	4700      	bx	r0
	...

0010a944 <ioman_findOverallocableSpot>:
  10a944:	b5f0      	push	{r4, r5, r6, r7, lr}
  10a946:	b083      	sub	sp, #12
  10a948:	22ff      	mov	r2, #255
  10a94a:	2301      	mov	r3, #1
  10a94c:	9200      	str	r2, [sp, #0]
  10a94e:	425b      	neg	r3, r3
  10a950:	1c04      	mov	r4, r0		(add r4, r0, #0)
  10a952:	2200      	mov	r2, #0
  10a954:	9301      	str	r3, [sp, #4]
  10a956:	e035      	b	10a9c4 <ioman_findOverallocableSpot+0x80>
  10a958:	192b      	add	r3, r5, r4
  10a95a:	334c      	add	r3, #76
  10a95c:	789a      	ldrb	r2, [r3, #2]
  10a95e:	8963      	ldrh	r3, [r4, #10]
  10a960:	429a      	cmp	r2, r3
  10a962:	d22d      	bcs	10a9c0 <ioman_findOverallocableSpot+0x7c>
  10a964:	1c20      	mov	r0, r4		(add r0, r4, #0)
  10a966:	1c29      	mov	r1, r5		(add r1, r5, #0)
  10a968:	2202      	mov	r2, #2
  10a96a:	fcfdf7ff 	bl	10a368 <ioman_getAttr>
  10a96e:	2800      	cmp	r0, #0
  10a970:	d001      	beq	10a976 <ioman_findOverallocableSpot+0x32>
  10a972:	277f      	mov	r7, #127
  10a974:	e000      	b	10a978 <ioman_findOverallocableSpot+0x34>
  10a976:	2700      	mov	r7, #0
  10a978:	192b      	add	r3, r5, r4
  10a97a:	1c1e      	mov	r6, r3		(add r6, r3, #0)
  10a97c:	364c      	add	r6, #76
  10a97e:	78b2      	ldrb	r2, [r6, #2]
  10a980:	234d      	mov	r3, #77
  10a982:	1c10      	mov	r0, r2		(add r0, r2, #0)
  10a984:	4358      	mul	r0, r3
  10a986:	8961      	ldrh	r1, [r4, #10]
  10a988:	f898f7fd 	bl	107abc <__udivsi3>
  10a98c:	8923      	ldrh	r3, [r4, #8]
  10a98e:	1838      	add	r0, r7, r0
  10a990:	0600      	lsl	r0, r0, #24
  10a992:	0e07      	lsr	r7, r0, #24
  10a994:	42ab      	cmp	r3, r5
  10a996:	d803      	bhi	10a9a0 <ioman_findOverallocableSpot+0x5c>
  10a998:	2305      	mov	r3, #5
  10a99a:	7323      	strb	r3, [r4, #12]
  10a99c:	2300      	mov	r3, #0
  10a99e:	e000      	b	10a9a2 <ioman_findOverallocableSpot+0x5e>
  10a9a0:	7833      	ldrb	r3, [r6, #0]
  10a9a2:	0058      	lsl	r0, r3, #1
  10a9a4:	18c0      	add	r0, r0, r3
  10a9a6:	0103      	lsl	r3, r0, #4
  10a9a8:	18c0      	add	r0, r0, r3
  10a9aa:	21ff      	mov	r1, #255
  10a9ac:	f886f7fd 	bl	107abc <__udivsi3>
  10a9b0:	1838      	add	r0, r7, r0
  10a9b2:	0600      	lsl	r0, r0, #24
  10a9b4:	9b00      	ldr	r3, [sp, #0]
  10a9b6:	0e00      	lsr	r0, r0, #24
  10a9b8:	4298      	cmp	r0, r3
  10a9ba:	d201      	bcs	10a9c0 <ioman_findOverallocableSpot+0x7c>
  10a9bc:	9501      	str	r5, [sp, #4]
  10a9be:	9000      	str	r0, [sp, #0]
  10a9c0:	9a02      	ldr	r2, [sp, #8]
  10a9c2:	3201      	add	r2, #1
  10a9c4:	9202      	str	r2, [sp, #8]
  10a9c6:	9a02      	ldr	r2, [sp, #8]
  10a9c8:	0413      	lsl	r3, r2, #16
  10a9ca:	0c1d      	lsr	r5, r3, #16
  10a9cc:	8923      	ldrh	r3, [r4, #8]
  10a9ce:	42ab      	cmp	r3, r5
  10a9d0:	d8c2      	bhi	10a958 <ioman_findOverallocableSpot+0x14>
  10a9d2:	9801      	ldr	r0, [sp, #4]
  10a9d4:	b003      	add	sp, #12
  10a9d6:	bcf0      	pop	{r4, r5, r6, r7}
  10a9d8:	bc02      	pop	{r1}
  10a9da:	4708      	bx	r1

0010a9dc <ioman_findUnusedSpot>:
  10a9dc:	b5f0      	push	{r4, r5, r6, r7, lr}
  10a9de:	2601      	mov	r6, #1
  10a9e0:	b082      	sub	sp, #8
  10a9e2:	2700      	mov	r7, #0
  10a9e4:	22ff      	mov	r2, #255
  10a9e6:	1c04      	mov	r4, r0		(add r4, r0, #0)
  10a9e8:	4276      	neg	r6, r6
  10a9ea:	9200      	str	r2, [sp, #0]
  10a9ec:	9701      	str	r7, [sp, #4]
  10a9ee:	e05b      	b	10aaa8 <ioman_findUnusedSpot+0xcc>
  10a9f0:	192b      	add	r3, r5, r4
  10a9f2:	3348      	add	r3, #72
  10a9f4:	789b      	ldrb	r3, [r3, #2]
  10a9f6:	2b00      	cmp	r3, #0
  10a9f8:	d153      	bne	10aaa2 <ioman_findUnusedSpot+0xc6>
  10a9fa:	1c20      	mov	r0, r4		(add r0, r4, #0)
  10a9fc:	1c29      	mov	r1, r5		(add r1, r5, #0)
  10a9fe:	2202      	mov	r2, #2
  10aa00:	fcb2f7ff 	bl	10a368 <ioman_getAttr>
  10aa04:	2800      	cmp	r0, #0
  10aa06:	d106      	bne	10aa16 <ioman_findUnusedSpot+0x3a>
  10aa08:	2f00      	cmp	r7, #0
  10aa0a:	d104      	bne	10aa16 <ioman_findUnusedSpot+0x3a>
  10aa0c:	23ff      	mov	r3, #255
  10aa0e:	2601      	mov	r6, #1
  10aa10:	9300      	str	r3, [sp, #0]
  10aa12:	4276      	neg	r6, r6
  10aa14:	2701      	mov	r7, #1
  10aa16:	1c20      	mov	r0, r4		(add r0, r4, #0)
  10aa18:	1c29      	mov	r1, r5		(add r1, r5, #0)
  10aa1a:	2202      	mov	r2, #2
  10aa1c:	fca4f7ff 	bl	10a368 <ioman_getAttr>
  10aa20:	2800      	cmp	r0, #0
  10aa22:	d01c      	beq	10aa5e <ioman_findUnusedSpot+0x82>
  10aa24:	2f00      	cmp	r7, #0
  10aa26:	d11c      	bne	10aa62 <ioman_findUnusedSpot+0x86>
  10aa28:	8923      	ldrh	r3, [r4, #8]
  10aa2a:	42ab      	cmp	r3, r5
  10aa2c:	d803      	bhi	10aa36 <ioman_findUnusedSpot+0x5a>
  10aa2e:	2305      	mov	r3, #5
  10aa30:	7323      	strb	r3, [r4, #12]
  10aa32:	2300      	mov	r3, #0
  10aa34:	e002      	b	10aa3c <ioman_findUnusedSpot+0x60>
  10aa36:	192b      	add	r3, r5, r4
  10aa38:	334c      	add	r3, #76
  10aa3a:	781b      	ldrb	r3, [r3, #0]
  10aa3c:	9a00      	ldr	r2, [sp, #0]
  10aa3e:	4293      	cmp	r3, r2
  10aa40:	d80b      	bhi	10aa5a <ioman_findUnusedSpot+0x7e>
  10aa42:	8923      	ldrh	r3, [r4, #8]
  10aa44:	1c2e      	mov	r6, r5		(add r6, r5, #0)
  10aa46:	42b3      	cmp	r3, r6
  10aa48:	d803      	bhi	10aa52 <ioman_findUnusedSpot+0x76>
  10aa4a:	2305      	mov	r3, #5
  10aa4c:	7323      	strb	r3, [r4, #12]
  10aa4e:	2300      	mov	r3, #0
  10aa50:	e002      	b	10aa58 <ioman_findUnusedSpot+0x7c>
  10aa52:	192b      	add	r3, r5, r4
  10aa54:	334c      	add	r3, #76
  10aa56:	781b      	ldrb	r3, [r3, #0]
  10aa58:	9300      	str	r3, [sp, #0]
  10aa5a:	2700      	mov	r7, #0
  10aa5c:	e021      	b	10aaa2 <ioman_findUnusedSpot+0xc6>
  10aa5e:	2f00      	cmp	r7, #0
  10aa60:	d01f      	beq	10aaa2 <ioman_findUnusedSpot+0xc6>
  10aa62:	1c20      	mov	r0, r4		(add r0, r4, #0)
  10aa64:	1c29      	mov	r1, r5		(add r1, r5, #0)
  10aa66:	2202      	mov	r2, #2
  10aa68:	fc7ef7ff 	bl	10a368 <ioman_getAttr>
  10aa6c:	2800      	cmp	r0, #0
  10aa6e:	d118      	bne	10aaa2 <ioman_findUnusedSpot+0xc6>
  10aa70:	8923      	ldrh	r3, [r4, #8]
  10aa72:	42ab      	cmp	r3, r5
  10aa74:	d803      	bhi	10aa7e <ioman_findUnusedSpot+0xa2>
  10aa76:	2305      	mov	r3, #5
  10aa78:	7323      	strb	r3, [r4, #12]
  10aa7a:	2300      	mov	r3, #0
  10aa7c:	e002      	b	10aa84 <ioman_findUnusedSpot+0xa8>
  10aa7e:	192b      	add	r3, r5, r4
  10aa80:	334c      	add	r3, #76
  10aa82:	781b      	ldrb	r3, [r3, #0]
  10aa84:	9a00      	ldr	r2, [sp, #0]
  10aa86:	4293      	cmp	r3, r2
  10aa88:	d80b      	bhi	10aaa2 <ioman_findUnusedSpot+0xc6>
  10aa8a:	8923      	ldrh	r3, [r4, #8]
  10aa8c:	1c2e      	mov	r6, r5		(add r6, r5, #0)
  10aa8e:	42b3      	cmp	r3, r6
  10aa90:	d803      	bhi	10aa9a <ioman_findUnusedSpot+0xbe>
  10aa92:	2305      	mov	r3, #5
  10aa94:	7323      	strb	r3, [r4, #12]
  10aa96:	2300      	mov	r3, #0
  10aa98:	e002      	b	10aaa0 <ioman_findUnusedSpot+0xc4>
  10aa9a:	192b      	add	r3, r5, r4
  10aa9c:	334c      	add	r3, #76
  10aa9e:	781b      	ldrb	r3, [r3, #0]
  10aaa0:	9300      	str	r3, [sp, #0]
  10aaa2:	9b01      	ldr	r3, [sp, #4]
  10aaa4:	3301      	add	r3, #1
  10aaa6:	9301      	str	r3, [sp, #4]
  10aaa8:	9a01      	ldr	r2, [sp, #4]
  10aaaa:	0413      	lsl	r3, r2, #16
  10aaac:	0c1d      	lsr	r5, r3, #16
  10aaae:	8923      	ldrh	r3, [r4, #8]
  10aab0:	42ab      	cmp	r3, r5
  10aab2:	d89d      	bhi	10a9f0 <ioman_findUnusedSpot+0x14>
  10aab4:	1c30      	mov	r0, r6		(add r0, r6, #0)
  10aab6:	b002      	add	sp, #8
  10aab8:	bcf0      	pop	{r4, r5, r6, r7}
  10aaba:	bc02      	pop	{r1}
  10aabc:	4708      	bx	r1
	...

0010aac0 <ioman_getSector>:
  10aac0:	b5f0      	push	{r4, r5, r6, r7, lr}
  10aac2:	b081      	sub	sp, #4
  10aac4:	0612      	lsl	r2, r2, #24
  10aac6:	1c04      	mov	r4, r0		(add r4, r0, #0)
  10aac8:	9100      	str	r1, [sp, #0]
  10aaca:	0e17      	lsr	r7, r2, #24
  10aacc:	fda8f7ff 	bl	10a620 <ioman_findSectorInCache>
  10aad0:	1c05      	mov	r5, r0		(add r5, r0, #0)
  10aad2:	1c43      	add	r3, r0, #1
  10aad4:	d00b      	beq	10aaee <ioman_getSector+0x2e>
  10aad6:	07bb      	lsl	r3, r7, #30
  10aad8:	d506      	bpl	10aae8 <ioman_getSector+0x28>
  10aada:	0401      	lsl	r1, r0, #16
  10aadc:	0c09      	lsr	r1, r1, #16
  10aade:	1c20      	mov	r0, r4		(add r0, r4, #0)
  10aae0:	2202      	mov	r2, #2
  10aae2:	2301      	mov	r3, #1
  10aae4:	fc1ef7ff 	bl	10a324 <ioman_setAttr>
  10aae8:	042b      	lsl	r3, r5, #16
  10aaea:	0c1d      	lsr	r5, r3, #16
  10aaec:	e051      	b	10ab92 <ioman_getSector+0xd2>
  10aaee:	1c20      	mov	r0, r4		(add r0, r4, #0)
  10aaf0:	fdb4f7ff 	bl	10a65c <ioman_findFreeSpot>
  10aaf4:	1c05      	mov	r5, r0		(add r5, r0, #0)
  10aaf6:	1c43      	add	r3, r0, #1
  10aaf8:	d112      	bne	10ab20 <ioman_getSector+0x60>
  10aafa:	1c20      	mov	r0, r4		(add r0, r4, #0)
  10aafc:	ff6ef7ff 	bl	10a9dc <ioman_findUnusedSpot>
  10ab00:	1c05      	mov	r5, r0		(add r5, r0, #0)
  10ab02:	1c43      	add	r3, r0, #1
  10ab04:	d058      	beq	10abb8 <ioman_getSector+0xf8>
  10ab06:	0403      	lsl	r3, r0, #16
  10ab08:	0c1e      	lsr	r6, r3, #16
  10ab0a:	1c20      	mov	r0, r4		(add r0, r4, #0)
  10ab0c:	1c31      	mov	r1, r6		(add r1, r6, #0)
  10ab0e:	2202      	mov	r2, #2
  10ab10:	fc2af7ff 	bl	10a368 <ioman_getAttr>
  10ab14:	2800      	cmp	r0, #0
  10ab16:	d003      	beq	10ab20 <ioman_getSector+0x60>
  10ab18:	1c20      	mov	r0, r4		(add r0, r4, #0)
  10ab1a:	1c31      	mov	r1, r6		(add r1, r6, #0)
  10ab1c:	fddcf7ff 	bl	10a6d8 <ioman_flushSector>
  10ab20:	042b      	lsl	r3, r5, #16
  10ab22:	0c1d      	lsr	r5, r3, #16
  10ab24:	1c20      	mov	r0, r4		(add r0, r4, #0)
  10ab26:	1c29      	mov	r1, r5		(add r1, r5, #0)
  10ab28:	fd66f7ff 	bl	10a5f8 <ioman_resetCacheItem>
  10ab2c:	1c20      	mov	r0, r4		(add r0, r4, #0)
  10ab2e:	9900      	ldr	r1, [sp, #0]
  10ab30:	1c2a      	mov	r2, r5		(add r2, r5, #0)
  10ab32:	fdabf7ff 	bl	10a68c <ioman_putSectorInCache>
  10ab36:	0600      	lsl	r0, r0, #24
  10ab38:	2800      	cmp	r0, #0
  10ab3a:	d13b      	bne	10abb4 <ioman_getSector+0xf4>
  10ab3c:	2f02      	cmp	r7, #2
  10ab3e:	d128      	bne	10ab92 <ioman_getSector+0xd2>
  10ab40:	e021      	b	10ab86 <ioman_getSector+0xc6>
  10ab42:	0403      	lsl	r3, r0, #16
  10ab44:	0c1d      	lsr	r5, r3, #16
  10ab46:	1c20      	mov	r0, r4		(add r0, r4, #0)
  10ab48:	1c29      	mov	r1, r5		(add r1, r5, #0)
  10ab4a:	2202      	mov	r2, #2
  10ab4c:	fc0cf7ff 	bl	10a368 <ioman_getAttr>
  10ab50:	2800      	cmp	r0, #0
  10ab52:	d003      	beq	10ab5c <ioman_getSector+0x9c>
  10ab54:	1c20      	mov	r0, r4		(add r0, r4, #0)
  10ab56:	1c29      	mov	r1, r5		(add r1, r5, #0)
  10ab58:	fdbef7ff 	bl	10a6d8 <ioman_flushSector>
  10ab5c:	1c20      	mov	r0, r4		(add r0, r4, #0)
  10ab5e:	1c29      	mov	r1, r5		(add r1, r5, #0)
  10ab60:	fccef7ff 	bl	10a500 <ioman_push>
  10ab64:	0600      	lsl	r0, r0, #24
  10ab66:	2800      	cmp	r0, #0
  10ab68:	d124      	bne	10abb4 <ioman_getSector+0xf4>
  10ab6a:	1c20      	mov	r0, r4		(add r0, r4, #0)
  10ab6c:	1c29      	mov	r1, r5		(add r1, r5, #0)
  10ab6e:	fd43f7ff 	bl	10a5f8 <ioman_resetCacheItem>
  10ab72:	1c20      	mov	r0, r4		(add r0, r4, #0)
  10ab74:	9900      	ldr	r1, [sp, #0]
  10ab76:	1c2a      	mov	r2, r5		(add r2, r5, #0)
  10ab78:	fd88f7ff 	bl	10a68c <ioman_putSectorInCache>
  10ab7c:	0600      	lsl	r0, r0, #24
  10ab7e:	2800      	cmp	r0, #0
  10ab80:	d118      	bne	10abb4 <ioman_getSector+0xf4>
  10ab82:	07bb      	lsl	r3, r7, #30
  10ab84:	d505      	bpl	10ab92 <ioman_getSector+0xd2>
  10ab86:	1c20      	mov	r0, r4		(add r0, r4, #0)
  10ab88:	1c29      	mov	r1, r5		(add r1, r5, #0)
  10ab8a:	2202      	mov	r2, #2
  10ab8c:	2301      	mov	r3, #1
  10ab8e:	fbc9f7ff 	bl	10a324 <ioman_setAttr>
  10ab92:	1c20      	mov	r0, r4		(add r0, r4, #0)
  10ab94:	1c29      	mov	r1, r5		(add r1, r5, #0)
  10ab96:	fc0df7ff 	bl	10a3b4 <ioman_incUseCnt>
  10ab9a:	077b      	lsl	r3, r7, #29
  10ab9c:	d403      	bmi	10aba6 <ioman_getSector+0xe6>
  10ab9e:	1c20      	mov	r0, r4		(add r0, r4, #0)
  10aba0:	1c29      	mov	r1, r5		(add r1, r5, #0)
  10aba2:	fc47f7ff 	bl	10a434 <ioman_incRefCnt>
  10aba6:	1c20      	mov	r0, r4		(add r0, r4, #0)
  10aba8:	1c29      	mov	r1, r5		(add r1, r5, #0)
  10abaa:	fcddf7ff 	bl	10a568 <ioman_getPtr>
  10abae:	e009      	b	10abc4 <ioman_getSector+0x104>
  10abb0:	230a      	mov	r3, #10
  10abb2:	7323      	strb	r3, [r4, #12]
  10abb4:	2000      	mov	r0, #0
  10abb6:	e005      	b	10abc4 <ioman_getSector+0x104>
  10abb8:	1c20      	mov	r0, r4		(add r0, r4, #0)
  10abba:	fec3f7ff 	bl	10a944 <ioman_findOverallocableSpot>
  10abbe:	1c43      	add	r3, r0, #1
  10abc0:	d1bf      	bne	10ab42 <ioman_getSector+0x82>
  10abc2:	e7f5      	b	10abb0 <ioman_getSector+0xf0>
  10abc4:	b001      	add	sp, #4
  10abc6:	bcf0      	pop	{r4, r5, r6, r7}
  10abc8:	bc02      	pop	{r1}
  10abca:	4708      	bx	r1

0010abcc <ioman_releaseSector>:
  10abcc:	b530      	push	{r4, r5, lr}
  10abce:	1c04      	mov	r4, r0		(add r4, r0, #0)
  10abd0:	fcd8f7ff 	bl	10a584 <ioman_getBp>
  10abd4:	0400      	lsl	r0, r0, #16
  10abd6:	0c05      	lsr	r5, r0, #16
  10abd8:	1c29      	mov	r1, r5		(add r1, r5, #0)
  10abda:	1c20      	mov	r0, r4		(add r0, r4, #0)
  10abdc:	fbfcf7ff 	bl	10a3d8 <ioman_decUseCnt>
  10abe0:	8923      	ldrh	r3, [r4, #8]
  10abe2:	1c2a      	mov	r2, r5		(add r2, r5, #0)
  10abe4:	4293      	cmp	r3, r2
  10abe6:	d803      	bhi	10abf0 <ioman_releaseSector+0x24>
  10abe8:	2305      	mov	r3, #5
  10abea:	7323      	strb	r3, [r4, #12]
  10abec:	2300      	mov	r3, #0
  10abee:	e002      	b	10abf6 <ioman_releaseSector+0x2a>
  10abf0:	192b      	add	r3, r5, r4
  10abf2:	3348      	add	r3, #72
  10abf4:	789b      	ldrb	r3, [r3, #2]
  10abf6:	2b00      	cmp	r3, #0
  10abf8:	d11a      	bne	10ac30 <ioman_releaseSector+0x64>
  10abfa:	192b      	add	r3, r5, r4
  10abfc:	334c      	add	r3, #76
  10abfe:	789b      	ldrb	r3, [r3, #2]
  10ac00:	2b00      	cmp	r3, #0
  10ac02:	d015      	beq	10ac30 <ioman_releaseSector+0x64>
  10ac04:	1c20      	mov	r0, r4		(add r0, r4, #0)
  10ac06:	1c29      	mov	r1, r5		(add r1, r5, #0)
  10ac08:	2202      	mov	r2, #2
  10ac0a:	fbadf7ff 	bl	10a368 <ioman_getAttr>
  10ac0e:	2800      	cmp	r0, #0
  10ac10:	d003      	beq	10ac1a <ioman_releaseSector+0x4e>
  10ac12:	1c20      	mov	r0, r4		(add r0, r4, #0)
  10ac14:	1c29      	mov	r1, r5		(add r1, r5, #0)
  10ac16:	fd5ff7ff 	bl	10a6d8 <ioman_flushSector>
  10ac1a:	1c29      	mov	r1, r5		(add r1, r5, #0)
  10ac1c:	1c20      	mov	r0, r4		(add r0, r4, #0)
  10ac1e:	fc3bf7ff 	bl	10a498 <ioman_pop>
  10ac22:	00ab      	lsl	r3, r5, #2
  10ac24:	191b      	add	r3, r3, r4
  10ac26:	6c19      	ldr	r1, [r3, #64]
  10ac28:	1c20      	mov	r0, r4		(add r0, r4, #0)
  10ac2a:	1c2a      	mov	r2, r5		(add r2, r5, #0)
  10ac2c:	fd2ef7ff 	bl	10a68c <ioman_putSectorInCache>
  10ac30:	2000      	mov	r0, #0
  10ac32:	bc30      	pop	{r4, r5}
  10ac34:	bc02      	pop	{r1}
  10ac36:	4708      	bx	r1

0010ac38 <ioman_init>:
  10ac38:	b500      	push	{lr}
  10ac3a:	1c03      	mov	r3, r0		(add r3, r0, #0)
  10ac3c:	3350      	add	r3, #80
  10ac3e:	6043      	str	r3, [r0, #4]
  10ac40:	2302      	mov	r3, #2
  10ac42:	8103      	strh	r3, [r0, #8]
  10ac44:	2303      	mov	r3, #3
  10ac46:	6001      	str	r1, [r0, #0]
  10ac48:	8143      	strh	r3, [r0, #10]
  10ac4a:	fb35f7ff 	bl	10a2b8 <ioman_reset>
  10ac4e:	2000      	mov	r0, #0
  10ac50:	bc02      	pop	{r1}
  10ac52:	4708      	bx	r1

0010ac54 <ex_getb32>:
  10ac54:	1842      	add	r2, r0, r1
  10ac56:	78d0      	ldrb	r0, [r2, #3]
  10ac58:	7893      	ldrb	r3, [r2, #2]
  10ac5a:	0600      	lsl	r0, r0, #24
  10ac5c:	041b      	lsl	r3, r3, #16
  10ac5e:	4318      	orr	r0, r3
  10ac60:	7853      	ldrb	r3, [r2, #1]
  10ac62:	021b      	lsl	r3, r3, #8
  10ac64:	4318      	orr	r0, r3
  10ac66:	7813      	ldrb	r3, [r2, #0]
  10ac68:	4318      	orr	r0, r3
  10ac6a:	4770      	bx	lr

0010ac6c <ex_getb16>:
  10ac6c:	1840      	add	r0, r0, r1
  10ac6e:	7843      	ldrb	r3, [r0, #1]
  10ac70:	7800      	ldrb	r0, [r0, #0]
  10ac72:	021b      	lsl	r3, r3, #8
  10ac74:	4318      	orr	r0, r3
  10ac76:	4770      	bx	lr

0010ac78 <ex_setb16>:
  10ac78:	1840      	add	r0, r0, r1
  10ac7a:	7002      	strb	r2, [r0, #0]
  10ac7c:	0a12      	lsr	r2, r2, #8
  10ac7e:	7042      	strb	r2, [r0, #1]
  10ac80:	4770      	bx	lr
	...

0010ac84 <ex_setb32>:
  10ac84:	1840      	add	r0, r0, r1
  10ac86:	0a13      	lsr	r3, r2, #8
  10ac88:	7002      	strb	r2, [r0, #0]
  10ac8a:	7043      	strb	r3, [r0, #1]
  10ac8c:	0c13      	lsr	r3, r2, #16
  10ac8e:	0e12      	lsr	r2, r2, #24
  10ac90:	7083      	strb	r3, [r0, #2]
  10ac92:	70c2      	strb	r2, [r0, #3]
  10ac94:	4770      	bx	lr
	...

0010ac98 <ex_getPartitionField>:
  10ac98:	b530      	push	{r4, r5, lr}
  10ac9a:	1884      	add	r4, r0, r2
  10ac9c:	7823      	ldrb	r3, [r4, #0]
  10ac9e:	700b      	strb	r3, [r1, #0]
  10aca0:	7863      	ldrb	r3, [r4, #1]
  10aca2:	704b      	strb	r3, [r1, #1]
  10aca4:	78a3      	ldrb	r3, [r4, #2]
  10aca6:	708b      	strb	r3, [r1, #2]
  10aca8:	78e3      	ldrb	r3, [r4, #3]
  10acaa:	70cb      	strb	r3, [r1, #3]
  10acac:	7923      	ldrb	r3, [r4, #4]
  10acae:	710b      	strb	r3, [r1, #4]
  10acb0:	7963      	ldrb	r3, [r4, #5]
  10acb2:	714b      	strb	r3, [r1, #5]
  10acb4:	79a3      	ldrb	r3, [r4, #6]
  10acb6:	718b      	strb	r3, [r1, #6]
  10acb8:	79e3      	ldrb	r3, [r4, #7]
  10acba:	1c0d      	mov	r5, r1		(add r5, r1, #0)
  10acbc:	71cb      	strb	r3, [r1, #7]
  10acbe:	1c20      	mov	r0, r4		(add r0, r4, #0)
  10acc0:	2108      	mov	r1, #8
  10acc2:	ffc7f7ff 	bl	10ac54 <ex_getb32>
  10acc6:	210c      	mov	r1, #12
  10acc8:	60a8      	str	r0, [r5, #8]
  10acca:	1c20      	mov	r0, r4		(add r0, r4, #0)
  10accc:	ffc2f7ff 	bl	10ac54 <ex_getb32>
  10acd0:	60e8      	str	r0, [r5, #12]
  10acd2:	bc30      	pop	{r4, r5}
  10acd4:	bc01      	pop	{r0}
  10acd6:	4700      	bx	r0

0010acd8 <ex_setPartitionField>:
  10acd8:	4770      	bx	lr
  10acda:	46c0      	nop			(mov r8, r8)

0010acdc <ls_openDir>:
  10acdc:	b510      	push	{r4, lr}
  10acde:	b083      	sub	sp, #12
  10ace0:	6001      	str	r1, [r0, #0]
  10ace2:	1c04      	mov	r4, r0		(add r4, r0, #0)
  10ace4:	ab02      	add	r3, sp, #8
  10ace6:	1c08      	mov	r0, r1		(add r0, r1, #0)
  10ace8:	1c11      	mov	r1, r2		(add r1, r2, #0)
  10acea:	466a      	mov	r2, sp
  10acec:	f926f7fe 	bl	108f3c <fs_findFile>
  10acf0:	0600      	lsl	r0, r0, #24
  10acf2:	1600      	asr	r0, r0, #24
  10acf4:	2802      	cmp	r0, #2
  10acf6:	d002      	beq	10acfe <ls_openDir+0x22>
  10acf8:	2001      	mov	r0, #1
  10acfa:	4240      	neg	r0, r0
  10acfc:	e010      	b	10ad20 <ls_openDir+0x44>
  10acfe:	1c21      	mov	r1, r4		(add r1, r4, #0)
  10ad00:	6820      	ldr	r0, [r4, #0]
  10ad02:	311c      	add	r1, #28
  10ad04:	9a02      	ldr	r2, [sp, #8]
  10ad06:	f82bf7fe 	bl	108d60 <fs_initClusterChain>
  10ad0a:	1c20      	mov	r0, r4		(add r0, r4, #0)
  10ad0c:	3008      	add	r0, #8
  10ad0e:	2114      	mov	r1, #20
  10ad10:	f990f000 	bl	10b034 <memClr>
  10ad14:	2300      	mov	r3, #0
  10ad16:	80e3      	strh	r3, [r4, #6]
  10ad18:	2301      	mov	r3, #1
  10ad1a:	425b      	neg	r3, r3
  10ad1c:	80a3      	strh	r3, [r4, #4]
  10ad1e:	2000      	mov	r0, #0
  10ad20:	b003      	add	sp, #12
  10ad22:	bc10      	pop	{r4}
  10ad24:	bc02      	pop	{r1}
  10ad26:	4708      	bx	r1

0010ad28 <ls_isValidFileEntry>:
  10ad28:	7803      	ldrb	r3, [r0, #0]
  10ad2a:	2b00      	cmp	r3, #0
  10ad2c:	d00a      	beq	10ad44 <ls_isValidFileEntry+0x1c>
  10ad2e:	2be5      	cmp	r3, #229
  10ad30:	d008      	beq	10ad44 <ls_isValidFileEntry+0x1c>
  10ad32:	2b2e      	cmp	r3, #46
  10ad34:	d006      	beq	10ad44 <ls_isValidFileEntry+0x1c>
  10ad36:	7c03      	ldrb	r3, [r0, #16]
  10ad38:	220f      	mov	r2, #15
  10ad3a:	4013      	and	r3, r2
  10ad3c:	2b0f      	cmp	r3, #15
  10ad3e:	d001      	beq	10ad44 <ls_isValidFileEntry+0x1c>
  10ad40:	2001      	mov	r0, #1
  10ad42:	e000      	b	10ad46 <ls_isValidFileEntry+0x1e>
  10ad44:	2000      	mov	r0, #0
  10ad46:	4770      	bx	lr

0010ad48 <ls_fileEntryToDirListEntry>:
  10ad48:	b530      	push	{r4, r5, lr}
  10ad4a:	0412      	lsl	r2, r2, #16
  10ad4c:	23f0      	mov	r3, #240
  10ad4e:	1c0c      	mov	r4, r1		(add r4, r1, #0)
  10ad50:	005b      	lsl	r3, r3, #1
  10ad52:	0c11      	lsr	r1, r2, #16
  10ad54:	1c05      	mov	r5, r0		(add r5, r0, #0)
  10ad56:	4299      	cmp	r1, r3
  10ad58:	d810      	bhi	10ad7c <ls_fileEntryToDirListEntry+0x34>
  10ad5a:	231f      	mov	r3, #31
  10ad5c:	4219      	tst	r1, r3
  10ad5e:	d10d      	bne	10ad7c <ls_fileEntryToDirListEntry+0x34>
  10ad60:	1864      	add	r4, r4, r1
  10ad62:	1c01      	mov	r1, r0		(add r1, r0, #0)
  10ad64:	3108      	add	r1, #8
  10ad66:	1c20      	mov	r0, r4		(add r0, r4, #0)
  10ad68:	220c      	mov	r2, #12
  10ad6a:	f953f000 	bl	10b014 <memCpy>
  10ad6e:	7ae3      	ldrb	r3, [r4, #11]
  10ad70:	1c20      	mov	r0, r4		(add r0, r4, #0)
  10ad72:	762b      	strb	r3, [r5, #24]
  10ad74:	211c      	mov	r1, #28
  10ad76:	ff6df7ff 	bl	10ac54 <ex_getb32>
  10ad7a:	6168      	str	r0, [r5, #20]
  10ad7c:	bc30      	pop	{r4, r5}
  10ad7e:	bc01      	pop	{r0}
  10ad80:	4700      	bx	r0
	...

0010ad84 <ls_getRootAreaEntry>:
  10ad84:	b530      	push	{r4, r5, lr}
  10ad86:	6801      	ldr	r1, [r0, #0]
  10ad88:	1c0b      	mov	r3, r1		(add r3, r1, #0)
  10ad8a:	333c      	add	r3, #60
  10ad8c:	781b      	ldrb	r3, [r3, #0]
  10ad8e:	3b01      	sub	r3, #1
  10ad90:	061b      	lsl	r3, r3, #24
  10ad92:	0e1b      	lsr	r3, r3, #24
  10ad94:	1c05      	mov	r5, r0		(add r5, r0, #0)
  10ad96:	2b01      	cmp	r3, #1
  10ad98:	d81c      	bhi	10add4 <ls_getRootAreaEntry+0x50>
  10ad9a:	88c3      	ldrh	r3, [r0, #6]
  10ad9c:	041c      	lsl	r4, r3, #16
  10ad9e:	898b      	ldrh	r3, [r1, #12]
  10ada0:	0c22      	lsr	r2, r4, #16
  10ada2:	4293      	cmp	r3, r2
  10ada4:	d916      	bls	10add4 <ls_getRootAreaEntry+0x50>
  10ada6:	6808      	ldr	r0, [r1, #0]
  10ada8:	6ac9      	ldr	r1, [r1, #44]
  10adaa:	0d23      	lsr	r3, r4, #20
  10adac:	18c9      	add	r1, r1, r3
  10adae:	2201      	mov	r2, #1
  10adb0:	fdf0f7fd 	bl	108994 <part_getSect>
  10adb4:	88ea      	ldrh	r2, [r5, #6]
  10adb6:	230f      	mov	r3, #15
  10adb8:	1c04      	mov	r4, r0		(add r4, r0, #0)
  10adba:	401a      	and	r2, r3
  10adbc:	0152      	lsl	r2, r2, #5
  10adbe:	1c28      	mov	r0, r5		(add r0, r5, #0)
  10adc0:	1c21      	mov	r1, r4		(add r1, r4, #0)
  10adc2:	ffc1f7ff 	bl	10ad48 <ls_fileEntryToDirListEntry>
  10adc6:	682b      	ldr	r3, [r5, #0]
  10adc8:	1c21      	mov	r1, r4		(add r1, r4, #0)
  10adca:	6818      	ldr	r0, [r3, #0]
  10adcc:	fdb0f7fd 	bl	108930 <part_relSect>
  10add0:	2000      	mov	r0, #0
  10add2:	e001      	b	10add8 <ls_getRootAreaEntry+0x54>
  10add4:	2001      	mov	r0, #1
  10add6:	4240      	neg	r0, r0
  10add8:	bc30      	pop	{r4, r5}
  10adda:	bc02      	pop	{r1}
  10addc:	4708      	bx	r1
	...

0010ade0 <ls_getRealDirEntry>:
  10ade0:	b570      	push	{r4, r5, r6, lr}
  10ade2:	6a83      	ldr	r3, [r0, #40]
  10ade4:	1c06      	mov	r6, r0		(add r6, r0, #0)
  10ade6:	2b01      	cmp	r3, #1
  10ade8:	d931      	bls	10ae4e <ls_getRealDirEntry+0x6e>
  10adea:	6804      	ldr	r4, [r0, #0]
  10adec:	79a1      	ldrb	r1, [r4, #6]
  10adee:	1c05      	mov	r5, r0		(add r5, r0, #0)
  10adf0:	0109      	lsl	r1, r1, #4
  10adf2:	88c0      	ldrh	r0, [r0, #6]
  10adf4:	fea8f7fc 	bl	107b48 <__divsi3>
  10adf8:	351c      	add	r5, #28
  10adfa:	1c02      	mov	r2, r0		(add r2, r0, #0)
  10adfc:	1c29      	mov	r1, r5		(add r1, r5, #0)
  10adfe:	1c20      	mov	r0, r4		(add r0, r4, #0)
  10ae00:	fba0f7fe 	bl	109544 <fat_LogicToDiscCluster>
  10ae04:	0400      	lsl	r0, r0, #16
  10ae06:	2800      	cmp	r0, #0
  10ae08:	d121      	bne	10ae4e <ls_getRealDirEntry+0x6e>
  10ae0a:	6830      	ldr	r0, [r6, #0]
  10ae0c:	6a71      	ldr	r1, [r6, #36]
  10ae0e:	6805      	ldr	r5, [r0, #0]
  10ae10:	ff22f7fd 	bl	108c58 <fs_clusterToSector>
  10ae14:	6833      	ldr	r3, [r6, #0]
  10ae16:	1c04      	mov	r4, r0		(add r4, r0, #0)
  10ae18:	88f0      	ldrh	r0, [r6, #6]
  10ae1a:	7999      	ldrb	r1, [r3, #6]
  10ae1c:	0900      	lsr	r0, r0, #4
  10ae1e:	ff49f7fc 	bl	107cb4 <__modsi3>
  10ae22:	1824      	add	r4, r4, r0
  10ae24:	1c21      	mov	r1, r4		(add r1, r4, #0)
  10ae26:	2201      	mov	r2, #1
  10ae28:	1c28      	mov	r0, r5		(add r0, r5, #0)
  10ae2a:	fdb3f7fd 	bl	108994 <part_getSect>
  10ae2e:	88f2      	ldrh	r2, [r6, #6]
  10ae30:	230f      	mov	r3, #15
  10ae32:	1c04      	mov	r4, r0		(add r4, r0, #0)
  10ae34:	401a      	and	r2, r3
  10ae36:	0152      	lsl	r2, r2, #5
  10ae38:	1c30      	mov	r0, r6		(add r0, r6, #0)
  10ae3a:	1c21      	mov	r1, r4		(add r1, r4, #0)
  10ae3c:	ff84f7ff 	bl	10ad48 <ls_fileEntryToDirListEntry>
  10ae40:	6833      	ldr	r3, [r6, #0]
  10ae42:	1c21      	mov	r1, r4		(add r1, r4, #0)
  10ae44:	6818      	ldr	r0, [r3, #0]
  10ae46:	fd73f7fd 	bl	108930 <part_relSect>
  10ae4a:	2000      	mov	r0, #0
  10ae4c:	e001      	b	10ae52 <ls_getRealDirEntry+0x72>
  10ae4e:	2001      	mov	r0, #1
  10ae50:	4240      	neg	r0, r0
  10ae52:	bc70      	pop	{r4, r5, r6}
  10ae54:	bc02      	pop	{r1}
  10ae56:	4708      	bx	r1

0010ae58 <ls_getDirEntry>:
  10ae58:	b500      	push	{lr}
  10ae5a:	6a83      	ldr	r3, [r0, #40]
  10ae5c:	2b01      	cmp	r3, #1
  10ae5e:	d102      	bne	10ae66 <ls_getDirEntry+0xe>
  10ae60:	ff90f7ff 	bl	10ad84 <ls_getRootAreaEntry>
  10ae64:	e006      	b	10ae74 <ls_getDirEntry+0x1c>
  10ae66:	2b00      	cmp	r3, #0
  10ae68:	d102      	bne	10ae70 <ls_getDirEntry+0x18>
  10ae6a:	2001      	mov	r0, #1
  10ae6c:	4240      	neg	r0, r0
  10ae6e:	e003      	b	10ae78 <ls_getDirEntry+0x20>
  10ae70:	ffb6f7ff 	bl	10ade0 <ls_getRealDirEntry>
  10ae74:	0600      	lsl	r0, r0, #24
  10ae76:	1600      	asr	r0, r0, #24
  10ae78:	bc02      	pop	{r1}
  10ae7a:	4708      	bx	r1

0010ae7c <ls_getNext>:
  10ae7c:	b510      	push	{r4, lr}
  10ae7e:	1c04      	mov	r4, r0		(add r4, r0, #0)
  10ae80:	1c20      	mov	r0, r4		(add r0, r4, #0)
  10ae82:	ffe9f7ff 	bl	10ae58 <ls_getDirEntry>
  10ae86:	0600      	lsl	r0, r0, #24
  10ae88:	2800      	cmp	r0, #0
  10ae8a:	d002      	beq	10ae92 <ls_getNext+0x16>
  10ae8c:	2001      	mov	r0, #1
  10ae8e:	4240      	neg	r0, r0
  10ae90:	e00c      	b	10aeac <ls_getNext+0x30>
  10ae92:	88e3      	ldrh	r3, [r4, #6]
  10ae94:	1c20      	mov	r0, r4		(add r0, r4, #0)
  10ae96:	3301      	add	r3, #1
  10ae98:	80e3      	strh	r3, [r4, #6]
  10ae9a:	3008      	add	r0, #8
  10ae9c:	ff44f7ff 	bl	10ad28 <ls_isValidFileEntry>
  10aea0:	2800      	cmp	r0, #0
  10aea2:	d0ed      	beq	10ae80 <ls_getNext+0x4>
  10aea4:	88a3      	ldrh	r3, [r4, #4]
  10aea6:	3301      	add	r3, #1
  10aea8:	80a3      	strh	r3, [r4, #4]
  10aeaa:	2000      	mov	r0, #0
  10aeac:	bc10      	pop	{r4}
  10aeae:	bc02      	pop	{r1}
  10aeb0:	4708      	bx	r1
  10aeb2:	46c0      	nop			(mov r8, r8)

0010aeb4 <if_spiSetSpeed>:
  10aeb4:	0600      	lsl	r0, r0, #24
  10aeb6:	0e00      	lsr	r0, r0, #24
  10aeb8:	2801      	cmp	r0, #1
  10aeba:	d800      	bhi	10aebe <if_spiSetSpeed+0xa>
  10aebc:	2002      	mov	r0, #2
  10aebe:	4905      	ldr	r1, [pc, #20]	(10aed4 <.text+0xaed4>)
  10aec0:	4b05      	ldr	r3, [pc, #20]	(10aed8 <.text+0xaed8>)
  10aec2:	6b0a      	ldr	r2, [r1, #48]
  10aec4:	401a      	and	r2, r3
  10aec6:	2302      	mov	r3, #2
  10aec8:	425b      	neg	r3, r3
  10aeca:	4003      	and	r3, r0
  10aecc:	021b      	lsl	r3, r3, #8
  10aece:	431a      	orr	r2, r3
  10aed0:	630a      	str	r2, [r1, #48]
  10aed2:	4770      	bx	lr
  10aed4:	0000      	lsl	r0, r0, #0
  10aed6:	fffe      	second half of BL instruction 0xfffe
  10aed8:	00ff      	lsl	r7, r7, #3
  10aeda:	ffff      	second half of BL instruction 0xffff

0010aedc <if_spiSend>:
  10aedc:	0609      	lsl	r1, r1, #24
  10aede:	0e09      	lsr	r1, r1, #24
  10aee0:	4a07      	ldr	r2, [pc, #28]	(10af00 <.text+0xaf00>)
  10aee2:	6913      	ldr	r3, [r2, #16]
  10aee4:	0798      	lsl	r0, r3, #30
  10aee6:	d5fb      	bpl	10aee0 <if_spiSend+0x4>
  10aee8:	23e0      	mov	r3, #224
  10aeea:	031b      	lsl	r3, r3, #12
  10aeec:	430b      	orr	r3, r1
  10aeee:	60d3      	str	r3, [r2, #12]
  10aef0:	4a03      	ldr	r2, [pc, #12]	(10af00 <.text+0xaf00>)
  10aef2:	6913      	ldr	r3, [r2, #16]
  10aef4:	07d9      	lsl	r1, r3, #31
  10aef6:	d5fb      	bpl	10aef0 <if_spiSend+0x14>
  10aef8:	6890      	ldr	r0, [r2, #8]
  10aefa:	0600      	lsl	r0, r0, #24
  10aefc:	0e00      	lsr	r0, r0, #24
  10aefe:	4770      	bx	lr
  10af00:	0000      	lsl	r0, r0, #0
  10af02:	fffe      	second half of BL instruction 0xfffe

0010af04 <if_spiInit>:
  10af04:	b570      	push	{r4, r5, r6, lr}
  10af06:	4a17      	ldr	r2, [pc, #92]	(10af64 <.text+0xaf64>)
  10af08:	23e0      	mov	r3, #224
  10af0a:	01db      	lsl	r3, r3, #7
  10af0c:	6053      	str	r3, [r2, #4]
  10af0e:	6713      	str	r3, [r2, #112]
  10af10:	2380      	mov	r3, #128
  10af12:	011b      	lsl	r3, r3, #4
  10af14:	6013      	str	r3, [r2, #0]
  10af16:	6313      	str	r3, [r2, #48]
  10af18:	6113      	str	r3, [r2, #16]
  10af1a:	4b13      	ldr	r3, [pc, #76]	(10af68 <.text+0xaf68>)
  10af1c:	4c13      	ldr	r4, [pc, #76]	(10af6c <.text+0xaf6c>)
  10af1e:	2220      	mov	r2, #32
  10af20:	611a      	str	r2, [r3, #16]
  10af22:	2381      	mov	r3, #129
  10af24:	6023      	str	r3, [r4, #0]
  10af26:	2501      	mov	r5, #1
  10af28:	2315      	mov	r3, #21
  10af2a:	6063      	str	r3, [r4, #4]
  10af2c:	1c06      	mov	r6, r0		(add r6, r0, #0)
  10af2e:	6325      	str	r5, [r4, #48]
  10af30:	20fe      	mov	r0, #254
  10af32:	ffbff7ff 	bl	10aeb4 <if_spiSetSpeed>
  10af36:	6025      	str	r5, [r4, #0]
  10af38:	2415      	mov	r4, #21
  10af3a:	1c30      	mov	r0, r6		(add r0, r6, #0)
  10af3c:	21ff      	mov	r1, #255
  10af3e:	ffcdf7ff 	bl	10aedc <if_spiSend>
  10af42:	1e63      	sub	r3, r4, #1
  10af44:	061b      	lsl	r3, r3, #24
  10af46:	0e1c      	lsr	r4, r3, #24
  10af48:	2c00      	cmp	r4, #0
  10af4a:	d1f6      	bne	10af3a <if_spiInit+0x36>
  10af4c:	4a05      	ldr	r2, [pc, #20]	(10af64 <.text+0xaf64>)
  10af4e:	2380      	mov	r3, #128
  10af50:	011b      	lsl	r3, r3, #4
  10af52:	6153      	str	r3, [r2, #20]
  10af54:	6353      	str	r3, [r2, #52]
  10af56:	6053      	str	r3, [r2, #4]
  10af58:	6713      	str	r3, [r2, #112]
  10af5a:	6754      	str	r4, [r2, #116]
  10af5c:	bc70      	pop	{r4, r5, r6}
  10af5e:	bc01      	pop	{r0}
  10af60:	4700      	bx	r0
  10af62:	0000      	lsl	r0, r0, #0
  10af64:	fffff400 	bl	ffd0bf66 <PMC_USBDIV+0xcfd0bf66>
  10af68:	fc00      	second half of BL instruction 0xfc00
  10af6a:	ffff      	second half of BL instruction 0xffff
  10af6c:	0000      	lsl	r0, r0, #0
  10af6e:	fffe      	second half of BL instruction 0xfffe

0010af70 <if_initInterface>:
  10af70:	b510      	push	{r4, lr}
  10af72:	1c04      	mov	r4, r0		(add r4, r0, #0)
  10af74:	b081      	sub	sp, #4
  10af76:	ffc5f7ff 	bl	10af04 <if_spiInit>
  10af7a:	1c20      	mov	r0, r4		(add r0, r4, #0)
  10af7c:	f94ef000 	bl	10b21c <sd_Init>
  10af80:	0603      	lsl	r3, r0, #24
  10af82:	d501      	bpl	10af88 <if_initInterface+0x18>
  10af84:	2001      	mov	r0, #1
  10af86:	e005      	b	10af94 <if_initInterface+0x24>
  10af88:	1c20      	mov	r0, r4		(add r0, r4, #0)
  10af8a:	f97df000 	bl	10b288 <sd_State>
  10af8e:	0603      	lsl	r3, r0, #24
  10af90:	d502      	bpl	10af98 <if_initInterface+0x28>
  10af92:	2002      	mov	r0, #2
  10af94:	4240      	neg	r0, r0
  10af96:	e00f      	b	10afb8 <if_initInterface+0x48>
  10af98:	4669      	mov	r1, sp
  10af9a:	1c20      	mov	r0, r4		(add r0, r4, #0)
  10af9c:	f8f6f000 	bl	10b18c <sd_getDriveSize>
  10afa0:	9a00      	ldr	r2, [sp, #0]
  10afa2:	4b07      	ldr	r3, [pc, #28]	(10afc0 <.text+0xafc0>)
  10afa4:	0a51      	lsr	r1, r2, #9
  10afa6:	6021      	str	r1, [r4, #0]
  10afa8:	421a      	tst	r2, r3
  10afaa:	d001      	beq	10afb0 <if_initInterface+0x40>
  10afac:	1e4b      	sub	r3, r1, #1
  10afae:	6023      	str	r3, [r4, #0]
  10afb0:	2002      	mov	r0, #2
  10afb2:	ff7ff7ff 	bl	10aeb4 <if_spiSetSpeed>
  10afb6:	2000      	mov	r0, #0
  10afb8:	b001      	add	sp, #4
  10afba:	bc10      	pop	{r4}
  10afbc:	bc02      	pop	{r1}
  10afbe:	4708      	bx	r1
  10afc0:	01ff      	lsl	r7, r7, #7
	...

0010afc4 <if_readBuf>:
  10afc4:	b500      	push	{lr}
  10afc6:	2380      	mov	r3, #128
  10afc8:	009b      	lsl	r3, r3, #2
  10afca:	f971f000 	bl	10b2b0 <sd_readSector>
  10afce:	0600      	lsl	r0, r0, #24
  10afd0:	1600      	asr	r0, r0, #24
  10afd2:	bc02      	pop	{r1}
  10afd4:	4708      	bx	r1
	...

0010afd8 <if_writeBuf>:
  10afd8:	b500      	push	{lr}
  10afda:	f8a5f000 	bl	10b128 <sd_writeSector>
  10afde:	0600      	lsl	r0, r0, #24
  10afe0:	1600      	asr	r0, r0, #24
  10afe2:	bc02      	pop	{r1}
  10afe4:	4708      	bx	r1
	...

0010afe8 <if_setPos>:
  10afe8:	2000      	mov	r0, #0
  10afea:	4770      	bx	lr

0010afec <strMatch>:
  10afec:	b570      	push	{r4, r5, r6, lr}
  10afee:	1c06      	mov	r6, r0		(add r6, r0, #0)
  10aff0:	1c0d      	mov	r5, r1		(add r5, r1, #0)
  10aff2:	1c14      	mov	r4, r2		(add r4, r2, #0)
  10aff4:	2000      	mov	r0, #0
  10aff6:	2100      	mov	r1, #0
  10aff8:	e007      	b	10b00a <strMatch+0x1e>
  10affa:	5d8a      	ldrb	r2, [r1, r6]
  10affc:	5d4b      	ldrb	r3, [r1, r5]
  10affe:	429a      	cmp	r2, r3
  10b000:	d002      	beq	10b008 <strMatch+0x1c>
  10b002:	1c43      	add	r3, r0, #1
  10b004:	041b      	lsl	r3, r3, #16
  10b006:	0c18      	lsr	r0, r3, #16
  10b008:	3101      	add	r1, #1
  10b00a:	42a1      	cmp	r1, r4
  10b00c:	d3f5      	bcc	10affa <strMatch+0xe>
  10b00e:	bc70      	pop	{r4, r5, r6}
  10b010:	bc02      	pop	{r1}
  10b012:	4708      	bx	r1

0010b014 <memCpy>:
  10b014:	b510      	push	{r4, lr}
  10b016:	2400      	mov	r4, #0
  10b018:	1889      	add	r1, r1, r2
  10b01a:	1880      	add	r0, r0, r2
  10b01c:	e002      	b	10b024 <memCpy+0x10>
  10b01e:	7803      	ldrb	r3, [r0, #0]
  10b020:	700b      	strb	r3, [r1, #0]
  10b022:	3401      	add	r4, #1
  10b024:	3801      	sub	r0, #1
  10b026:	3901      	sub	r1, #1
  10b028:	4294      	cmp	r4, r2
  10b02a:	d1f8      	bne	10b01e <memCpy+0xa>
  10b02c:	bc10      	pop	{r4}
  10b02e:	bc01      	pop	{r0}
  10b030:	4700      	bx	r0
	...

0010b034 <memClr>:
  10b034:	1840      	add	r0, r0, r1
  10b036:	2200      	mov	r2, #0
  10b038:	e002      	b	10b040 <memClr+0xc>
  10b03a:	2300      	mov	r3, #0
  10b03c:	7003      	strb	r3, [r0, #0]
  10b03e:	3201      	add	r2, #1
  10b040:	3801      	sub	r0, #1
  10b042:	428a      	cmp	r2, r1
  10b044:	d1f9      	bne	10b03a <memClr+0x6>
  10b046:	4770      	bx	lr

0010b048 <memSet>:
  10b048:	0612      	lsl	r2, r2, #24
  10b04a:	0e12      	lsr	r2, r2, #24
  10b04c:	1840      	add	r0, r0, r1
  10b04e:	2300      	mov	r3, #0
  10b050:	e001      	b	10b056 <memSet+0xe>
  10b052:	7002      	strb	r2, [r0, #0]
  10b054:	3301      	add	r3, #1
  10b056:	3801      	sub	r0, #1
  10b058:	428b      	cmp	r3, r1
  10b05a:	d1fa      	bne	10b052 <memSet+0xa>
  10b05c:	4770      	bx	lr
  10b05e:	46c0      	nop			(mov r8, r8)

0010b060 <fs_makeDate>:
  10b060:	2000      	mov	r0, #0
  10b062:	4770      	bx	lr

0010b064 <fs_makeTime>:
  10b064:	2000      	mov	r0, #0
  10b066:	4770      	bx	lr

0010b068 <fs_hasTimeSupport>:
  10b068:	2000      	mov	r0, #0
  10b06a:	4770      	bx	lr

0010b06c <sd_Resp8bError>:
  10b06c:	4770      	bx	lr
	...

0010b070 <sd_Resp8b>:
  10b070:	b530      	push	{r4, r5, lr}
  10b072:	1c05      	mov	r5, r0		(add r5, r0, #0)
  10b074:	2408      	mov	r4, #8
  10b076:	1c28      	mov	r0, r5		(add r0, r5, #0)
  10b078:	21ff      	mov	r1, #255
  10b07a:	ff2ff7ff 	bl	10aedc <if_spiSend>
  10b07e:	28ff      	cmp	r0, #255
  10b080:	d105      	bne	10b08e <sd_Resp8b+0x1e>
  10b082:	1e63      	sub	r3, r4, #1
  10b084:	061b      	lsl	r3, r3, #24
  10b086:	0e1c      	lsr	r4, r3, #24
  10b088:	2c00      	cmp	r4, #0
  10b08a:	d1f4      	bne	10b076 <sd_Resp8b+0x6>
  10b08c:	20ff      	mov	r0, #255
  10b08e:	bc30      	pop	{r4, r5}
  10b090:	bc02      	pop	{r1}
  10b092:	4708      	bx	r1

0010b094 <sd_Command>:
  10b094:	b5f0      	push	{r4, r5, r6, r7, lr}
  10b096:	041f      	lsl	r7, r3, #16
  10b098:	0415      	lsl	r5, r2, #16
  10b09a:	b082      	sub	sp, #8
  10b09c:	0c2a      	lsr	r2, r5, #16
  10b09e:	0c3b      	lsr	r3, r7, #16
  10b0a0:	060c      	lsl	r4, r1, #24
  10b0a2:	21ff      	mov	r1, #255
  10b0a4:	1c06      	mov	r6, r0		(add r6, r0, #0)
  10b0a6:	9201      	str	r2, [sp, #4]
  10b0a8:	9300      	str	r3, [sp, #0]
  10b0aa:	0e24      	lsr	r4, r4, #24
  10b0ac:	ff16f7ff 	bl	10aedc <if_spiSend>
  10b0b0:	2340      	mov	r3, #64
  10b0b2:	431c      	orr	r4, r3
  10b0b4:	0624      	lsl	r4, r4, #24
  10b0b6:	0e24      	lsr	r4, r4, #24
  10b0b8:	1c30      	mov	r0, r6		(add r0, r6, #0)
  10b0ba:	1c21      	mov	r1, r4		(add r1, r4, #0)
  10b0bc:	0e2d      	lsr	r5, r5, #24
  10b0be:	ff0df7ff 	bl	10aedc <if_spiSend>
  10b0c2:	1c29      	mov	r1, r5		(add r1, r5, #0)
  10b0c4:	1c30      	mov	r0, r6		(add r0, r6, #0)
  10b0c6:	ff09f7ff 	bl	10aedc <if_spiSend>
  10b0ca:	9a01      	ldr	r2, [sp, #4]
  10b0cc:	0611      	lsl	r1, r2, #24
  10b0ce:	1c30      	mov	r0, r6		(add r0, r6, #0)
  10b0d0:	0e09      	lsr	r1, r1, #24
  10b0d2:	ff03f7ff 	bl	10aedc <if_spiSend>
  10b0d6:	0e39      	lsr	r1, r7, #24
  10b0d8:	1c30      	mov	r0, r6		(add r0, r6, #0)
  10b0da:	fefff7ff 	bl	10aedc <if_spiSend>
  10b0de:	9b00      	ldr	r3, [sp, #0]
  10b0e0:	0619      	lsl	r1, r3, #24
  10b0e2:	1c30      	mov	r0, r6		(add r0, r6, #0)
  10b0e4:	0e09      	lsr	r1, r1, #24
  10b0e6:	fef9f7ff 	bl	10aedc <if_spiSend>
  10b0ea:	1c30      	mov	r0, r6		(add r0, r6, #0)
  10b0ec:	2195      	mov	r1, #149
  10b0ee:	fef5f7ff 	bl	10aedc <if_spiSend>
  10b0f2:	1c30      	mov	r0, r6		(add r0, r6, #0)
  10b0f4:	21ff      	mov	r1, #255
  10b0f6:	fef1f7ff 	bl	10aedc <if_spiSend>
  10b0fa:	b002      	add	sp, #8
  10b0fc:	bcf0      	pop	{r4, r5, r6, r7}
  10b0fe:	bc01      	pop	{r0}
  10b100:	4700      	bx	r0
	...

0010b104 <sd_Resp16b>:
  10b104:	b530      	push	{r4, r5, lr}
  10b106:	1c04      	mov	r4, r0		(add r4, r0, #0)
  10b108:	ffb2f7ff 	bl	10b070 <sd_Resp8b>
  10b10c:	21ff      	mov	r1, #255
  10b10e:	0605      	lsl	r5, r0, #24
  10b110:	1c20      	mov	r0, r4		(add r0, r4, #0)
  10b112:	fee3f7ff 	bl	10aedc <if_spiSend>
  10b116:	0c2d      	lsr	r5, r5, #16
  10b118:	4305      	orr	r5, r0
  10b11a:	042d      	lsl	r5, r5, #16
  10b11c:	0c2d      	lsr	r5, r5, #16
  10b11e:	1c28      	mov	r0, r5		(add r0, r5, #0)
  10b120:	bc30      	pop	{r4, r5}
  10b122:	bc02      	pop	{r1}
  10b124:	4708      	bx	r1
	...

0010b128 <sd_writeSector>:
  10b128:	b570      	push	{r4, r5, r6, lr}
  10b12a:	064b      	lsl	r3, r1, #25
  10b12c:	1c16      	mov	r6, r2		(add r6, r2, #0)
  10b12e:	024a      	lsl	r2, r1, #9
  10b130:	1c04      	mov	r4, r0		(add r4, r0, #0)
  10b132:	0c12      	lsr	r2, r2, #16
  10b134:	0c1b      	lsr	r3, r3, #16
  10b136:	2118      	mov	r1, #24
  10b138:	ffacf7ff 	bl	10b094 <sd_Command>
  10b13c:	1c20      	mov	r0, r4		(add r0, r4, #0)
  10b13e:	ff97f7ff 	bl	10b070 <sd_Resp8b>
  10b142:	1c20      	mov	r0, r4		(add r0, r4, #0)
  10b144:	21fe      	mov	r1, #254
  10b146:	fec9f7ff 	bl	10aedc <if_spiSend>
  10b14a:	2500      	mov	r5, #0
  10b14c:	5da9      	ldrb	r1, [r5, r6]
  10b14e:	1c20      	mov	r0, r4		(add r0, r4, #0)
  10b150:	fec4f7ff 	bl	10aedc <if_spiSend>
  10b154:	2380      	mov	r3, #128
  10b156:	3501      	add	r5, #1
  10b158:	009b      	lsl	r3, r3, #2
  10b15a:	429d      	cmp	r5, r3
  10b15c:	d1f6      	bne	10b14c <sd_writeSector+0x24>
  10b15e:	21ff      	mov	r1, #255
  10b160:	1c20      	mov	r0, r4		(add r0, r4, #0)
  10b162:	febbf7ff 	bl	10aedc <if_spiSend>
  10b166:	21ff      	mov	r1, #255
  10b168:	1c20      	mov	r0, r4		(add r0, r4, #0)
  10b16a:	feb7f7ff 	bl	10aedc <if_spiSend>
  10b16e:	1c20      	mov	r0, r4		(add r0, r4, #0)
  10b170:	21ff      	mov	r1, #255
  10b172:	feb3f7ff 	bl	10aedc <if_spiSend>
  10b176:	1c20      	mov	r0, r4		(add r0, r4, #0)
  10b178:	21ff      	mov	r1, #255
  10b17a:	feaff7ff 	bl	10aedc <if_spiSend>
  10b17e:	28ff      	cmp	r0, #255
  10b180:	d1f9      	bne	10b176 <sd_writeSector+0x4e>
  10b182:	2000      	mov	r0, #0
  10b184:	bc70      	pop	{r4, r5, r6}
  10b186:	bc02      	pop	{r1}
  10b188:	4708      	bx	r1
	...

0010b18c <sd_getDriveSize>:
  10b18c:	b5f0      	push	{r4, r5, r6, r7, lr}
  10b18e:	1c0f      	mov	r7, r1		(add r7, r1, #0)
  10b190:	b084      	sub	sp, #16
  10b192:	2109      	mov	r1, #9
  10b194:	2200      	mov	r2, #0
  10b196:	2300      	mov	r3, #0
  10b198:	1c05      	mov	r5, r0		(add r5, r0, #0)
  10b19a:	ff7bf7ff 	bl	10b094 <sd_Command>
  10b19e:	1c28      	mov	r0, r5		(add r0, r5, #0)
  10b1a0:	ff66f7ff 	bl	10b070 <sd_Resp8b>
  10b1a4:	28fe      	cmp	r0, #254
  10b1a6:	d1fa      	bne	10b19e <sd_getDriveSize+0x12>
  10b1a8:	466c      	mov	r4, sp
  10b1aa:	1c28      	mov	r0, r5		(add r0, r5, #0)
  10b1ac:	21ff      	mov	r1, #255
  10b1ae:	fe95f7ff 	bl	10aedc <if_spiSend>
  10b1b2:	7020      	strb	r0, [r4, #0]
  10b1b4:	3401      	add	r4, #1
  10b1b6:	a804      	add	r0, sp, #16
  10b1b8:	466e      	mov	r6, sp
  10b1ba:	4284      	cmp	r4, r0
  10b1bc:	d1f5      	bne	10b1aa <sd_getDriveSize+0x1e>
  10b1be:	1c28      	mov	r0, r5		(add r0, r5, #0)
  10b1c0:	21ff      	mov	r1, #255
  10b1c2:	fe8bf7ff 	bl	10aedc <if_spiSend>
  10b1c6:	1c28      	mov	r0, r5		(add r0, r5, #0)
  10b1c8:	21ff      	mov	r1, #255
  10b1ca:	fe87f7ff 	bl	10aedc <if_spiSend>
  10b1ce:	79b1      	ldrb	r1, [r6, #6]
  10b1d0:	79f3      	ldrb	r3, [r6, #7]
  10b1d2:	2203      	mov	r2, #3
  10b1d4:	4011      	and	r1, r2
  10b1d6:	009b      	lsl	r3, r3, #2
  10b1d8:	0289      	lsl	r1, r1, #10
  10b1da:	18c9      	add	r1, r1, r3
  10b1dc:	7a73      	ldrb	r3, [r6, #9]
  10b1de:	4013      	and	r3, r2
  10b1e0:	7a32      	ldrb	r2, [r6, #8]
  10b1e2:	0992      	lsr	r2, r2, #6
  10b1e4:	1889      	add	r1, r1, r2
  10b1e6:	7ab2      	ldrb	r2, [r6, #10]
  10b1e8:	005b      	lsl	r3, r3, #1
  10b1ea:	09d2      	lsr	r2, r2, #7
  10b1ec:	189b      	add	r3, r3, r2
  10b1ee:	2201      	mov	r2, #1
  10b1f0:	3302      	add	r3, #2
  10b1f2:	1c10      	mov	r0, r2		(add r0, r2, #0)
  10b1f4:	4098      	lsl	r0, r3
  10b1f6:	0403      	lsl	r3, r0, #16
  10b1f8:	3101      	add	r1, #1
  10b1fa:	0c1b      	lsr	r3, r3, #16
  10b1fc:	1c18      	mov	r0, r3		(add r0, r3, #0)
  10b1fe:	4348      	mul	r0, r1
  10b200:	7971      	ldrb	r1, [r6, #5]
  10b202:	230f      	mov	r3, #15
  10b204:	400b      	and	r3, r1
  10b206:	409a      	lsl	r2, r3
  10b208:	0412      	lsl	r2, r2, #16
  10b20a:	0c12      	lsr	r2, r2, #16
  10b20c:	1c13      	mov	r3, r2		(add r3, r2, #0)
  10b20e:	4343      	mul	r3, r0
  10b210:	b004      	add	sp, #16
  10b212:	2000      	mov	r0, #0
  10b214:	603b      	str	r3, [r7, #0]
  10b216:	bcf0      	pop	{r4, r5, r6, r7}
  10b218:	bc02      	pop	{r1}
  10b21a:	4708      	bx	r1

0010b21c <sd_Init>:
  10b21c:	b530      	push	{r4, r5, lr}
  10b21e:	1c04      	mov	r4, r0		(add r4, r0, #0)
  10b220:	2564      	mov	r5, #100
  10b222:	1c20      	mov	r0, r4		(add r0, r4, #0)
  10b224:	2100      	mov	r1, #0
  10b226:	2200      	mov	r2, #0
  10b228:	2300      	mov	r3, #0
  10b22a:	ff33f7ff 	bl	10b094 <sd_Command>
  10b22e:	1c20      	mov	r0, r4		(add r0, r4, #0)
  10b230:	ff1ef7ff 	bl	10b070 <sd_Resp8b>
  10b234:	2801      	cmp	r0, #1
  10b236:	d00b      	beq	10b250 <sd_Init+0x34>
  10b238:	1e6b      	sub	r3, r5, #1
  10b23a:	041b      	lsl	r3, r3, #16
  10b23c:	0c1d      	lsr	r5, r3, #16
  10b23e:	141b      	asr	r3, r3, #16
  10b240:	3301      	add	r3, #1
  10b242:	d1ee      	bne	10b222 <sd_Init+0x6>
  10b244:	28ff      	cmp	r0, #255
  10b246:	d101      	bne	10b24c <sd_Init+0x30>
  10b248:	2001      	mov	r0, #1
  10b24a:	e018      	b	10b27e <sd_Init+0x62>
  10b24c:	2002      	mov	r0, #2
  10b24e:	e016      	b	10b27e <sd_Init+0x62>
  10b250:	25fa      	mov	r5, #250
  10b252:	01ed      	lsl	r5, r5, #7
  10b254:	1c20      	mov	r0, r4		(add r0, r4, #0)
  10b256:	2101      	mov	r1, #1
  10b258:	2200      	mov	r2, #0
  10b25a:	2300      	mov	r3, #0
  10b25c:	ff1af7ff 	bl	10b094 <sd_Command>
  10b260:	1c20      	mov	r0, r4		(add r0, r4, #0)
  10b262:	ff05f7ff 	bl	10b070 <sd_Resp8b>
  10b266:	2801      	cmp	r0, #1
  10b268:	d106      	bne	10b278 <sd_Init+0x5c>
  10b26a:	1e6b      	sub	r3, r5, #1
  10b26c:	041b      	lsl	r3, r3, #16
  10b26e:	0c1d      	lsr	r5, r3, #16
  10b270:	141b      	asr	r3, r3, #16
  10b272:	3301      	add	r3, #1
  10b274:	d002      	beq	10b27c <sd_Init+0x60>
  10b276:	e7ed      	b	10b254 <sd_Init+0x38>
  10b278:	2800      	cmp	r0, #0
  10b27a:	d001      	beq	10b280 <sd_Init+0x64>
  10b27c:	2003      	mov	r0, #3
  10b27e:	4240      	neg	r0, r0
  10b280:	bc30      	pop	{r4, r5}
  10b282:	bc02      	pop	{r1}
  10b284:	4708      	bx	r1
	...

0010b288 <sd_State>:
  10b288:	b510      	push	{r4, lr}
  10b28a:	1c04      	mov	r4, r0		(add r4, r0, #0)
  10b28c:	210d      	mov	r1, #13
  10b28e:	2200      	mov	r2, #0
  10b290:	2300      	mov	r3, #0
  10b292:	fefff7ff 	bl	10b094 <sd_Command>
  10b296:	1c20      	mov	r0, r4		(add r0, r4, #0)
  10b298:	ff34f7ff 	bl	10b104 <sd_Resp16b>
  10b29c:	0400      	lsl	r0, r0, #16
  10b29e:	2800      	cmp	r0, #0
  10b2a0:	d101      	bne	10b2a6 <sd_State+0x1e>
  10b2a2:	2001      	mov	r0, #1
  10b2a4:	e001      	b	10b2aa <sd_State+0x22>
  10b2a6:	2001      	mov	r0, #1
  10b2a8:	4240      	neg	r0, r0
  10b2aa:	bc10      	pop	{r4}
  10b2ac:	bc02      	pop	{r1}
  10b2ae:	4708      	bx	r1

0010b2b0 <sd_readSector>:
  10b2b0:	b5f0      	push	{r4, r5, r6, r7, lr}
  10b2b2:	b081      	sub	sp, #4
  10b2b4:	064c      	lsl	r4, r1, #25
  10b2b6:	9200      	str	r2, [sp, #0]
  10b2b8:	041b      	lsl	r3, r3, #16
  10b2ba:	024a      	lsl	r2, r1, #9
  10b2bc:	0c24      	lsr	r4, r4, #16
  10b2be:	1c05      	mov	r5, r0		(add r5, r0, #0)
  10b2c0:	0c12      	lsr	r2, r2, #16
  10b2c2:	2111      	mov	r1, #17
  10b2c4:	0c1f      	lsr	r7, r3, #16
  10b2c6:	1c23      	mov	r3, r4		(add r3, r4, #0)
  10b2c8:	fee4f7ff 	bl	10b094 <sd_Command>
  10b2cc:	1c28      	mov	r0, r5		(add r0, r5, #0)
  10b2ce:	fecff7ff 	bl	10b070 <sd_Resp8b>
  10b2d2:	4c17      	ldr	r4, [pc, #92]	(10b330 <.text+0xb330>)
  10b2d4:	1c06      	mov	r6, r0		(add r6, r0, #0)
  10b2d6:	1c28      	mov	r0, r5		(add r0, r5, #0)
  10b2d8:	fecaf7ff 	bl	10b070 <sd_Resp8b>
  10b2dc:	28ff      	cmp	r0, #255
  10b2de:	d105      	bne	10b2ec <sd_readSector+0x3c>
  10b2e0:	1e63      	sub	r3, r4, #1
  10b2e2:	041b      	lsl	r3, r3, #16
  10b2e4:	0c1c      	lsr	r4, r3, #16
  10b2e6:	4b12      	ldr	r3, [pc, #72]	(10b330 <.text+0xb330>)
  10b2e8:	429c      	cmp	r4, r3
  10b2ea:	d1f4      	bne	10b2d6 <sd_readSector+0x26>
  10b2ec:	2e00      	cmp	r6, #0
  10b2ee:	d119      	bne	10b324 <sd_readSector+0x74>
  10b2f0:	28fe      	cmp	r0, #254
  10b2f2:	d117      	bne	10b324 <sd_readSector+0x74>
  10b2f4:	2400      	mov	r4, #0
  10b2f6:	1c28      	mov	r0, r5		(add r0, r5, #0)
  10b2f8:	21ff      	mov	r1, #255
  10b2fa:	fdeff7ff 	bl	10aedc <if_spiSend>
  10b2fe:	42bc      	cmp	r4, r7
  10b300:	d201      	bcs	10b306 <sd_readSector+0x56>
  10b302:	9b00      	ldr	r3, [sp, #0]
  10b304:	54e0      	strb	r0, [r4, r3]
  10b306:	2380      	mov	r3, #128
  10b308:	3401      	add	r4, #1
  10b30a:	009b      	lsl	r3, r3, #2
  10b30c:	429c      	cmp	r4, r3
  10b30e:	d1f2      	bne	10b2f6 <sd_readSector+0x46>
  10b310:	21ff      	mov	r1, #255
  10b312:	1c28      	mov	r0, r5		(add r0, r5, #0)
  10b314:	fde2f7ff 	bl	10aedc <if_spiSend>
  10b318:	1c28      	mov	r0, r5		(add r0, r5, #0)
  10b31a:	21ff      	mov	r1, #255
  10b31c:	fddef7ff 	bl	10aedc <if_spiSend>
  10b320:	2000      	mov	r0, #0
  10b322:	e001      	b	10b328 <sd_readSector+0x78>
  10b324:	2001      	mov	r0, #1
  10b326:	4240      	neg	r0, r0
  10b328:	b001      	add	sp, #4
  10b32a:	bcf0      	pop	{r4, r5, r6, r7}
  10b32c:	bc02      	pop	{r1}
  10b32e:	4708      	bx	r1
  10b330:	ffff      	second half of BL instruction 0xffff
	...

0010b334 <__vTaskSwitchContext_from_arm>:
  10b334:	e59fc000 	ldr	ip, [pc, #0]	; 10b33c <__vTaskSwitchContext_from_arm+0x8>
  10b338:	e12fff1c 	bx	ip
  10b33c:	00100af5 	ldreqsh	r0, [r0], -r5

0010b340 <__vTaskIncrementTick_from_arm>:
  10b340:	e59fc000 	ldr	ip, [pc, #0]	; 10b348 <__vTaskIncrementTick_from_arm+0x8>
  10b344:	e12fff1c 	bx	ip
  10b348:	0010091d 	andeqs	r0, r0, sp, lsl r9

0010b34c <__xQueueSendFromISR_from_arm>:
  10b34c:	e59fc000 	ldr	ip, [pc, #0]	; 10b354 <__xQueueSendFromISR_from_arm+0x8>
  10b350:	e12fff1c 	bx	ip
  10b354:	00100f15 	andeqs	r0, r0, r5, lsl pc

0010b358 <__AT91F_PIO_GetInput_from_arm>:
  10b358:	e59fc000 	ldr	ip, [pc, #0]	; 10b360 <__AT91F_PIO_GetInput_from_arm+0x8>
  10b35c:	e12fff1c 	bx	ip
  10b360:	001008a5 	andeqs	r0, r0, r5, lsr #17

0010b364 <__AT91F_AIC_AcknowledgeIt_from_arm>:
  10b364:	e59fc000 	ldr	ip, [pc, #0]	; 10b36c <__AT91F_AIC_AcknowledgeIt_from_arm+0x8>
  10b368:	e12fff1c 	bx	ip
  10b36c:	00100875 	andeqs	r0, r0, r5, ror r8

0010b370 <__AT91F_AIC_ClearIt_from_arm>:
  10b370:	e59fc000 	ldr	ip, [pc, #0]	; 10b378 <__AT91F_AIC_ClearIt_from_arm+0x8>
  10b374:	e12fff1c 	bx	ip
  10b378:	00100869 	andeqs	r0, r0, r9, ror #16

0010b37c <__vPortEnterCritical_from_thumb>:
  10b37c:	4778      	bx	pc
  10b37e:	46c0      	nop			(mov r8, r8)

0010b380 <__vPortEnterCritical_change_to_arm>:
  10b380:	eaffd402 	b	100390 <vPortEnterCritical>

0010b384 <__vPortExitCritical_from_thumb>:
  10b384:	4778      	bx	pc
  10b386:	46c0      	nop			(mov r8, r8)

0010b388 <__vPortExitCritical_change_to_arm>:
  10b388:	eaffd40b 	b	1003bc <vPortExitCritical>

0010b38c <__vPortDisableInterruptsFromThumb_from_thumb>:
  10b38c:	4778      	bx	pc
  10b38e:	46c0      	nop			(mov r8, r8)

0010b390 <__vPortDisableInterruptsFromThumb_change_to_arm>:
  10b390:	eaffd3f8 	b	100378 <vPortDisableInterruptsFromThumb>

0010b394 <__vPortISRStartFirstTask_from_thumb>:
  10b394:	4778      	bx	pc
  10b396:	46c0      	nop			(mov r8, r8)

0010b398 <__vPortISRStartFirstTask_change_to_arm>:
  10b398:	eaffd386 	b	1001b8 <vPortISRStartFirstTask>

0010b39c <____ltdf2_from_thumb>:
  10b39c:	4778      	bx	pc
  10b39e:	46c0      	nop			(mov r8, r8)

0010b3a0 <____ltdf2_change_to_arm>:
  10b3a0:	eafff4af 	b	108664 <__ledf2>

0010b3a4 <____fixdfsi_from_thumb>:
  10b3a4:	4778      	bx	pc
  10b3a6:	46c0      	nop			(mov r8, r8)

0010b3a8 <____fixdfsi_change_to_arm>:
  10b3a8:	eafff4fb 	b	10879c <__aeabi_d2iz>

0010b3ac <____floatsidf_from_thumb>:
  10b3ac:	4778      	bx	pc
  10b3ae:	46c0      	nop			(mov r8, r8)

0010b3b0 <____floatsidf_change_to_arm>:
  10b3b0:	eafff347 	b	1080d4 <__aeabi_i2d>

0010b3b4 <____subdf3_from_thumb>:
  10b3b4:	4778      	bx	pc
  10b3b6:	46c0      	nop			(mov r8, r8)

0010b3b8 <____subdf3_change_to_arm>:
  10b3b8:	eafff276 	b	107d98 <__aeabi_dsub>

0010b3bc <____muldf3_from_thumb>:
  10b3bc:	4778      	bx	pc
  10b3be:	46c0      	nop			(mov r8, r8)

0010b3c0 <____muldf3_change_to_arm>:
  10b3c0:	eafff37e 	b	1081c0 <__aeabi_dmul>

0010b3c4 <____fixunsdfsi_from_thumb>:
  10b3c4:	0000      	lsl	r0, r0, #0
	...

0010b3c8 <____fixunsdfsi_change_to_arm>:
  10b3c8:	00000000 	andeq	r0, r0, r0

0010b3cc <____adddf3_from_thumb>:
  10b3cc:	4778      	bx	pc
  10b3ce:	46c0      	nop			(mov r8, r8)

0010b3d0 <____adddf3_change_to_arm>:
  10b3d0:	eafff271 	b	107d9c <__adddf3>

0010b3d4 <____gtdf2_from_thumb>:
  10b3d4:	4778      	bx	pc
  10b3d6:	46c0      	nop			(mov r8, r8)

0010b3d8 <____gtdf2_change_to_arm>:
  10b3d8:	eafff49f 	b	10865c <__gedf2>

0010b3dc <____gedf2_from_thumb>:
  10b3dc:	4778      	bx	pc
  10b3de:	46c0      	nop			(mov r8, r8)

0010b3e0 <____gedf2_change_to_arm>:
  10b3e0:	eafff49d 	b	10865c <__gedf2>

0010b3e4 <____eqdf2_from_thumb>:
  10b3e4:	4778      	bx	pc
  10b3e6:	46c0      	nop			(mov r8, r8)

0010b3e8 <____eqdf2_change_to_arm>:
  10b3e8:	eafff49f 	b	10866c <__cmpdf2>

0010b3ec <____nedf2_from_thumb>:
  10b3ec:	4778      	bx	pc
  10b3ee:	46c0      	nop			(mov r8, r8)

0010b3f0 <____nedf2_change_to_arm>:
  10b3f0:	eafff49d 	b	10866c <__cmpdf2>

0010b3f4 <____divdf3_from_thumb>:
  10b3f4:	4778      	bx	pc
  10b3f6:	46c0      	nop			(mov r8, r8)

0010b3f8 <____divdf3_change_to_arm>:
  10b3f8:	eafff414 	b	108450 <__aeabi_ddiv>
Disassembly of section .data:

00200000 <_data>:
  200000:	e59ff018 	ldr	pc, [pc, #24]	; 200020 <Reset_AddrR>
  200004:	e59ff018 	ldr	pc, [pc, #24]	; 200024 <Undef_AddrR>
  200008:	e59ff018 	ldr	pc, [pc, #24]	; 200028 <SWI_AddrR>
  20000c:	e59ff018 	ldr	pc, [pc, #24]	; 20002c <PAbt_AddrR>
  200010:	e59ff018 	ldr	pc, [pc, #24]	; 200030 <DAbt_AddrR>
  200014:	e1a00000 	nop			(mov r0,r0)
  200018:	e51fff20 	ldr	pc, [pc, #-3872]	; 1ff100 <PMC_PLLR_Val+0x6d4fb>
  20001c:	e51fff20 	ldr	pc, [pc, #-3872]	; 1ff104 <PMC_PLLR_Val+0x6d4ff>

00200020 <Reset_AddrR>:
  200020:	0010005c 	andeqs	r0, r0, ip, asr r0

00200024 <Undef_AddrR>:
  200024:	00200040 	eoreq	r0, r0, r0, asr #32

00200028 <SWI_AddrR>:
  200028:	0010020c 	andeqs	r0, r0, ip, lsl #4

0020002c <PAbt_AddrR>:
  20002c:	00200048 	eoreq	r0, r0, r8, asr #32

00200030 <DAbt_AddrR>:
  200030:	0020004c 	eoreq	r0, r0, ip, asr #32
  200034:	00000000 	andeq	r0, r0, r0

00200038 <IRQ_AddrR>:
  200038:	00200050 	eoreq	r0, r0, r0, asr r0

0020003c <FIQ_AddrR>:
  20003c:	00200054 	eoreq	r0, r0, r4, asr r0

00200040 <Undef_HandlerR>:
  200040:	eafffffe 	b	200040 <Undef_HandlerR>

00200044 <SWI_HandlerR>:
  200044:	eafffffe 	b	200044 <SWI_HandlerR>

00200048 <PAbt_HandlerR>:
  200048:	eafffffe 	b	200048 <PAbt_HandlerR>

0020004c <DAbt_HandlerR>:
  20004c:	eafffffe 	b	20004c <DAbt_HandlerR>

00200050 <IRQ_HandlerR>:
  200050:	eafffffe 	b	200050 <IRQ_HandlerR>

00200054 <FIQ_HandlerR>:
  200054:	eafffffe 	b	200054 <FIQ_HandlerR>

00200058 <impure_data>:
  200058:	00000000 00200344 002003a0 002003fc     ....D. ... ... .
	...
  20008c:	0010b8f0 00000000 00000000 00000000     ................
	...
  2000fc:	00000001 00000000 abcd330e e66d1234     .........3..4.m.
  20010c:	0005deec 0000000b 00000000 00000000     ................
	...

00200458 <_impure_ptr>:
  200458:	00200058                                X. .

0020045c <__lc_ctype>:
  20045c:	00000043 00000000 00000000              C...........

00200468 <__mb_cur_max>:
  200468:	00000001                                ....

0020046c <charset>:
  20046c:	0010b8f4                                ....

00200470 <__malloc_sbrk_base>:
  200470:	ffffffff                                ....

00200474 <__malloc_trim_threshold>:
  200474:	00020000                                ....

00200478 <__malloc_av_>:
	...
  200480:	00200478 00200478 00200480 00200480     x. .x. ... ... .
  200490:	00200488 00200488 00200490 00200490     .. ... ... ... .
  2004a0:	00200498 00200498 002004a0 002004a0     .. ... ... ... .
  2004b0:	002004a8 002004a8 002004b0 002004b0     .. ... ... ... .
  2004c0:	002004b8 002004b8 002004c0 002004c0     .. ... ... ... .
  2004d0:	002004c8 002004c8 002004d0 002004d0     .. ... ... ... .
  2004e0:	002004d8 002004d8 002004e0 002004e0     .. ... ... ... .
  2004f0:	002004e8 002004e8 002004f0 002004f0     .. ... ... ... .
  200500:	002004f8 002004f8 00200500 00200500     .. ... ... ... .
  200510:	00200508 00200508 00200510 00200510     .. ... ... ... .
  200520:	00200518 00200518 00200520 00200520     .. ... . . . . .
  200530:	00200528 00200528 00200530 00200530     (. .(. .0. .0. .
  200540:	00200538 00200538 00200540 00200540     8. .8. .@. .@. .
  200550:	00200548 00200548 00200550 00200550     H. .H. .P. .P. .
  200560:	00200558 00200558 00200560 00200560     X. .X. .`. .`. .
  200570:	00200568 00200568 00200570 00200570     h. .h. .p. .p. .
  200580:	00200578 00200578 00200580 00200580     x. .x. ... ... .
  200590:	00200588 00200588 00200590 00200590     .. ... ... ... .
  2005a0:	00200598 00200598 002005a0 002005a0     .. ... ... ... .
  2005b0:	002005a8 002005a8 002005b0 002005b0     .. ... ... ... .
  2005c0:	002005b8 002005b8 002005c0 002005c0     .. ... ... ... .
  2005d0:	002005c8 002005c8 002005d0 002005d0     .. ... ... ... .
  2005e0:	002005d8 002005d8 002005e0 002005e0     .. ... ... ... .
  2005f0:	002005e8 002005e8 002005f0 002005f0     .. ... ... ... .
  200600:	002005f8 002005f8 00200600 00200600     .. ... ... ... .
  200610:	00200608 00200608 00200610 00200610     .. ... ... ... .
  200620:	00200618 00200618 00200620 00200620     .. ... . . . . .
  200630:	00200628 00200628 00200630 00200630     (. .(. .0. .0. .
  200640:	00200638 00200638 00200640 00200640     8. .8. .@. .@. .
  200650:	00200648 00200648 00200650 00200650     H. .H. .P. .P. .
  200660:	00200658 00200658 00200660 00200660     X. .X. .`. .`. .
  200670:	00200668 00200668 00200670 00200670     h. .h. .p. .p. .
  200680:	00200678 00200678 00200680 00200680     x. .x. ... ... .
  200690:	00200688 00200688 00200690 00200690     .. ... ... ... .
  2006a0:	00200698 00200698 002006a0 002006a0     .. ... ... ... .
  2006b0:	002006a8 002006a8 002006b0 002006b0     .. ... ... ... .
  2006c0:	002006b8 002006b8 002006c0 002006c0     .. ... ... ... .
  2006d0:	002006c8 002006c8 002006d0 002006d0     .. ... ... ... .
  2006e0:	002006d8 002006d8 002006e0 002006e0     .. ... ... ... .
  2006f0:	002006e8 002006e8 002006f0 002006f0     .. ... ... ... .
  200700:	002006f8 002006f8 00200700 00200700     .. ... ... ... .
  200710:	00200708 00200708 00200710 00200710     .. ... ... ... .
  200720:	00200718 00200718 00200720 00200720     .. ... . . . . .
  200730:	00200728 00200728 00200730 00200730     (. .(. .0. .0. .
  200740:	00200738 00200738 00200740 00200740     8. .8. .@. .@. .
  200750:	00200748 00200748 00200750 00200750     H. .H. .P. .P. .
  200760:	00200758 00200758 00200760 00200760     X. .X. .`. .`. .
  200770:	00200768 00200768 00200770 00200770     h. .h. .p. .p. .
  200780:	00200778 00200778 00200780 00200780     x. .x. ... ... .
  200790:	00200788 00200788 00200790 00200790     .. ... ... ... .
  2007a0:	00200798 00200798 002007a0 002007a0     .. ... ... ... .
  2007b0:	002007a8 002007a8 002007b0 002007b0     .. ... ... ... .
  2007c0:	002007b8 002007b8 002007c0 002007c0     .. ... ... ... .
  2007d0:	002007c8 002007c8 002007d0 002007d0     .. ... ... ... .
  2007e0:	002007d8 002007d8 002007e0 002007e0     .. ... ... ... .
  2007f0:	002007e8 002007e8 002007f0 002007f0     .. ... ... ... .
  200800:	002007f8 002007f8 00200800 00200800     .. ... ... ... .
  200810:	00200808 00200808 00200810 00200810     .. ... ... ... .
  200820:	00200818 00200818 00200820 00200820     .. ... . . . . .
  200830:	00200828 00200828 00200830 00200830     (. .(. .0. .0. .
  200840:	00200838 00200838 00200840 00200840     8. .8. .@. .@. .
  200850:	00200848 00200848 00200850 00200850     H. .H. .P. .P. .
  200860:	00200858 00200858 00200860 00200860     X. .X. .`. .`. .
  200870:	00200868 00200868 00200870 00200870     h. .h. .p. .p. .
